
DVP_UART_V5F.elf:     file format elf32-littleriscv
DVP_UART_V5F.elf
architecture: riscv:rv32, flags 0x00000112:
EXEC_P, HAS_SYMS, D_PAGED
start address 0x00040000

Program Header:
0x70000003 off    0x00025d81 vaddr 0x00000000 paddr 0x00000000 align 2**0
         filesz 0x00000056 memsz 0x00000000 flags r--
    LOAD off    0x00001000 vaddr 0x00040000 paddr 0x00040000 align 2**12
         filesz 0x00000008 memsz 0x00000008 flags r-x
    LOAD off    0x00001200 vaddr 0x200c0200 paddr 0x00040008 align 2**12
         filesz 0x000000d8 memsz 0x000000d8 flags r-x
    LOAD off    0x00002000 vaddr 0x200a0000 paddr 0x000400e0 align 2**12
         filesz 0x00004ce4 memsz 0x00004ce4 flags r-x
    LOAD off    0x00006dc4 vaddr 0x00044dc4 paddr 0x00044dc4 align 2**12
         filesz 0x00003ba4 memsz 0x00003ba4 flags r-x
    LOAD off    0x0000b300 vaddr 0x200c0300 paddr 0x00048968 align 2**12
         filesz 0x000001b4 memsz 0x00000d68 flags rw-
    LOAD off    0x00000800 vaddr 0x200ff800 paddr 0x200ff800 align 2**12
         filesz 0x00000000 memsz 0x00000800 flags rw-

Sections:
Idx Name          Size      VMA       LMA       File off  Algn
  0 .init         00000008  00040000  00040000  00001000  2**2
                  CONTENTS, ALLOC, LOAD, READONLY, CODE
  1 .loadcodelalign 00000000  00040008  00040008  0000b4b4  2**0
                  CONTENTS
  2 .loadcode     000000d8  200c0200  00040008  00001200  2**1
                  CONTENTS, ALLOC, LOAD, READONLY, CODE
  3 .highcodelalign 00000000  000400e0  000400e0  0000b4b4  2**0
                  CONTENTS
  4 .highcode     00004ce4  200a0000  000400e0  00002000  2**1
                  CONTENTS, ALLOC, LOAD, READONLY, CODE
  5 .rodata_flash 00003b50  00044dc4  00044dc4  00006dc4  2**2
                  CONTENTS, ALLOC, LOAD, READONLY, DATA
  6 .text         00000054  00048914  00048914  0000a914  2**1
                  CONTENTS, ALLOC, LOAD, READONLY, CODE
  7 .highcodelalign1 00000000  00048968  00048968  0000b4b4  2**0
                  CONTENTS
  8 .fini         00000000  200a4ce4  200a4ce4  0000b4b4  2**0
                  CONTENTS, ALLOC, LOAD, CODE
  9 .dtors        00000000  200a4ce4  200a4ce4  0000b4b4  2**0
                  CONTENTS
 10 .dalign       00000000  200c0300  200c0300  0000b4b4  2**0
                  CONTENTS
 11 .dlalign      00000000  00048968  00048968  0000b4b4  2**0
                  CONTENTS
 12 .data         000001b4  200c0300  00048968  0000b300  2**5
                  CONTENTS, ALLOC, LOAD, DATA
 13 .bss          00000bb4  200c04b4  00048b1c  0000b4b4  2**2
                  ALLOC
 14 .stack        00000800  200ff800  200ff800  0000b800  2**0
                  ALLOC
 15 .debug_info   00008231  00000000  00000000  0000b4b4  2**0
                  CONTENTS, READONLY, DEBUGGING, OCTETS
 16 .debug_abbrev 00001d54  00000000  00000000  000136e5  2**0
                  CONTENTS, READONLY, DEBUGGING, OCTETS
 17 .debug_loclists 0000345b  00000000  00000000  00015439  2**0
                  CONTENTS, READONLY, DEBUGGING, OCTETS
 18 .debug_aranges 00000690  00000000  00000000  00018898  2**3
                  CONTENTS, READONLY, DEBUGGING, OCTETS
 19 .debug_rnglists 00000fa2  00000000  00000000  00018f28  2**0
                  CONTENTS, READONLY, DEBUGGING, OCTETS
 20 .debug_line   000090e9  00000000  00000000  00019eca  2**0
                  CONTENTS, READONLY, DEBUGGING, OCTETS
 21 .debug_str    00002509  00000000  00000000  00022fb3  2**0
                  CONTENTS, READONLY, DEBUGGING, OCTETS
 22 .debug_line_str 00000894  00000000  00000000  000254bc  2**0
                  CONTENTS, READONLY, DEBUGGING, OCTETS
 23 .comment      00000031  00000000  00000000  00025d50  2**0
                  CONTENTS, READONLY
 24 .riscv.attributes 00000056  00000000  00000000  00025d81  2**0
                  CONTENTS, READONLY
 25 .debug_frame  00000e94  00000000  00000000  00025dd8  2**2
                  CONTENTS, READONLY, DEBUGGING, OCTETS
SYMBOL TABLE:
00040000 l    d  .init	00000000 .init
00040008 l    d  .loadcodelalign	00000000 .loadcodelalign
200c0200 l    d  .loadcode	00000000 .loadcode
000400e0 l    d  .highcodelalign	00000000 .highcodelalign
200a0000 l    d  .highcode	00000000 .highcode
00044dc4 l    d  .rodata_flash	00000000 .rodata_flash
00048914 l    d  .text	00000000 .text
00048968 l    d  .highcodelalign1	00000000 .highcodelalign1
200a4ce4 l    d  .fini	00000000 .fini
200a4ce4 l    d  .dtors	00000000 .dtors
200c0300 l    d  .dalign	00000000 .dalign
00048968 l    d  .dlalign	00000000 .dlalign
200c0300 l    d  .data	00000000 .data
200c04b4 l    d  .bss	00000000 .bss
200ff800 l    d  .stack	00000000 .stack
00000000 l    d  .debug_info	00000000 .debug_info
00000000 l    d  .debug_abbrev	00000000 .debug_abbrev
00000000 l    d  .debug_loclists	00000000 .debug_loclists
00000000 l    d  .debug_aranges	00000000 .debug_aranges
00000000 l    d  .debug_rnglists	00000000 .debug_rnglists
00000000 l    d  .debug_line	00000000 .debug_line
00000000 l    d  .debug_str	00000000 .debug_str
00000000 l    d  .debug_line_str	00000000 .debug_line_str
00000000 l    d  .comment	00000000 .comment
00000000 l    d  .riscv.attributes	00000000 .riscv.attributes
00000000 l    d  .debug_frame	00000000 .debug_frame
00000000 l    df *ABS*	00000000 startup_ch32h417_v5f.o
200a0000 l       .highcode	00000000 _vector_base
200c0200 l       .loadcode	00000000 _load_base
00000000 l    df *ABS*	00000000 save-restore.o
00000000 l    df *ABS*	00000000 lib_a-memset.o
00000000 l    df *ABS*	00000000 ch32h417_it.c
200a02c4 l     F .highcode	00000028 dbg_putc
200a02ec l     F .highcode	00000014 dbg_puts
200a0300 l     F .highcode	00000034 dbg_hex
00000000 l    df *ABS*	00000000 main.c
200a0440 l     F .highcode	00000026 send_byte
200a0466 l     F .highcode	00000018 send_str
200a047e l     F .highcode	00000044 send_u32
200a04c2 l     F .highcode	0000001a send_i32
200c051c l     O .bss	00000018 output.1
00044f50 l     O .rodata_flash	00000018 class_names.0
00000000 l    df *ABS*	00000000 system_ch32h417.c
200c0320 l     O .data	00000020 PLLMULTB
200c0310 l     O .data	00000010 HBPrescTB
200c03e0 l     O .data	00000004 FPRETB
200c0300 l     O .data	00000010 SERDESPLLMULTB
00000000 l    df *ABS*	00000000 ch32h417_dvp.c
00000000 l    df *ABS*	00000000 ch32h417_gpio.c
00000000 l    df *ABS*	00000000 ch32h417_rcc.c
200c0360 l     O .data	00000020 PLLMULTable
200c0350 l     O .data	00000010 HBPrescTable
200c03f0 l     O .data	00000004 FPRETable
200c0340 l     O .data	00000010 SERDESPLLMULTable
200c03e8 l     O .data	00000008 PPRE2Table
200c03e4 l     O .data	00000004 ADCPRETable
00000000 l    df *ABS*	00000000 ch32h417_usart.c
00000000 l    df *ABS*	00000000 debug.c
200c04c4 l     O .bss	00000002 p_us
200c04c0 l     O .bss	00000004 p_ms
200c03f4 l     O .data	00000004 curbrk.0
00000000 l    df *ABS*	00000000 hardware.c
00000000 l    df *ABS*	00000000 inference.c
200c0534 l     O .bss	00000020 b_fused
200c0554 l     O .bss	00000360 w_fused
00000000 l    df *ABS*	00000000 jpeg_dec.c
200a16bc l     F .highcode	0000007c read_bit
200c04e8 l     O .bss	00000004 bit_cnt
200c04e4 l     O .bss	00000004 data_ptr
200c04e0 l     O .bss	00000004 data_end
200c04ec l     O .bss	00000004 bit_buf
200c04dc l     O .bss	00000004 entropy_bit_count
200a1738 l     F .highcode	00000026 read_bits
200a175e l     F .highcode	0000005a huff_decode
200c0bd0 l     O .bss	000002f8 dc_tab
200c08d8 l     O .bss	000002f8 ac_tab
200c08cc l     O .bss	0000000c comp_qt
200c08c0 l     O .bss	0000000c comp_dc
200c08b4 l     O .bss	0000000c comp_ac
200c04f0 l     O .bss	00000004 debug_idx
00044f68 l     O .rodata_flash	00000100 cos_table
00045068 l     O .rodata_flash	00000040 zigzag
00000000 l    df *ABS*	00000000 ov2640.c
00000000 l    df *ABS*	00000000 lib_a-wf_exp.o
00000000 l    df *ABS*	00000000 lib_a-wf_sqrt.o
00000000 l    df *ABS*	00000000 lib_a-ef_exp.o
200c04a0 l     O .data	00000008 ln2HI
200c0498 l     O .data	00000008 ln2LO
200c04a8 l     O .data	00000008 halF
00000000 l    df *ABS*	00000000 lib_a-ef_sqrt.o
200c0434 l     O .data	00000004 one
200c0430 l     O .data	00000004 tiny
00000000 l    df *ABS*	00000000 lib_a-math_errf.o
200a27f4 l     F .highcode	0000001e with_errnof
200a2812 l     F .highcode	0000001e xflowf
00000000 l    df *ABS*	00000000 lib_a-sf_finite.o
00000000 l    df *ABS*	00000000 _udivdi3.o
00000000 l    df *ABS*	00000000 addsf3.o
00000000 l    df *ABS*	00000000 divsf3.o
00000000 l    df *ABS*	00000000 gesf2.o
00000000 l    df *ABS*	00000000 lesf2.o
00000000 l    df *ABS*	00000000 mulsf3.o
00000000 l    df *ABS*	00000000 subsf3.o
00000000 l    df *ABS*	00000000 unordsf2.o
00000000 l    df *ABS*	00000000 fixsfsi.o
00000000 l    df *ABS*	00000000 fixunssfsi.o
00000000 l    df *ABS*	00000000 floatsisf.o
00000000 l    df *ABS*	00000000 lib_a-errno.o
00000000 l    df *ABS*	00000000 lib_a-printf.o
00000000 l    df *ABS*	00000000 lib_a-findfp.o
200a3b58 l     F .highcode	00000066 std
00000000 l    df *ABS*	00000000 lib_a-fwalk.o
00000000 l    df *ABS*	00000000 lib_a-lock.o
00000000 l    df *ABS*	00000000 lib_a-nano-mallocr.o
200a3db6 l     F .highcode	00000054 sbrk_aligned
00000000 l    df *ABS*	00000000 lib_a-nano-vfprintf.o
200a3f16 l     F .highcode	00000026 __sfputc_r
00000000 l    df *ABS*	00000000 lib_a-sbrkr.o
00000000 l    df *ABS*	00000000 lib_a-stdio.o
00000000 l    df *ABS*	00000000 lib_a-wbuf.o
00000000 l    df *ABS*	00000000 lib_a-writer.o
00000000 l    df *ABS*	00000000 lib_a-wsetup.o
00000000 l    df *ABS*	00000000 lib_a-closer.o
00000000 l    df *ABS*	00000000 lib_a-fflush.o
00000000 l    df *ABS*	00000000 lib_a-lseekr.o
00000000 l    df *ABS*	00000000 lib_a-makebuf.o
00000000 l    df *ABS*	00000000 lib_a-memchr.o
00000000 l    df *ABS*	00000000 lib_a-mlock.o
00000000 l    df *ABS*	00000000 lib_a-nano-freer.o
00000000 l    df *ABS*	00000000 lib_a-nano-vfprintf_i.o
00000000 l    df *ABS*	00000000 lib_a-readr.o
00000000 l    df *ABS*	00000000 lib_a-fstatr.o
00000000 l    df *ABS*	00000000 lib_a-isattyr.o
00000000 l    df *ABS*	00000000 close.o
00000000 l    df *ABS*	00000000 fstat.o
00000000 l    df *ABS*	00000000 isatty.o
00000000 l    df *ABS*	00000000 lseek.o
00000000 l    df *ABS*	00000000 read.o
00000000 l    df *ABS*	00000000 weights_simple.c
00000000 l    df *ABS*	00000000 lib_a-impure.o
200c0380 l     O .data	00000060 impure_data
200c0400 g     O .data	00000004 JPEG_DVPDMAaddr1
200a09e2  w      .highcode	00000000 TIM8_TRG_COM_IRQHandler
200a1ee2 g     F .highcode	0000008c SCCB_WR_Byte
200a09e2  w      .highcode	00000000 TIM8_CC_IRQHandler
200a09e2  w      .highcode	00000000 USART_WKUP_IRQHandler
200c04d0 g     O .bss	00000004 href_cnt
200a4c82 g     F .highcode	00000026 _isatty_r
200a46c8 g     F .highcode	0000002a _lseek_r
200a237c g     F .highcode	00000032 OV2640_Speed_Set
200a0c06 g     F .highcode	000001e8 GPIO_PinAFConfig
200a09e2  w      .highcode	00000000 SPI4_IRQHandler
200c04c8 g     O .bss	00000004 jpeg_size
200a09e2  w      .highcode	00000000 DFSDM0_IRQHandler
200a201c g     F .highcode	0000005a SCCB_RD_Reg
200a3b20 g     F .highcode	00000038 printf
200c0be0 g       .data	00000000 __global_pointer$
200a025c g     F .highcode	00000028 .hidden __riscv_save_8
200a09e2  w      .highcode	00000000 TIM1_CC_IRQHandler
200a42d2 g     F .highcode	0000002e __sseek
200a3c26 g     F .highcode	00000072 __sinit
200a4306 g     F .highcode	000000be __swbuf_r
200a0336 g     F .highcode	00000052 HardFault_Handler
200a09e2  w      .highcode	00000000 TIM10_IRQHandler
200a3bc8 g     F .highcode	00000046 __sfmoreglue
200a4800 g     F .highcode	00000008 __malloc_unlock
200a09e2  w      .highcode	00000000 IPC_CH2_Handler
200a09e2  w      .highcode	00000000 USBPD_IRQHandler
200a02a8 g     F .highcode	0000000c .hidden __riscv_restore_3
200a09e2  w      .highcode	00000000 TIM6_IRQHandler
200a2f48 g     F .highcode	000002be .hidden __divsf3
200a09e2  w      .highcode	00000000 CAN3_RX1_IRQHandler
200a09e2  w      .highcode	00000000 I3C_ER_IRQHandler
200a09e2  w      .highcode	00000000 SDIO_IRQHandler
200a0294 g     F .highcode	00000020 .hidden __riscv_restore_10
200a09e2  w      .highcode	00000000 DMA2_Channel8_IRQHandler
200a0334 g     F .highcode	00000002 NMI_Handler
200a39ae g     F .highcode	0000005e .hidden __fixsfsi
200a09e2  w      .highcode	00000000 CAN2_RX1_IRQHandler
200a09e2  w      .highcode	00000000 HSEM_Handler
000450dc g     O .rodata_flash	0000000e OV2640_JPEGRegTbl
200a025c g     F .highcode	00000028 .hidden __riscv_save_11
200a3b1a g     F .highcode	00000006 __errno
000482f8 g     O .rodata_flash	00000020 b_conv
200a135c g     F .highcode	000000fa inference_init
200a09e2  w      .highcode	00000000 USBHS_IRQHandler
200c04cc g     O .bss	00000004 frame_ready
200a09e2  w      .highcode	00000000 LPTIM2_IRQHandler
200a10d6 g     F .highcode	0000000a USART_GetFlagStatus
200a4c5a g     F .highcode	00000028 _fstat_r
200c0518 g     O .bss	00000004 errno
200c04b4 g       .bss	00000000 _sbss
00000800 g       *ABS*	00000000 __stack_size
200a117e g     F .highcode	0000006e USART_Printf_Init
200a09e2  w      .highcode	00000000 USBFSWakeup_IRQHandler
200a22b2 g     F .highcode	0000003c OV2640_JPEG_Mode
200a35fa g     F .highcode	00000378 .hidden __subsf3
200a09e2  w      .highcode	00000000 I2C3_ER_IRQHandler
200a09e2  w      .highcode	00000000 USBFS_IRQHandler
200a1e78 g     F .highcode	0000002e SCCB_Stop
200a2454 g     F .highcode	00000048 sqrtf
200a02a8 g     F .highcode	0000000c .hidden __riscv_restore_2
200c0f48 g     O .bss	00000020 jpeg_dec_ac_bits_arr
200a2076 g     F .highcode	0000016a DVP_GPIO_Init
200a09e2  w      .highcode	00000000 USART8_IRQHandler
200a3bbe g     F .highcode	0000000a _cleanup_r
200c0fc8 g     O .bss	00000020 jpeg_dec_debug_cat
200a09e2  w      .highcode	00000000 I2C2_EV_IRQHandler
200a09e2  w      .highcode	00000000 CAN1_RX0_IRQHandler
000482d8 g     O .rodata_flash	00000020 bn_gamma
200c04b4 g     O .bss	00000004 SystemCoreClock
200a09e2  w      .highcode	00000000 CAN3_SCE_IRQHandler
200a4cb4 g     F .highcode	0000000c _fstat
00040008 g       .init	00000000 _einit
200a1456 g     F .highcode	00000266 inference_run
200c04f8 g     O .bss	00000004 jpeg_dec_num_components
200a329c g     F .highcode	00000098 .hidden __lesf2
00045260 g     O .rodata_flash	00000018 b_dense
200a0254 g     F .highcode	00000030 .hidden __riscv_save_12
200a09e2  w      .highcode	00000000 CAN2_SCE_IRQHandler
200a09e2  w      .highcode	00000000 ADC1_2_IRQHandler
200a0b1c g     F .highcode	000000e0 GPIO_Init
200a09e2  w      .highcode	00000000 Break_Point_Handler
200a09e2  w      .highcode	00000000 IPC_CH0_Handler
200c04d4 g     O .bss	00000004 addr_cnt
200a0294 g     F .highcode	00000020 .hidden __riscv_restore_11
200a1fda g     F .highcode	00000042 SCCB_WR_Reg
200a09e2  w      .highcode	00000000 SPI1_IRQHandler
200a09e2  w      .highcode	00000000 USART5_IRQHandler
200a10ba g     F .highcode	00000014 USART_Cmd
200a2848 g     F .highcode	0000000e finitef
200a4238 g     F .highcode	00000028 _sbrk_r
200a0284 g     F .highcode	0000000c .hidden __riscv_save_1
200a02a8 g     F .highcode	0000000c .hidden __riscv_restore_0
200a09e2  w      .highcode	00000000 SysTick0_Handler
200a09e2  w      .highcode	00000000 EXTI7_0_IRQHandler
200a4c30 g     F .highcode	0000002a _read_r
200a026a g     F .highcode	0000001a .hidden __riscv_save_7
200a09e2  w      .highcode	00000000 CAN2_RX0_IRQHandler
200c04f4 g     O .bss	00000004 jpeg_dec_bitstream
200a09e2  w      .highcode	00000000 TIM8_UP_IRQHandler
200a09e2  w      .highcode	00000000 Ecall_M_Mode_Handler
200a09e2  w      .highcode	00000000 ECDC_IRQHandler
200a09e2  w      .highcode	00000000 SDMMC_IRQHandler
200ff800 g       .stack	00000000 _heap_end
200a4cc0 g     F .highcode	0000000c _isatty
200c050c g     O .bss	00000001 __lock___sinit_recursive_mutex
200a1102 g     F .highcode	0000003e Delay_Us
200c04b0 g     O .data	00000004 _global_impure_ptr
200a029e g     F .highcode	00000016 .hidden __riscv_restore_5
200a09e2  w      .highcode	00000000 USART7_IRQHandler
200a09e2  w      .highcode	00000000 DMA2_Channel2_IRQHandler
200a2856 g     F .highcode	0000039a .hidden __udivdi3
200a09e2  w      .highcode	00000000 DMA1_Channel4_IRQHandler
200c0420 g     O .data	00000004 JPEG_DVPDMAaddr0
200a1222 g     F .highcode	0000002a _sbrk
200c102c g     O .bss	00000022 jpeg_dec_huff_dc_bits
200a09e2  w      .highcode	00000000 USART6_IRQHandler
200a249c g     F .highcode	0000024e __ieee754_expf
200a09e2  w      .highcode	00000000 CAN3_RX0_IRQHandler
200a0ab8 g     F .highcode	0000001c DVP_FIFO_ResetCmd
200a0fb8 g     F .highcode	0000001c RCC_HB2PeriphClockCmd
200a09e2  w      .highcode	00000000 HSADC_IRQHandler
200a029e g     F .highcode	00000016 .hidden __riscv_restore_6
200a09e2  w      .highcode	00000000 USART3_IRQHandler
200a09e2  w      .highcode	00000000 RTC_IRQHandler
200c1068 g       .bss	00000000 _ebss
200a09e2  w      .highcode	00000000 DMA1_Channel7_IRQHandler
200c0fa8 g     O .bss	00000020 jpeg_dec_debug_val
200a09e2  w      .highcode	00000000 CAN1_RX1_IRQHandler
200a10e0 g     F .highcode	00000022 Delay_Init
200a0388 g     F .highcode	000000b8 DVP_IRQHandler
200c0504 g     O .bss	00000001 __lock___malloc_recursive_mutex
200a09e2  w      .highcode	00000000 USBSS_IRQHandler
200a21e0 g     F .highcode	000000d2 OV2640_Init
200a09e2  w      .highcode	00000000 SWPMI_IRQHandler
200a3206 g     F .highcode	00000096 .hidden __gtsf2
200a09e2  w      .highcode	00000000 USBPDWakeUp_IRQHandler
200a09e2  w      .highcode	00000000 EXTI15_8_IRQHandler
200a09e2  w      .highcode	00000000 TIM4_IRQHandler
200a025c g     F .highcode	00000028 .hidden __riscv_save_9
200a0bfc g     F .highcode	0000000a GPIO_WriteBit
200a09e2  w      .highcode	00000000 DMA2_Channel1_IRQHandler
200a09e2  w      .highcode	00000000 SWPMI_WKUP_IRQHandler
00048820 g     O .rodata_flash	00000020 __sf_fake_stderr
200a026a g     F .highcode	0000001a .hidden __riscv_save_4
200c0f68 g     O .bss	00000020 jpeg_dec_dc_bits_arr
200a0a9c g     F .highcode	0000001c DVP_ReceiveCircuitResetCmd
200a09e2  w      .highcode	00000000 I2C1_EV_IRQHandler
200a22ee g     F .highcode	00000022 OV2640_RGB565_Mode
00048298 g     O .rodata_flash	00000020 bn_mean
200a17de g     F .highcode	00000642 jpeg_dec_decode
200a3db4 g     F .highcode	00000002 __retarget_lock_release_recursive
200a09e2  w      .highcode	00000000 USBSSWakeup_IRQHandler
200a09e2  w      .highcode	00000000 USART4_IRQHandler
200a2830 g     F .highcode	0000000c .hidden __math_uflowf
200a0dee g     F .highcode	000001ae RCC_GetClocksFreq
200a09e2  w      .highcode	00000000 DMA1_Channel6_IRQHandler
200a3f3c g     F .highcode	00000042 __sfputs_r
200a09e2  w      .highcode	00000000 DMA2_Channel4_IRQHandler
200a3c0e g     F .highcode	00000006 __sfp_lock_acquire
200a47e0 g     F .highcode	00000018 memchr
200a100c g     F .highcode	000000ae USART_Init
200a4808 g     F .highcode	000000a2 _free_r
200a09e2  w      .highcode	00000000 TIM3_IRQHandler
200a09e2  w      .highcode	00000000 RCC_IRQHandler
200a0b12 g     F .highcode	0000000a DVP_ClearITPendingBit
200a0284 g     F .highcode	0000000c .hidden __riscv_save_3
200a09e2  w      .highcode	00000000 TIM1_TRG_COM_IRQHandler
200a09e2  w      .highcode	00000000 DMA1_Channel1_IRQHandler
00040000 g       .init	00000000 _start
200a09e2  w      .highcode	00000000 DMA2_Channel7_IRQHandler
200a0f9c g     F .highcode	0000001c RCC_HBPeriphClockCmd
200a4ccc g     F .highcode	0000000c _lseek
200a4ce4 g       .dtors	00000000 _highcode_vma_end1
200a3a5a g     F .highcode	000000c0 .hidden __floatsisf
200a09e2  w      .highcode	00000000 QSPI1_IRQHandler
200c0fe8 g     O .bss	00000020 jpeg_dec_raw_dc
200a0000 g       .highcode	00000000 _highcode_vma_start
200a1ea6 g     F .highcode	0000003c SCCB_No_Ack
200a09e2  w      .highcode	00000000 DMA1_Channel8_IRQHandler
200a09e2  w      .highcode	00000000 IPC_CH3_Handler
200a09e2  w      .highcode	00000000 I3C_EV_IRQHandler
200c04d8 g     O .bss	00000004 frame_cnt
200a09e2  w      .highcode	00000000 I3C_WKUP_IRQHandler
200a09e2  w      .highcode	00000000 TIM12_IRQHandler
200a09e2  w      .highcode	00000000 TIM7_IRQHandler
200a44e0 g     F .highcode	00000028 _close_r
200a09e2  w      .highcode	00000000 CAN2_TX_IRQHandler
200c105c g     O .bss	0000000c jpeg_dec_comp_h
200c0300 g       .dalign	00000000 _data_vma
200a09e2  w      .highcode	00000000 TIM5_IRQHandler
200a0fd4 g     F .highcode	0000001c RCC_HB1PeriphClockCmd
200a09e2  w      .highcode	00000000 I2C3_EV_IRQHandler
200a43f0 g     F .highcode	000000f0 __swsetup_r
200a09e2  w      .highcode	00000000 PIOC_IRQHandler
200a3c98 g     F .highcode	000000b0 __sfp
200a09e2  w      .highcode	00000000 TIM9_IRQHandler
200a3c20 g     F .highcode	00000006 __sinit_lock_release
200a09e2  w      .highcode	00000000 LTDC_IRQHandler
200a09e2  w      .highcode	00000000 SAI_IRQHandler
200a025c g     F .highcode	00000028 .hidden __riscv_save_10
200a4260 g     F .highcode	0000002c __sread
200a09e2  w      .highcode	00000000 ETH_WKUP_IRQHandler
200c0428 g     O .data	00000004 jpeg_dec_H_max
200a47f8 g     F .highcode	00000008 __malloc_lock
200a029e g     F .highcode	00000016 .hidden __riscv_restore_4
200a0294 g     F .highcode	00000020 .hidden __riscv_restore_8
200a463a g     F .highcode	0000008e _fflush_r
200c042c g     O .data	00000004 jpeg_dec_buf
200a026a g     F .highcode	0000001a .hidden __riscv_save_6
200a23ae g     F .highcode	00000020 RGB565_Mode_Init
200a09e2  w      .highcode	00000000 SPI2_IRQHandler
00048860 g     O .rodata_flash	00000020 __sf_fake_stdin
200c04bc g     O .bss	00000004 HCLKClock
200a3db2 g     F .highcode	00000002 __retarget_lock_acquire_recursive
200a09e2  w      .highcode	00000000 IPC_CH1_Handler
00048968 g       .highcodelalign1	00000000 _highcode_lma1
200a02b4 g     F .highcode	00000010 memset
200a26ea g     F .highcode	0000010a __ieee754_sqrtf
200a0294 g     F .highcode	00000020 .hidden __riscv_restore_9
200a029e g     F .highcode	00000016 .hidden __riscv_restore_7
200a04dc g     F .highcode	0000039c main
200a09e2  w      .highcode	00000000 LPTIM1_WKUP_IRQHandler
200a3db0 g     F .highcode	00000002 __retarget_lock_init_recursive
200a4ce4 g       .fini	00000000 _highcode_vma_start1
200a329c g     F .highcode	00000098 .hidden __ltsf2
000482b8 g     O .rodata_flash	00000020 bn_beta
200a09e2  w      .highcode	00000000 CAN1_TX_IRQHandler
200a4300 g     F .highcode	00000006 __sclose
200a09e2  w      .highcode	00000000 DMA2_Channel5_IRQHandler
200a3e0a g     F .highcode	0000010c _malloc_r
200c0500 g     O .bss	00000004 jpeg_dec_width
200a09e2  w      .highcode	00000000 DMA1_Channel5_IRQHandler
200a1140 g     F .highcode	0000003e Delay_Ms
200a3334 g     F .highcode	000002c6 .hidden __mulsf3
200c02d8 g       .loadcode	00000000 _loadcode_vma_end
200a09e2  w      .highcode	00000000 QSPI2_IRQHandler
00045278 g     O .rodata_flash	00003000 w_dense
000400e0 g       .highcodelalign	00000000 _highcode_lma
200a12f6 g     F .highcode	00000066 Hardware
200a09e2  w      .highcode	00000000 RNG_IRQHandler
200a09f8 g     F .highcode	0000006e DVP_Init
200c04fc g     O .bss	00000004 jpeg_dec_height
200a3b20 g     F .highcode	00000038 iprintf
00048720 g     O .rodata_flash	00000100 .hidden __clz_tab
200c1008 g     O .bss	00000022 jpeg_dec_huff_ac_bits
00040000 g       .init	00000000 _sinit
200a0a80 g     F .highcode	0000001c DVP_DMACmd
200a3206 g     F .highcode	00000096 .hidden __gesf2
200a43c4 g     F .highcode	0000002c _write_r
200a09e2  w      .highcode	00000000 DMA1_Channel3_IRQHandler
200a09e2  w      .highcode	00000000 ETH_IRQHandler
200a48aa g     F .highcode	0000010a _printf_common
200c0438 g     O .data	00000004 _impure_ptr
200a09e2  w      .highcode	00000000 TIM1_UP_IRQHandler
200a4508 g     F .highcode	00000132 __sflush_r
200a0ad4 g     F .highcode	0000001c DVP_ITConfig
200a0a66 g     F .highcode	0000001a DVP_Cmd
200a1e4c g     F .highcode	0000002c SCCB_Start
200a09e2  w      .highcode	00000000 WWDG_IRQHandler
200a23ce g     F .highcode	00000020 JPEG_Mode_Init
200a09e2  w      .highcode	00000000 USBHSWakeup_IRQHandler
200a09e2  w      .highcode	00000000 Ecall_U_Mode_Handler
200a09e2  w      .highcode	00000000 I2C4_EV_IRQHandler
200a09e2  w      .highcode	00000000 CAN3_TX_IRQHandler
200a09e2  w      .highcode	00000000 DMA2_Channel6_IRQHandler
000450ec g     O .rodata_flash	00000010 OV2640_YUV422RegTbl
200a09e2  w      .highcode	00000000 TIM2_IRQHandler
20100000 g       .stack	00000000 _eusrstack
00048278 g     O .rodata_flash	00000020 bn_var
200a0284 g     F .highcode	0000000c .hidden __riscv_save_2
200a09e2  w      .highcode	00000000 SW_Handler
200c04b8 g     O .bss	00000004 SystemClock
200a09e2  w      .highcode	00000000 TIM1_BRK_IRQHandler
200a46f2 g     F .highcode	00000058 __swhatbuf_r
200a09e2  w      .highcode	00000000 GPHA_IRQHandler
200a10ce g     F .highcode	00000008 USART_SendData
200a026a g     F .highcode	0000001a .hidden __riscv_save_5
200a11ec g     F .highcode	00000036 _write
200c0424 g     O .data	00000004 jpeg_dec_V_max
200c04b4 g       .data	00000000 _edata
200c0200 g       .loadcode	00000000 _loadcode_vma_start
200c1068 g       .bss	00000000 _end
200a3972 g     F .highcode	0000003c .hidden __unordsf2
200a09e2  w      .highcode	00000000 LPTIM2_WKUP_IRQHandler
200a4ce4 g       .highcode	00000000 _highcode_vma_end
200a09e2  w      .highcode	00000000 RTCAlarm_IRQHandler
200a2310 g     F .highcode	0000006c OV2640_OutSize_Set
200a09e2  w      .highcode	00000000 TIM11_IRQHandler
00048968 g       .dlalign	00000000 _data_lma
000450c0 g     O .rodata_flash	0000001c OV2640_RGB565RegTbl
200a09e2  w      .highcode	00000000 USART2_IRQHandler
200a428c g     F .highcode	00000046 __swrite
00040008 g       .loadcodelalign	00000000 _loadcode_lma
200a09e2  w      .highcode	00000000 UHSIF_IRQHandler
200a3f7e g     F .highcode	000002ba _vfiprintf_r
200a3d48 g     F .highcode	00000068 _fwalk_reent
200a09e4 g     F .highcode	00000014 DVP_DeInit
200a0878 g     F .highcode	0000016a SystemAndCoreClockUpdate
200a09e2  w      .highcode	00000000 I2C2_ER_IRQHandler
200a09e2  w      .highcode	00000000 DMA1_Channel2_IRQHandler
200a3c14 g     F .highcode	00000006 __sfp_lock_release
00048840 g     O .rodata_flash	00000020 __sf_fake_stdout
200a0290 g     F .highcode	00000024 .hidden __riscv_restore_12
200a09e2  w      .highcode	00000000 TIM8_BRK_IRQHandler
200a4cd8 g     F .highcode	0000000c _read
00048914  w      .text	00000000 handle_reset
200a09e2  w      .highcode	00000000 CAN1_SCE_IRQHandler
200a3a0c g     F .highcode	0000004e .hidden __fixunssfsi
200a0284 g     F .highcode	0000000c .hidden __riscv_save_0
200a09e2  w      .highcode	00000000 FLASH_IRQHandler
200a23ee g     F .highcode	00000066 expf
200a09e2  w      .highcode	00000000 USART1_IRQHandler
200a474a g     F .highcode	00000096 __smakebuf_r
200a283c g     F .highcode	0000000c .hidden __math_oflowf
200a49b4 g     F .highcode	0000027c _printf_i
200a09e2  w      .highcode	00000000 SPI3_IRQHandler
000450fc g     O .rodata_flash	00000164 OV2640_InitRegTbl
200c0510 g     O .bss	00000004 __malloc_sbrk_start
200c0ec8 g     O .bss	00000080 quant_table
200a1e20 g     F .highcode	0000002c SCCB_GPIO_Init
200a09e2  w      .highcode	00000000 I2C1_ER_IRQHandler
200a09e2  w      .highcode	00000000 FMC_IRQHandler
200a12cc g     F .highcode	0000002a dvp_restart
200a09e2  w      .highcode	00000000 SysTick1_Handler
200a1f6e g     F .highcode	0000006c SCCB_RD_Byte
200c0514 g     O .bss	00000004 __malloc_free_list
200a0af0 g     F .highcode	00000022 DVP_GetITStatus
200a02a8 g     F .highcode	0000000c .hidden __riscv_restore_1
200a09e2  w      .highcode	00000000 LPTIM1_IRQHandler
00048318 g     O .rodata_flash	00000360 w_conv
200a09e2  w      .highcode	00000000 DFSDM1_IRQHandler
200a3f7e g     F .highcode	000002ba _vfprintf_r
200a09e2  w      .highcode	00000000 I2C4_ER_IRQHandler
200a09e2  w      .highcode	00000000 SERDES_IRQHandler
200a2bf0 g     F .highcode	00000358 .hidden __addsf3
200a09e2  w      .highcode	00000000 USBSS_LINK_IRQHandler
200a0ff0 g     F .highcode	0000001c RCC_HBPeriphResetCmd
200a124c g     F .highcode	00000080 DVP_Function_Init
200c0508 g     O .bss	00000001 __lock___sfp_recursive_mutex
200a17b8 g     F .highcode	00000026 jpeg_dec_init
200a4ca8 g     F .highcode	0000000c _close
200c1050 g     O .bss	0000000c jpeg_dec_comp_v
200a3c1a g     F .highcode	00000006 __sinit_lock_acquire
200a09e2  w      .highcode	00000000 DMA2_Channel3_IRQHandler
200c0f88 g     O .bss	00000020 jpeg_dec_block_bits



Disassembly of section .init:

00040000 <_sinit>:
   40000:	1150806f          	j	48914 <handle_reset>
   40004:	0000                	unimp
	...

Disassembly of section .loadcode:

200c0200 <_loadcode_vma_start>:
200c0200:	dff80517          	auipc	a0,0xdff80
200c0204:	ee050513          	addi	a0,a0,-288 # 400e0 <_highcode_lma>
200c0208:	fffe0597          	auipc	a1,0xfffe0
200c020c:	df858593          	addi	a1,a1,-520 # 200a0000 <_highcode_vma_start>
200c0210:	fffe5617          	auipc	a2,0xfffe5
200c0214:	ad460613          	addi	a2,a2,-1324 # 200a4ce4 <_highcode_vma_end>
200c0218:	00c5fa63          	bgeu	a1,a2,200c022c <_loadcode_vma_start+0x2c>
200c021c:	00052283          	lw	t0,0(a0)
200c0220:	0055a023          	sw	t0,0(a1)
200c0224:	0511                	addi	a0,a0,4
200c0226:	0591                	addi	a1,a1,4
200c0228:	fec5eae3          	bltu	a1,a2,200c021c <_loadcode_vma_start+0x1c>
200c022c:	dff88517          	auipc	a0,0xdff88
200c0230:	73c50513          	addi	a0,a0,1852 # 48968 <_data_lma>
200c0234:	fffe5597          	auipc	a1,0xfffe5
200c0238:	ab058593          	addi	a1,a1,-1360 # 200a4ce4 <_highcode_vma_end>
200c023c:	fffe5617          	auipc	a2,0xfffe5
200c0240:	aa860613          	addi	a2,a2,-1368 # 200a4ce4 <_highcode_vma_end>
200c0244:	00c5fa63          	bgeu	a1,a2,200c0258 <_loadcode_vma_start+0x58>
200c0248:	00052283          	lw	t0,0(a0)
200c024c:	0055a023          	sw	t0,0(a1)
200c0250:	0511                	addi	a0,a0,4
200c0252:	0591                	addi	a1,a1,4
200c0254:	fec5eae3          	bltu	a1,a2,200c0248 <_loadcode_vma_start+0x48>
200c0258:	dff88517          	auipc	a0,0xdff88
200c025c:	71050513          	addi	a0,a0,1808 # 48968 <_data_lma>
200c0260:	00000597          	auipc	a1,0x0
200c0264:	0a058593          	addi	a1,a1,160 # 200c0300 <SERDESPLLMULTB>
200c0268:	8d418613          	addi	a2,gp,-1836 # 200c04b4 <SystemCoreClock>
200c026c:	00c5fa63          	bgeu	a1,a2,200c0280 <_loadcode_vma_start+0x80>
200c0270:	00052283          	lw	t0,0(a0)
200c0274:	0055a023          	sw	t0,0(a1)
200c0278:	0511                	addi	a0,a0,4
200c027a:	0591                	addi	a1,a1,4
200c027c:	fec5eae3          	bltu	a1,a2,200c0270 <_loadcode_vma_start+0x70>
200c0280:	8d418513          	addi	a0,gp,-1836 # 200c04b4 <SystemCoreClock>
200c0284:	48818593          	addi	a1,gp,1160 # 200c1068 <_ebss>
200c0288:	00b57763          	bgeu	a0,a1,200c0296 <_loadcode_vma_start+0x96>
200c028c:	00052023          	sw	zero,0(a0)
200c0290:	0511                	addi	a0,a0,4
200c0292:	feb56de3          	bltu	a0,a1,200c028c <_loadcode_vma_start+0x8c>
200c0296:	1237b2b7          	lui	t0,0x1237b
200c029a:	3e028293          	addi	t0,t0,992 # 1237b3e0 <_data_lma+0x12332a78>
200c029e:	bc029073          	csrw	0xbc0,t0
200c02a2:	429d                	li	t0,7
200c02a4:	bc129073          	csrw	0xbc1,t0
200c02a8:	42bd                	li	t0,15
200c02aa:	80429073          	csrw	0x804,t0
200c02ae:	6299                	lui	t0,0x6
200c02b0:	08828293          	addi	t0,t0,136 # 6088 <__stack_size+0x5888>
200c02b4:	30029073          	csrw	mstatus,t0
200c02b8:	fffe0297          	auipc	t0,0xfffe0
200c02bc:	d4828293          	addi	t0,t0,-696 # 200a0000 <_highcode_vma_start>
200c02c0:	0032e293          	ori	t0,t0,3
200c02c4:	30529073          	csrw	mtvec,t0
200c02c8:	fffe0297          	auipc	t0,0xfffe0
200c02cc:	21428293          	addi	t0,t0,532 # 200a04dc <main>
200c02d0:	34129073          	csrw	mepc,t0
200c02d4:	30200073          	mret

Disassembly of section .highcode:

200a0000 <_highcode_vma_start>:
200a0000:	00040000          	.word	0x00040000
200a0004:	00000000          	.word	0x00000000
200a0008:	200a0334          	.word	0x200a0334
200a000c:	200a0336          	.word	0x200a0336
200a0010:	00000000          	.word	0x00000000
200a0014:	200a09e2          	.word	0x200a09e2
	...
200a0020:	200a09e2          	.word	0x200a09e2
200a0024:	200a09e2          	.word	0x200a09e2
	...
200a0030:	200a09e2          	.word	0x200a09e2
200a0034:	200a09e2          	.word	0x200a09e2
200a0038:	200a09e2          	.word	0x200a09e2
200a003c:	00000000          	.word	0x00000000
200a0040:	200a09e2          	.word	0x200a09e2
200a0044:	200a09e2          	.word	0x200a09e2
200a0048:	200a09e2          	.word	0x200a09e2
200a004c:	200a09e2          	.word	0x200a09e2
	...
200a0070:	200a09e2          	.word	0x200a09e2
	...
200a0080:	200a09e2          	.word	0x200a09e2
200a0084:	200a09e2          	.word	0x200a09e2
200a0088:	200a09e2          	.word	0x200a09e2
200a008c:	200a09e2          	.word	0x200a09e2
200a0090:	200a09e2          	.word	0x200a09e2
200a0094:	200a09e2          	.word	0x200a09e2
200a0098:	200a09e2          	.word	0x200a09e2
200a009c:	200a09e2          	.word	0x200a09e2
200a00a0:	200a09e2          	.word	0x200a09e2
200a00a4:	200a09e2          	.word	0x200a09e2
200a00a8:	200a09e2          	.word	0x200a09e2
200a00ac:	200a09e2          	.word	0x200a09e2
200a00b0:	200a09e2          	.word	0x200a09e2
200a00b4:	200a09e2          	.word	0x200a09e2
200a00b8:	200a09e2          	.word	0x200a09e2
200a00bc:	200a09e2          	.word	0x200a09e2
200a00c0:	200a09e2          	.word	0x200a09e2
200a00c4:	200a09e2          	.word	0x200a09e2
200a00c8:	200a09e2          	.word	0x200a09e2
200a00cc:	200a09e2          	.word	0x200a09e2
200a00d0:	200a09e2          	.word	0x200a09e2
200a00d4:	200a09e2          	.word	0x200a09e2
200a00d8:	200a09e2          	.word	0x200a09e2
200a00dc:	200a09e2          	.word	0x200a09e2
200a00e0:	200a09e2          	.word	0x200a09e2
200a00e4:	200a09e2          	.word	0x200a09e2
200a00e8:	200a09e2          	.word	0x200a09e2
200a00ec:	200a09e2          	.word	0x200a09e2
200a00f0:	200a09e2          	.word	0x200a09e2
200a00f4:	200a09e2          	.word	0x200a09e2
200a00f8:	200a09e2          	.word	0x200a09e2
200a00fc:	200a09e2          	.word	0x200a09e2
200a0100:	200a09e2          	.word	0x200a09e2
200a0104:	200a09e2          	.word	0x200a09e2
200a0108:	200a09e2          	.word	0x200a09e2
200a010c:	200a09e2          	.word	0x200a09e2
200a0110:	200a09e2          	.word	0x200a09e2
200a0114:	200a09e2          	.word	0x200a09e2
200a0118:	200a09e2          	.word	0x200a09e2
200a011c:	200a09e2          	.word	0x200a09e2
200a0120:	200a09e2          	.word	0x200a09e2
200a0124:	200a09e2          	.word	0x200a09e2
200a0128:	200a09e2          	.word	0x200a09e2
200a012c:	200a09e2          	.word	0x200a09e2
200a0130:	200a09e2          	.word	0x200a09e2
200a0134:	200a09e2          	.word	0x200a09e2
200a0138:	200a09e2          	.word	0x200a09e2
200a013c:	200a09e2          	.word	0x200a09e2
200a0140:	200a09e2          	.word	0x200a09e2
200a0144:	200a09e2          	.word	0x200a09e2
200a0148:	200a09e2          	.word	0x200a09e2
200a014c:	200a09e2          	.word	0x200a09e2
200a0150:	200a09e2          	.word	0x200a09e2
200a0154:	200a09e2          	.word	0x200a09e2
200a0158:	200a09e2          	.word	0x200a09e2
200a015c:	200a09e2          	.word	0x200a09e2
200a0160:	200a09e2          	.word	0x200a09e2
200a0164:	200a09e2          	.word	0x200a09e2
200a0168:	200a09e2          	.word	0x200a09e2
200a016c:	200a09e2          	.word	0x200a09e2
200a0170:	200a09e2          	.word	0x200a09e2
200a0174:	200a09e2          	.word	0x200a09e2
200a0178:	200a09e2          	.word	0x200a09e2
200a017c:	200a09e2          	.word	0x200a09e2
200a0180:	200a09e2          	.word	0x200a09e2
200a0184:	200a09e2          	.word	0x200a09e2
200a0188:	200a09e2          	.word	0x200a09e2
200a018c:	200a09e2          	.word	0x200a09e2
200a0190:	200a09e2          	.word	0x200a09e2
200a0194:	200a09e2          	.word	0x200a09e2
200a0198:	200a09e2          	.word	0x200a09e2
200a019c:	200a09e2          	.word	0x200a09e2
200a01a0:	200a09e2          	.word	0x200a09e2
200a01a4:	200a09e2          	.word	0x200a09e2
200a01a8:	200a09e2          	.word	0x200a09e2
200a01ac:	200a09e2          	.word	0x200a09e2
200a01b0:	200a09e2          	.word	0x200a09e2
200a01b4:	200a09e2          	.word	0x200a09e2
200a01b8:	200a09e2          	.word	0x200a09e2
200a01bc:	200a09e2          	.word	0x200a09e2
200a01c0:	200a09e2          	.word	0x200a09e2
200a01c4:	200a09e2          	.word	0x200a09e2
200a01c8:	200a09e2          	.word	0x200a09e2
200a01cc:	200a09e2          	.word	0x200a09e2
200a01d0:	200a09e2          	.word	0x200a09e2
200a01d4:	200a09e2          	.word	0x200a09e2
200a01d8:	200a09e2          	.word	0x200a09e2
200a01dc:	200a09e2          	.word	0x200a09e2
200a01e0:	200a0388          	.word	0x200a0388
200a01e4:	200a09e2          	.word	0x200a09e2
200a01e8:	200a09e2          	.word	0x200a09e2
200a01ec:	200a09e2          	.word	0x200a09e2
200a01f0:	200a09e2          	.word	0x200a09e2
200a01f4:	200a09e2          	.word	0x200a09e2
200a01f8:	00000000          	.word	0x00000000
200a01fc:	200a09e2          	.word	0x200a09e2
200a0200:	200a09e2          	.word	0x200a09e2
	...
200a020c:	200a09e2          	.word	0x200a09e2
	...
200a0218:	200a09e2          	.word	0x200a09e2
200a021c:	200a09e2          	.word	0x200a09e2
200a0220:	200a09e2          	.word	0x200a09e2
200a0224:	200a09e2          	.word	0x200a09e2
200a0228:	200a09e2          	.word	0x200a09e2
200a022c:	200a09e2          	.word	0x200a09e2
200a0230:	200a09e2          	.word	0x200a09e2
200a0234:	200a09e2          	.word	0x200a09e2
200a0238:	200a09e2          	.word	0x200a09e2
200a023c:	200a09e2          	.word	0x200a09e2
200a0240:	200a09e2          	.word	0x200a09e2
200a0244:	200a09e2          	.word	0x200a09e2
200a0248:	200a09e2          	.word	0x200a09e2
200a024c:	200a09e2          	.word	0x200a09e2
200a0250:	200a09e2          	.word	0x200a09e2

200a0254 <__riscv_save_12>:
200a0254:	7139                	addi	sp,sp,-64
200a0256:	4301                	li	t1,0
200a0258:	c66e                	sw	s11,12(sp)
200a025a:	a019                	j	200a0260 <__riscv_save_10+0x4>

200a025c <__riscv_save_10>:
200a025c:	7139                	addi	sp,sp,-64
200a025e:	5341                	li	t1,-16
200a0260:	c86a                	sw	s10,16(sp)
200a0262:	ca66                	sw	s9,20(sp)
200a0264:	cc62                	sw	s8,24(sp)
200a0266:	ce5e                	sw	s7,28(sp)
200a0268:	a019                	j	200a026e <__riscv_save_4+0x4>

200a026a <__riscv_save_4>:
200a026a:	7139                	addi	sp,sp,-64
200a026c:	5301                	li	t1,-32
200a026e:	d05a                	sw	s6,32(sp)
200a0270:	d256                	sw	s5,36(sp)
200a0272:	d452                	sw	s4,40(sp)
200a0274:	d64e                	sw	s3,44(sp)
200a0276:	d84a                	sw	s2,48(sp)
200a0278:	da26                	sw	s1,52(sp)
200a027a:	dc22                	sw	s0,56(sp)
200a027c:	de06                	sw	ra,60(sp)
200a027e:	40610133          	sub	sp,sp,t1
200a0282:	8282                	jr	t0

200a0284 <__riscv_save_0>:
200a0284:	1141                	addi	sp,sp,-16
200a0286:	c04a                	sw	s2,0(sp)
200a0288:	c226                	sw	s1,4(sp)
200a028a:	c422                	sw	s0,8(sp)
200a028c:	c606                	sw	ra,12(sp)
200a028e:	8282                	jr	t0

200a0290 <__riscv_restore_12>:
200a0290:	4db2                	lw	s11,12(sp)
200a0292:	0141                	addi	sp,sp,16

200a0294 <__riscv_restore_10>:
200a0294:	4d02                	lw	s10,0(sp)
200a0296:	4c92                	lw	s9,4(sp)
200a0298:	4c22                	lw	s8,8(sp)
200a029a:	4bb2                	lw	s7,12(sp)
200a029c:	0141                	addi	sp,sp,16

200a029e <__riscv_restore_4>:
200a029e:	4b02                	lw	s6,0(sp)
200a02a0:	4a92                	lw	s5,4(sp)
200a02a2:	4a22                	lw	s4,8(sp)
200a02a4:	49b2                	lw	s3,12(sp)
200a02a6:	0141                	addi	sp,sp,16

200a02a8 <__riscv_restore_0>:
200a02a8:	4902                	lw	s2,0(sp)
200a02aa:	4492                	lw	s1,4(sp)
200a02ac:	4422                	lw	s0,8(sp)
200a02ae:	40b2                	lw	ra,12(sp)
200a02b0:	0141                	addi	sp,sp,16
200a02b2:	8082                	ret

200a02b4 <memset>:
200a02b4:	832a                	mv	t1,a0
200a02b6:	c611                	beqz	a2,200a02c2 <memset+0xe>
200a02b8:	00b30023          	sb	a1,0(t1)
200a02bc:	167d                	addi	a2,a2,-1
200a02be:	0305                	addi	t1,t1,1
200a02c0:	fe65                	bnez	a2,200a02b8 <memset+0x4>
200a02c2:	8082                	ret

200a02c4 <dbg_putc>:
200a02c4:	fc1ff2ef          	jal	t0,200a0284 <__riscv_save_0>
200a02c8:	400144b7          	lui	s1,0x40014
200a02cc:	842a                	mv	s0,a0
200a02ce:	80048913          	addi	s2,s1,-2048 # 40013800 <_eusrstack+0x1ff13800>
200a02d2:	04000593          	li	a1,64
200a02d6:	854a                	mv	a0,s2
200a02d8:	5ff000ef          	jal	ra,200a10d6 <USART_GetFlagStatus>
200a02dc:	d97d                	beqz	a0,200a02d2 <dbg_putc+0xe>
200a02de:	80048513          	addi	a0,s1,-2048
200a02e2:	080445b3          	zext.h	a1,s0
200a02e6:	5e9000ef          	jal	ra,200a10ce <USART_SendData>
200a02ea:	bf7d                	j	200a02a8 <__riscv_restore_0>

200a02ec <dbg_puts>:
200a02ec:	f99ff2ef          	jal	t0,200a0284 <__riscv_save_0>
200a02f0:	842a                	mv	s0,a0
200a02f2:	00040503          	lb	a0,0(s0)
200a02f6:	e111                	bnez	a0,200a02fa <dbg_puts+0xe>
200a02f8:	bf45                	j	200a02a8 <__riscv_restore_0>
200a02fa:	0405                	addi	s0,s0,1
200a02fc:	37e1                	jal	200a02c4 <dbg_putc>
200a02fe:	bfd5                	j	200a02f2 <dbg_puts+0x6>

200a0300 <dbg_hex>:
200a0300:	f6bff2ef          	jal	t0,200a026a <__riscv_save_4>
200a0304:	84aa                	mv	s1,a0
200a0306:	00045537          	lui	a0,0x45
200a030a:	dc450513          	addi	a0,a0,-572 # 44dc4 <_highcode_lma+0x4ce4>
200a030e:	3ff9                	jal	200a02ec <dbg_puts>
200a0310:	4471                	li	s0,28
200a0312:	49a5                	li	s3,9
200a0314:	5971                	li	s2,-4
200a0316:	0084d7b3          	srl	a5,s1,s0
200a031a:	00f7f713          	andi	a4,a5,15
200a031e:	03770513          	addi	a0,a4,55
200a0322:	00e9e463          	bltu	s3,a4,200a032a <dbg_hex+0x2a>
200a0326:	03070513          	addi	a0,a4,48
200a032a:	1471                	addi	s0,s0,-4
200a032c:	3f61                	jal	200a02c4 <dbg_putc>
200a032e:	ff2414e3          	bne	s0,s2,200a0316 <dbg_hex+0x16>
200a0332:	b7b5                	j	200a029e <__riscv_restore_4>

200a0334 <NMI_Handler>:
200a0334:	a001                	j	200a0334 <NMI_Handler>

200a0336 <HardFault_Handler>:
200a0336:	1141                	addi	sp,sp,-16
200a0338:	c622                	sw	s0,12(sp)
200a033a:	c426                	sw	s1,8(sp)
200a033c:	c24a                	sw	s2,4(sp)
200a033e:	34202973          	csrr	s2,mcause
200a0342:	341024f3          	csrr	s1,mepc
200a0346:	34302473          	csrr	s0,mtval
200a034a:	00045537          	lui	a0,0x45
200a034e:	dc850513          	addi	a0,a0,-568 # 44dc8 <_highcode_lma+0x4ce8>
200a0352:	3f69                	jal	200a02ec <dbg_puts>
200a0354:	854a                	mv	a0,s2
200a0356:	376d                	jal	200a0300 <dbg_hex>
200a0358:	00045537          	lui	a0,0x45
200a035c:	ddc50513          	addi	a0,a0,-548 # 44ddc <_highcode_lma+0x4cfc>
200a0360:	3771                	jal	200a02ec <dbg_puts>
200a0362:	8526                	mv	a0,s1
200a0364:	3f71                	jal	200a0300 <dbg_hex>
200a0366:	00045537          	lui	a0,0x45
200a036a:	de450513          	addi	a0,a0,-540 # 44de4 <_highcode_lma+0x4d04>
200a036e:	3fbd                	jal	200a02ec <dbg_puts>
200a0370:	8522                	mv	a0,s0
200a0372:	3779                	jal	200a0300 <dbg_hex>
200a0374:	00045537          	lui	a0,0x45
200a0378:	0b050513          	addi	a0,a0,176 # 450b0 <zigzag+0x48>
200a037c:	3f85                	jal	200a02ec <dbg_puts>
200a037e:	06400513          	li	a0,100
200a0382:	5bf000ef          	jal	ra,200a1140 <Delay_Ms>
200a0386:	a001                	j	200a0386 <HardFault_Handler+0x50>

200a0388 <DVP_IRQHandler>:
200a0388:	4509                	li	a0,2
200a038a:	766000ef          	jal	ra,200a0af0 <DVP_GetITStatus>
200a038e:	c915                	beqz	a0,200a03c2 <DVP_IRQHandler+0x3a>
200a0390:	4509                	li	a0,2
200a0392:	780000ef          	jal	ra,200a0b12 <DVP_ClearITPendingBit>
200a0396:	8f01a783          	lw	a5,-1808(gp) # 200c04d0 <href_cnt>
200a039a:	0785                	addi	a5,a5,1
200a039c:	8ef1a823          	sw	a5,-1808(gp) # 200c04d0 <href_cnt>
200a03a0:	8f41a703          	lw	a4,-1804(gp) # 200c04d4 <addr_cnt>
200a03a4:	8b05                	andi	a4,a4,1
200a03a6:	cf3d                	beqz	a4,200a0424 <DVP_IRQHandler+0x9c>
200a03a8:	8f41a703          	lw	a4,-1804(gp) # 200c04d4 <addr_cnt>
200a03ac:	0705                	addi	a4,a4,1
200a03ae:	8ee1aa23          	sw	a4,-1804(gp) # 200c04d4 <addr_cnt>
200a03b2:	400267b7          	lui	a5,0x40026
200a03b6:	80078793          	addi	a5,a5,-2048 # 40025800 <_eusrstack+0x1ff25800>
200a03ba:	47d8                	lw	a4,12(a5)
200a03bc:	28070713          	addi	a4,a4,640
200a03c0:	c7d8                	sw	a4,12(a5)
200a03c2:	4511                	li	a0,4
200a03c4:	72c000ef          	jal	ra,200a0af0 <DVP_GetITStatus>
200a03c8:	c115                	beqz	a0,200a03ec <DVP_IRQHandler+0x64>
200a03ca:	4511                	li	a0,4
200a03cc:	746000ef          	jal	ra,200a0b12 <DVP_ClearITPendingBit>
200a03d0:	4501                	li	a0,0
200a03d2:	694000ef          	jal	ra,200a0a66 <DVP_Cmd>
200a03d6:	8f01a783          	lw	a5,-1808(gp) # 200c04d0 <href_cnt>
200a03da:	14000713          	li	a4,320
200a03de:	02e787b3          	mul	a5,a5,a4
200a03e2:	8ef1a423          	sw	a5,-1816(gp) # 200c04c8 <jpeg_size>
200a03e6:	4705                	li	a4,1
200a03e8:	8ee1a623          	sw	a4,-1812(gp) # 200c04cc <frame_ready>
200a03ec:	4505                	li	a0,1
200a03ee:	702000ef          	jal	ra,200a0af0 <DVP_GetITStatus>
200a03f2:	c909                	beqz	a0,200a0404 <DVP_IRQHandler+0x7c>
200a03f4:	4505                	li	a0,1
200a03f6:	71c000ef          	jal	ra,200a0b12 <DVP_ClearITPendingBit>
200a03fa:	8f81a783          	lw	a5,-1800(gp) # 200c04d8 <frame_cnt>
200a03fe:	0785                	addi	a5,a5,1
200a0400:	8ef1ac23          	sw	a5,-1800(gp) # 200c04d8 <frame_cnt>
200a0404:	4541                	li	a0,16
200a0406:	6ea000ef          	jal	ra,200a0af0 <DVP_GetITStatus>
200a040a:	c501                	beqz	a0,200a0412 <DVP_IRQHandler+0x8a>
200a040c:	4541                	li	a0,16
200a040e:	704000ef          	jal	ra,200a0b12 <DVP_ClearITPendingBit>
200a0412:	4521                	li	a0,8
200a0414:	6dc000ef          	jal	ra,200a0af0 <DVP_GetITStatus>
200a0418:	c501                	beqz	a0,200a0420 <DVP_IRQHandler+0x98>
200a041a:	4521                	li	a0,8
200a041c:	6f6000ef          	jal	ra,200a0b12 <DVP_ClearITPendingBit>
200a0420:	30200073          	mret
200a0424:	8f41a703          	lw	a4,-1804(gp) # 200c04d4 <addr_cnt>
200a0428:	0705                	addi	a4,a4,1
200a042a:	8ee1aa23          	sw	a4,-1804(gp) # 200c04d4 <addr_cnt>
200a042e:	400267b7          	lui	a5,0x40026
200a0432:	80078793          	addi	a5,a5,-2048 # 40025800 <_eusrstack+0x1ff25800>
200a0436:	4798                	lw	a4,8(a5)
200a0438:	28070713          	addi	a4,a4,640
200a043c:	c798                	sw	a4,8(a5)
200a043e:	b751                	j	200a03c2 <DVP_IRQHandler+0x3a>

200a0440 <send_byte>:
200a0440:	e45ff2ef          	jal	t0,200a0284 <__riscv_save_0>
200a0444:	400144b7          	lui	s1,0x40014
200a0448:	842a                	mv	s0,a0
200a044a:	80048913          	addi	s2,s1,-2048 # 40013800 <_eusrstack+0x1ff13800>
200a044e:	04000593          	li	a1,64
200a0452:	854a                	mv	a0,s2
200a0454:	483000ef          	jal	ra,200a10d6 <USART_GetFlagStatus>
200a0458:	d97d                	beqz	a0,200a044e <send_byte+0xe>
200a045a:	85a2                	mv	a1,s0
200a045c:	80048513          	addi	a0,s1,-2048
200a0460:	46f000ef          	jal	ra,200a10ce <USART_SendData>
200a0464:	b591                	j	200a02a8 <__riscv_restore_0>

200a0466 <send_str>:
200a0466:	e1fff2ef          	jal	t0,200a0284 <__riscv_save_0>
200a046a:	842a                	mv	s0,a0
200a046c:	00040503          	lb	a0,0(s0)
200a0470:	e111                	bnez	a0,200a0474 <send_str+0xe>
200a0472:	bd1d                	j	200a02a8 <__riscv_restore_0>
200a0474:	0ff57513          	zext.b	a0,a0
200a0478:	0405                	addi	s0,s0,1
200a047a:	37d9                	jal	200a0440 <send_byte>
200a047c:	bfc5                	j	200a046c <send_str+0x6>

200a047e <send_u32>:
200a047e:	e07ff2ef          	jal	t0,200a0284 <__riscv_save_0>
200a0482:	1141                	addi	sp,sp,-16
200a0484:	e511                	bnez	a0,200a0490 <send_u32+0x12>
200a0486:	03000513          	li	a0,48
200a048a:	3f5d                	jal	200a0440 <send_byte>
200a048c:	0141                	addi	sp,sp,16
200a048e:	bd29                	j	200a02a8 <__riscv_restore_0>
200a0490:	005c                	addi	a5,sp,4
200a0492:	4401                	li	s0,0
200a0494:	84be                	mv	s1,a5
200a0496:	46a9                	li	a3,10
200a0498:	4625                	li	a2,9
200a049a:	02d57733          	remu	a4,a0,a3
200a049e:	0405                	addi	s0,s0,1
200a04a0:	0785                	addi	a5,a5,1
200a04a2:	03070713          	addi	a4,a4,48
200a04a6:	fee78fa3          	sb	a4,-1(a5)
200a04aa:	872a                	mv	a4,a0
200a04ac:	02d55533          	divu	a0,a0,a3
200a04b0:	fee665e3          	bltu	a2,a4,200a049a <send_u32+0x1c>
200a04b4:	147d                	addi	s0,s0,-1
200a04b6:	008487b3          	add	a5,s1,s0
200a04ba:	2388                	lbu	a0,0(a5)
200a04bc:	3751                	jal	200a0440 <send_byte>
200a04be:	f87d                	bnez	s0,200a04b4 <send_u32+0x36>
200a04c0:	b7f1                	j	200a048c <send_u32+0xe>

200a04c2 <send_i32>:
200a04c2:	dc3ff2ef          	jal	t0,200a0284 <__riscv_save_0>
200a04c6:	842a                	mv	s0,a0
200a04c8:	00055763          	bgez	a0,200a04d6 <send_i32+0x14>
200a04cc:	02d00513          	li	a0,45
200a04d0:	3f85                	jal	200a0440 <send_byte>
200a04d2:	40800433          	neg	s0,s0
200a04d6:	8522                	mv	a0,s0
200a04d8:	375d                	jal	200a047e <send_u32>
200a04da:	b3f9                	j	200a02a8 <__riscv_restore_0>

200a04dc <main>:
200a04dc:	d79ff2ef          	jal	t0,200a0254 <__riscv_save_12>
200a04e0:	7179                	addi	sp,sp,-48
200a04e2:	4585                	li	a1,1
200a04e4:	4521                	li	a0,8
200a04e6:	2d3000ef          	jal	ra,200a0fb8 <RCC_HB2PeriphClockCmd>
200a04ea:	400114b7          	lui	s1,0x40011
200a04ee:	47c1                	li	a5,16
200a04f0:	4709                	li	a4,2
200a04f2:	c0048513          	addi	a0,s1,-1024 # 40010c00 <_eusrstack+0x1ff10c00>
200a04f6:	104c                	addi	a1,sp,36
200a04f8:	d23e                	sw	a5,36(sp)
200a04fa:	d43a                	sw	a4,40(sp)
200a04fc:	d63e                	sw	a5,44(sp)
200a04fe:	61e000ef          	jal	ra,200a0b1c <GPIO_Init>
200a0502:	2e9d                	jal	200a0878 <SystemAndCoreClockUpdate>
200a0504:	3dd000ef          	jal	ra,200a10e0 <Delay_Init>
200a0508:	00071537          	lui	a0,0x71
200a050c:	80050513          	addi	a0,a0,-2048 # 70800 <_data_lma+0x27e98>
200a0510:	46f000ef          	jal	ra,200a117e <USART_Printf_Init>
200a0514:	547d                	li	s0,-1
200a0516:	c0048493          	addi	s1,s1,-1024
200a051a:	5965                	li	s2,-7
200a051c:	00147613          	andi	a2,s0,1
200a0520:	45c1                	li	a1,16
200a0522:	8526                	mv	a0,s1
200a0524:	6d8000ef          	jal	ra,200a0bfc <GPIO_WriteBit>
200a0528:	0c800513          	li	a0,200
200a052c:	147d                	addi	s0,s0,-1
200a052e:	413000ef          	jal	ra,200a1140 <Delay_Ms>
200a0532:	ff2415e3          	bne	s0,s2,200a051c <main+0x40>
200a0536:	00045537          	lui	a0,0x45
200a053a:	dec50513          	addi	a0,a0,-532 # 44dec <_highcode_lma+0x4d0c>
200a053e:	3725                	jal	200a0466 <send_str>
200a0540:	8d41a503          	lw	a0,-1836(gp) # 200c04b4 <SystemCoreClock>
200a0544:	00045437          	lui	s0,0x45
200a0548:	4b81                	li	s7,0
200a054a:	3f15                	jal	200a047e <send_u32>
200a054c:	0b040513          	addi	a0,s0,176 # 450b0 <zigzag+0x48>
200a0550:	3f19                	jal	200a0466 <send_str>
200a0552:	60b000ef          	jal	ra,200a135c <inference_init>
200a0556:	00045537          	lui	a0,0x45
200a055a:	e0050513          	addi	a0,a0,-512 # 44e00 <_highcode_lma+0x4d20>
200a055e:	3721                	jal	200a0466 <send_str>
200a0560:	258010ef          	jal	ra,200a17b8 <jpeg_dec_init>
200a0564:	00045537          	lui	a0,0x45
200a0568:	e1850513          	addi	a0,a0,-488 # 44e18 <_highcode_lma+0x4d38>
200a056c:	3ded                	jal	200a0466 <send_str>
200a056e:	1f400513          	li	a0,500
200a0572:	3cf000ef          	jal	ra,200a1140 <Delay_Ms>
200a0576:	581000ef          	jal	ra,200a12f6 <Hardware>
200a057a:	00045537          	lui	a0,0x45
200a057e:	e3450513          	addi	a0,a0,-460 # 44e34 <_highcode_lma+0x4d54>
200a0582:	35d5                	jal	200a0466 <send_str>
200a0584:	00045537          	lui	a0,0x45
200a0588:	e4c50513          	addi	a0,a0,-436 # 44e4c <_highcode_lma+0x4d6c>
200a058c:	3de9                	jal	200a0466 <send_str>
200a058e:	8601a783          	lw	a5,-1952(gp) # 200c0440 <_impure_ptr+0x8>
200a0592:	00045cb7          	lui	s9,0x45
200a0596:	c63e                	sw	a5,12(sp)
200a0598:	8641a783          	lw	a5,-1948(gp) # 200c0444 <_impure_ptr+0xc>
200a059c:	c83e                	sw	a5,16(sp)
200a059e:	8ec1a783          	lw	a5,-1812(gp) # 200c04cc <frame_ready>
200a05a2:	dff5                	beqz	a5,200a059e <main+0xc2>
200a05a4:	e000f937          	lui	s2,0xe000f
200a05a8:	08892a03          	lw	s4,136(s2) # e000f088 <_eusrstack+0xbff0f088>
200a05ac:	8e81a783          	lw	a5,-1816(gp) # 200c04c8 <jpeg_size>
200a05b0:	20160537          	lui	a0,0x20160
200a05b4:	85be                	mv	a1,a5
200a05b6:	c43e                	sw	a5,8(sp)
200a05b8:	226010ef          	jal	ra,200a17de <jpeg_dec_decode>
200a05bc:	08892783          	lw	a5,136(s2)
200a05c0:	84aa                	mv	s1,a0
200a05c2:	2947e763          	bltu	a5,s4,200a0850 <main+0x374>
200a05c6:	00045537          	lui	a0,0x45
200a05ca:	e6450513          	addi	a0,a0,-412 # 44e64 <_highcode_lma+0x4d84>
200a05ce:	41478a33          	sub	s4,a5,s4
200a05d2:	3d51                	jal	200a0466 <send_str>
200a05d4:	00045537          	lui	a0,0x45
200a05d8:	e7450513          	addi	a0,a0,-396 # 44e74 <_highcode_lma+0x4d94>
200a05dc:	3569                	jal	200a0466 <send_str>
200a05de:	855e                	mv	a0,s7
200a05e0:	3d79                	jal	200a047e <send_u32>
200a05e2:	0b040513          	addi	a0,s0,176
200a05e6:	3541                	jal	200a0466 <send_str>
200a05e8:	00045537          	lui	a0,0x45
200a05ec:	e8050513          	addi	a0,a0,-384 # 44e80 <_highcode_lma+0x4da0>
200a05f0:	3d9d                	jal	200a0466 <send_str>
200a05f2:	4522                	lw	a0,8(sp)
200a05f4:	3569                	jal	200a047e <send_u32>
200a05f6:	0b040513          	addi	a0,s0,176
200a05fa:	35b5                	jal	200a0466 <send_str>
200a05fc:	26049463          	bnez	s1,200a0864 <main+0x388>
200a0600:	9201a903          	lw	s2,-1760(gp) # 200c0500 <jpeg_dec_width>
200a0604:	00045537          	lui	a0,0x45
200a0608:	e8c50513          	addi	a0,a0,-372 # 44e8c <_highcode_lma+0x4dac>
200a060c:	91c1a983          	lw	s3,-1764(gp) # 200c04fc <jpeg_dec_height>
200a0610:	3d99                	jal	200a0466 <send_str>
200a0612:	854a                	mv	a0,s2
200a0614:	357d                	jal	200a04c2 <send_i32>
200a0616:	07800513          	li	a0,120
200a061a:	351d                	jal	200a0440 <send_byte>
200a061c:	854e                	mv	a0,s3
200a061e:	3555                	jal	200a04c2 <send_i32>
200a0620:	0b040513          	addi	a0,s0,176
200a0624:	3589                	jal	200a0466 <send_str>
200a0626:	00045537          	lui	a0,0x45
200a062a:	e9850513          	addi	a0,a0,-360 # 44e98 <_highcode_lma+0x4db8>
200a062e:	3d25                	jal	200a0466 <send_str>
200a0630:	8552                	mv	a0,s4
200a0632:	35b1                	jal	200a047e <send_u32>
200a0634:	ea8c8513          	addi	a0,s9,-344 # 44ea8 <_highcode_lma+0x4dc8>
200a0638:	353d                	jal	200a0466 <send_str>
200a063a:	84c1a703          	lw	a4,-1972(gp) # 200c042c <jpeg_dec_buf>
200a063e:	4b01                	li	s6,0
200a0640:	4c01                	li	s8,0
200a0642:	02800813          	li	a6,40
200a0646:	18000893          	li	a7,384
200a064a:	20120337          	lui	t1,0x20120
200a064e:	fff98693          	addi	a3,s3,-1
200a0652:	02000d93          	li	s11,32
200a0656:	fff90e13          	addi	t3,s2,-1
200a065a:	030b07b3          	mul	a5,s6,a6
200a065e:	8ab6                	mv	s5,a3
200a0660:	031b0a33          	mul	s4,s6,a7
200a0664:	8795                	srai	a5,a5,0x5
200a0666:	05a78793          	addi	a5,a5,90
200a066a:	9a1a                	add	s4,s4,t1
200a066c:	0137d363          	bge	a5,s3,200a0672 <main+0x196>
200a0670:	8abe                	mv	s5,a5
200a0672:	032a8ab3          	mul	s5,s5,s2
200a0676:	4d01                	li	s10,0
200a0678:	9aba                	add	s5,s5,a4
200a067a:	03bd47b3          	div	a5,s10,s11
200a067e:	40f007b3          	neg	a5,a5
200a0682:	0bd78793          	addi	a5,a5,189
200a0686:	0127c363          	blt	a5,s2,200a068c <main+0x1b0>
200a068a:	87f2                	mv	a5,t3
200a068c:	97d6                	add	a5,a5,s5
200a068e:	2388                	lbu	a0,0(a5)
200a0690:	ce72                	sw	t3,28(sp)
200a0692:	cc36                	sw	a3,24(sp)
200a0694:	ca3a                	sw	a4,20(sp)
200a0696:	3c4030ef          	jal	ra,200a3a5a <__floatsisf>
200a069a:	45b2                	lw	a1,12(sp)
200a069c:	028d0d13          	addi	s10,s10,40
200a06a0:	0a31                	addi	s4,s4,12
200a06a2:	0a7020ef          	jal	ra,200a2f48 <__divsf3>
200a06a6:	45b2                	lw	a1,12(sp)
200a06a8:	feaa2a23          	sw	a0,-12(s4)
200a06ac:	feaa2c23          	sw	a0,-8(s4)
200a06b0:	feaa2e23          	sw	a0,-4(s4)
200a06b4:	481020ef          	jal	ra,200a3334 <__mulsf3>
200a06b8:	354030ef          	jal	ra,200a3a0c <__fixunssfsi>
200a06bc:	0ff57513          	zext.b	a0,a0
200a06c0:	50000613          	li	a2,1280
200a06c4:	4752                	lw	a4,20(sp)
200a06c6:	46e2                	lw	a3,24(sp)
200a06c8:	4e72                	lw	t3,28(sp)
200a06ca:	9c2a                	add	s8,s8,a0
200a06cc:	02800813          	li	a6,40
200a06d0:	18000893          	li	a7,384
200a06d4:	20120337          	lui	t1,0x20120
200a06d8:	facd11e3          	bne	s10,a2,200a067a <main+0x19e>
200a06dc:	0b05                	addi	s6,s6,1
200a06de:	f7bb1ee3          	bne	s6,s11,200a065a <main+0x17e>
200a06e2:	e000fa37          	lui	s4,0xe000f
200a06e6:	93c18593          	addi	a1,gp,-1732 # 200c051c <output.1>
200a06ea:	20120537          	lui	a0,0x20120
200a06ee:	088a2903          	lw	s2,136(s4) # e000f088 <_eusrstack+0xbff0f088>
200a06f2:	565000ef          	jal	ra,200a1456 <inference_run>
200a06f6:	088a2783          	lw	a5,136(s4)
200a06fa:	1527ed63          	bltu	a5,s2,200a0854 <main+0x378>
200a06fe:	41278933          	sub	s2,a5,s2
200a0702:	93c18993          	addi	s3,gp,-1732 # 200c051c <output.1>
200a0706:	4a05                	li	s4,1
200a0708:	93c18a93          	addi	s5,gp,-1732 # 200c051c <output.1>
200a070c:	4b19                	li	s6,6
200a070e:	2154c7b3          	sh2add	a5,s1,s5
200a0712:	0049a503          	lw	a0,4(s3)
200a0716:	438c                	lw	a1,0(a5)
200a0718:	2ef020ef          	jal	ra,200a3206 <__gesf2>
200a071c:	00a05363          	blez	a0,200a0722 <main+0x246>
200a0720:	84d2                	mv	s1,s4
200a0722:	0a05                	addi	s4,s4,1
200a0724:	0991                	addi	s3,s3,4
200a0726:	ff6a14e3          	bne	s4,s6,200a070e <main+0x232>
200a072a:	00045537          	lui	a0,0x45
200a072e:	eb450513          	addi	a0,a0,-332 # 44eb4 <_highcode_lma+0x4dd4>
200a0732:	3b15                	jal	200a0466 <send_str>
200a0734:	00045b37          	lui	s6,0x45
200a0738:	f50b0793          	addi	a5,s6,-176 # 44f50 <class_names.0>
200a073c:	20f4c7b3          	sh2add	a5,s1,a5
200a0740:	4388                	lw	a0,0(a5)
200a0742:	6a09                	lui	s4,0x2
200a0744:	4981                	li	s3,0
200a0746:	3305                	jal	200a0466 <send_str>
200a0748:	0b040513          	addi	a0,s0,176
200a074c:	3b29                	jal	200a0466 <send_str>
200a074e:	00045537          	lui	a0,0x45
200a0752:	ebc50513          	addi	a0,a0,-324 # 44ebc <_highcode_lma+0x4ddc>
200a0756:	3b01                	jal	200a0466 <send_str>
200a0758:	f50b0b13          	addi	s6,s6,-176
200a075c:	710a0a13          	addi	s4,s4,1808 # 2710 <__stack_size+0x1f10>
200a0760:	3e700d13          	li	s10,999
200a0764:	06300d93          	li	s11,99
200a0768:	000497b7          	lui	a5,0x49
200a076c:	88478513          	addi	a0,a5,-1916 # 48884 <__sf_fake_stdin+0x24>
200a0770:	39dd                	jal	200a0466 <send_str>
200a0772:	013b07b3          	add	a5,s6,s3
200a0776:	4388                	lw	a0,0(a5)
200a0778:	31fd                	jal	200a0466 <send_str>
200a077a:	03d00513          	li	a0,61
200a077e:	31c9                	jal	200a0440 <send_byte>
200a0780:	013a87b3          	add	a5,s5,s3
200a0784:	45c2                	lw	a1,16(sp)
200a0786:	4388                	lw	a0,0(a5)
200a0788:	3ad020ef          	jal	ra,200a3334 <__mulsf3>
200a078c:	280030ef          	jal	ra,200a3a0c <__fixunssfsi>
200a0790:	84aa                	mv	s1,a0
200a0792:	03455533          	divu	a0,a0,s4
200a0796:	31e5                	jal	200a047e <send_u32>
200a0798:	02e00513          	li	a0,46
200a079c:	3155                	jal	200a0440 <send_byte>
200a079e:	0344f4b3          	remu	s1,s1,s4
200a07a2:	029d6063          	bltu	s10,s1,200a07c2 <main+0x2e6>
200a07a6:	03000513          	li	a0,48
200a07aa:	3959                	jal	200a0440 <send_byte>
200a07ac:	009deb63          	bltu	s11,s1,200a07c2 <main+0x2e6>
200a07b0:	03000513          	li	a0,48
200a07b4:	3171                	jal	200a0440 <send_byte>
200a07b6:	47a5                	li	a5,9
200a07b8:	0097e563          	bltu	a5,s1,200a07c2 <main+0x2e6>
200a07bc:	03000513          	li	a0,48
200a07c0:	3141                	jal	200a0440 <send_byte>
200a07c2:	8526                	mv	a0,s1
200a07c4:	396d                	jal	200a047e <send_u32>
200a07c6:	0991                	addi	s3,s3,4
200a07c8:	47e1                	li	a5,24
200a07ca:	f8f99fe3          	bne	s3,a5,200a0768 <main+0x28c>
200a07ce:	0b040513          	addi	a0,s0,176
200a07d2:	3951                	jal	200a0466 <send_str>
200a07d4:	00045537          	lui	a0,0x45
200a07d8:	ec450513          	addi	a0,a0,-316 # 44ec4 <_highcode_lma+0x4de4>
200a07dc:	3169                	jal	200a0466 <send_str>
200a07de:	854a                	mv	a0,s2
200a07e0:	3979                	jal	200a047e <send_u32>
200a07e2:	ea8c8513          	addi	a0,s9,-344
200a07e6:	3141                	jal	200a0466 <send_str>
200a07e8:	00045537          	lui	a0,0x45
200a07ec:	ed050513          	addi	a0,a0,-304 # 44ed0 <_highcode_lma+0x4df0>
200a07f0:	399d                	jal	200a0466 <send_str>
200a07f2:	0aa00513          	li	a0,170
200a07f6:	3161                	jal	200a047e <send_u32>
200a07f8:	02c00513          	li	a0,44
200a07fc:	3191                	jal	200a0440 <send_byte>
200a07fe:	06e00513          	li	a0,110
200a0802:	39b5                	jal	200a047e <send_u32>
200a0804:	0b040513          	addi	a0,s0,176
200a0808:	39b9                	jal	200a0466 <send_str>
200a080a:	00045537          	lui	a0,0x45
200a080e:	ed850513          	addi	a0,a0,-296 # 44ed8 <_highcode_lma+0x4df8>
200a0812:	3991                	jal	200a0466 <send_str>
200a0814:	8562                	mv	a0,s8
200a0816:	31a5                	jal	200a047e <send_u32>
200a0818:	0b040513          	addi	a0,s0,176
200a081c:	31a9                	jal	200a0466 <send_str>
200a081e:	00045537          	lui	a0,0x45
200a0822:	ee850513          	addi	a0,a0,-280 # 44ee8 <_highcode_lma+0x4e08>
200a0826:	3181                	jal	200a0466 <send_str>
200a0828:	4481                	li	s1,0
200a082a:	20160937          	lui	s2,0x20160
200a082e:	47a2                	lw	a5,8(sp)
200a0830:	02979463          	bne	a5,s1,200a0858 <main+0x37c>
200a0834:	00045537          	lui	a0,0x45
200a0838:	ef850513          	addi	a0,a0,-264 # 44ef8 <_highcode_lma+0x4e18>
200a083c:	312d                	jal	200a0466 <send_str>
200a083e:	00045537          	lui	a0,0x45
200a0842:	f1850513          	addi	a0,a0,-232 # 44f18 <_highcode_lma+0x4e38>
200a0846:	3105                	jal	200a0466 <send_str>
200a0848:	0b85                	addi	s7,s7,1
200a084a:	283000ef          	jal	ra,200a12cc <dvp_restart>
200a084e:	bb81                	j	200a059e <main+0xc2>
200a0850:	17fd                	addi	a5,a5,-1
200a0852:	bb95                	j	200a05c6 <main+0xea>
200a0854:	17fd                	addi	a5,a5,-1
200a0856:	b565                	j	200a06fe <main+0x222>
200a0858:	009907b3          	add	a5,s2,s1
200a085c:	2388                	lbu	a0,0(a5)
200a085e:	0485                	addi	s1,s1,1
200a0860:	36c5                	jal	200a0440 <send_byte>
200a0862:	b7f1                	j	200a082e <main+0x352>
200a0864:	00045537          	lui	a0,0x45
200a0868:	f0850513          	addi	a0,a0,-248 # 44f08 <_highcode_lma+0x4e28>
200a086c:	3eed                	jal	200a0466 <send_str>
200a086e:	8526                	mv	a0,s1
200a0870:	3989                	jal	200a04c2 <send_i32>
200a0872:	0b040513          	addi	a0,s0,176
200a0876:	b7d9                	j	200a083c <main+0x360>

200a0878 <SystemAndCoreClockUpdate>:
200a0878:	400217b7          	lui	a5,0x40021
200a087c:	43d4                	lw	a3,4(a5)
200a087e:	4798                	lw	a4,8(a5)
200a0880:	4621                	li	a2,8
200a0882:	8ab1                	andi	a3,a3,12
200a0884:	02c69463          	bne	a3,a2,200a08ac <SystemAndCoreClockUpdate+0x34>
200a0888:	700006b7          	lui	a3,0x70000
200a088c:	8f75                	and	a4,a4,a3
200a088e:	50000637          	lui	a2,0x50000
200a0892:	14c70363          	beq	a4,a2,200a09d8 <SystemAndCoreClockUpdate+0x160>
200a0896:	02e66063          	bltu	a2,a4,200a08b6 <SystemAndCoreClockUpdate+0x3e>
200a089a:	c71d                	beqz	a4,200a08c8 <SystemAndCoreClockUpdate+0x50>
200a089c:	1c9c47b7          	lui	a5,0x1c9c4
200a08a0:	400006b7          	lui	a3,0x40000
200a08a4:	80078793          	addi	a5,a5,-2048 # 1c9c3800 <_data_lma+0x1c97ae98>
200a08a8:	06d70763          	beq	a4,a3,200a0916 <SystemAndCoreClockUpdate+0x9e>
200a08ac:	017d87b7          	lui	a5,0x17d8
200a08b0:	84078793          	addi	a5,a5,-1984 # 17d7840 <_data_lma+0x178eed8>
200a08b4:	a08d                	j	200a0916 <SystemAndCoreClockUpdate+0x9e>
200a08b6:	60000637          	lui	a2,0x60000
200a08ba:	10c70063          	beq	a4,a2,200a09ba <SystemAndCoreClockUpdate+0x142>
200a08be:	077367b7          	lui	a5,0x7736
200a08c2:	94078793          	addi	a5,a5,-1728 # 7735940 <_data_lma+0x76ecfd8>
200a08c6:	b7cd                	j	200a08a8 <SystemAndCoreClockUpdate+0x30>
200a08c8:	4790                	lw	a2,8(a5)
200a08ca:	4794                	lw	a3,8(a5)
200a08cc:	4798                	lw	a4,8(a5)
200a08ce:	0a000593          	li	a1,160
200a08d2:	0e06f693          	andi	a3,a3,224
200a08d6:	8321                	srli	a4,a4,0x8
200a08d8:	03f77713          	andi	a4,a4,63
200a08dc:	8a7d                	andi	a2,a2,31
200a08de:	0705                	addi	a4,a4,1
200a08e0:	08b69263          	bne	a3,a1,200a0964 <SystemAndCoreClockUpdate+0xec>
200a08e4:	1dcd67b7          	lui	a5,0x1dcd6
200a08e8:	50078793          	addi	a5,a5,1280 # 1dcd6500 <_data_lma+0x1dc8db98>
200a08ec:	02e7d733          	divu	a4,a5,a4
200a08f0:	200c07b7          	lui	a5,0x200c0
200a08f4:	32078793          	addi	a5,a5,800 # 200c0320 <PLLMULTB>
200a08f8:	97b2                	add	a5,a5,a2
200a08fa:	239c                	lbu	a5,0(a5)
200a08fc:	4691                	li	a3,4
200a08fe:	02e787b3          	mul	a5,a5,a4
200a0902:	00d60963          	beq	a2,a3,200a0914 <SystemAndCoreClockUpdate+0x9c>
200a0906:	6685                	lui	a3,0x1
200a0908:	54068693          	addi	a3,a3,1344 # 1540 <__stack_size+0xd40>
200a090c:	00c6d6b3          	srl	a3,a3,a2
200a0910:	8a85                	andi	a3,a3,1
200a0912:	c291                	beqz	a3,200a0916 <SystemAndCoreClockUpdate+0x9e>
200a0914:	8385                	srli	a5,a5,0x1
200a0916:	8cf1ac23          	sw	a5,-1832(gp) # 200c04b8 <SystemClock>
200a091a:	40021637          	lui	a2,0x40021
200a091e:	4254                	lw	a3,4(a2)
200a0920:	200c0737          	lui	a4,0x200c0
200a0924:	31070713          	addi	a4,a4,784 # 200c0310 <HBPrescTB>
200a0928:	8291                	srli	a3,a3,0x4
200a092a:	8abd                	andi	a3,a3,15
200a092c:	9736                	add	a4,a4,a3
200a092e:	2318                	lbu	a4,0(a4)
200a0930:	200c06b7          	lui	a3,0x200c0
200a0934:	3e068693          	addi	a3,a3,992 # 200c03e0 <FPRETB>
200a0938:	00e7d7b3          	srl	a5,a5,a4
200a093c:	4258                	lw	a4,4(a2)
200a093e:	6641                	lui	a2,0x10
200a0940:	8341                	srli	a4,a4,0x10
200a0942:	8b0d                	andi	a4,a4,3
200a0944:	9736                	add	a4,a4,a3
200a0946:	2318                	lbu	a4,0(a4)
200a0948:	00e7d733          	srl	a4,a5,a4
200a094c:	8ce1ae23          	sw	a4,-1828(gp) # 200c04bc <HCLKClock>
200a0950:	e000f6b7          	lui	a3,0xe000f
200a0954:	d106a683          	lw	a3,-752(a3) # e000ed10 <_eusrstack+0xbff0ed10>
200a0958:	8ef1                	and	a3,a3,a2
200a095a:	e291                	bnez	a3,200a095e <SystemAndCoreClockUpdate+0xe6>
200a095c:	87ba                	mv	a5,a4
200a095e:	8cf1aa23          	sw	a5,-1836(gp) # 200c04b4 <SystemCoreClock>
200a0962:	8082                	ret
200a0964:	0e000593          	li	a1,224
200a0968:	02b69263          	bne	a3,a1,200a098c <SystemAndCoreClockUpdate+0x114>
200a096c:	5bd4                	lw	a3,52(a5)
200a096e:	200c07b7          	lui	a5,0x200c0
200a0972:	30078793          	addi	a5,a5,768 # 200c0300 <SERDESPLLMULTB>
200a0976:	82c1                	srli	a3,a3,0x10
200a0978:	97b6                	add	a5,a5,a3
200a097a:	239c                	lbu	a5,0(a5)
200a097c:	017d86b7          	lui	a3,0x17d8
200a0980:	84068693          	addi	a3,a3,-1984 # 17d7840 <_data_lma+0x178eed8>
200a0984:	02d787b3          	mul	a5,a5,a3
200a0988:	8385                	srli	a5,a5,0x1
200a098a:	b78d                	j	200a08ec <SystemAndCoreClockUpdate+0x74>
200a098c:	08000793          	li	a5,128
200a0990:	00f69763          	bne	a3,a5,200a099e <SystemAndCoreClockUpdate+0x126>
200a0994:	1c9c47b7          	lui	a5,0x1c9c4
200a0998:	80078793          	addi	a5,a5,-2048 # 1c9c3800 <_data_lma+0x1c97ae98>
200a099c:	bf81                	j	200a08ec <SystemAndCoreClockUpdate+0x74>
200a099e:	0c000793          	li	a5,192
200a09a2:	00f69763          	bne	a3,a5,200a09b0 <SystemAndCoreClockUpdate+0x138>
200a09a6:	077367b7          	lui	a5,0x7736
200a09aa:	94078793          	addi	a5,a5,-1728 # 7735940 <_data_lma+0x76ecfd8>
200a09ae:	bf3d                	j	200a08ec <SystemAndCoreClockUpdate+0x74>
200a09b0:	017d87b7          	lui	a5,0x17d8
200a09b4:	84078793          	addi	a5,a5,-1984 # 17d7840 <_data_lma+0x178eed8>
200a09b8:	bf15                	j	200a08ec <SystemAndCoreClockUpdate+0x74>
200a09ba:	5bd8                	lw	a4,52(a5)
200a09bc:	200c07b7          	lui	a5,0x200c0
200a09c0:	30078793          	addi	a5,a5,768 # 200c0300 <SERDESPLLMULTB>
200a09c4:	8341                	srli	a4,a4,0x10
200a09c6:	97ba                	add	a5,a5,a4
200a09c8:	239c                	lbu	a5,0(a5)
200a09ca:	017d8737          	lui	a4,0x17d8
200a09ce:	84070713          	addi	a4,a4,-1984 # 17d7840 <_data_lma+0x178eed8>
200a09d2:	02e787b3          	mul	a5,a5,a4
200a09d6:	bf3d                	j	200a0914 <SystemAndCoreClockUpdate+0x9c>
200a09d8:	1dcd67b7          	lui	a5,0x1dcd6
200a09dc:	50078793          	addi	a5,a5,1280 # 1dcd6500 <_data_lma+0x1dc8db98>
200a09e0:	bf1d                	j	200a0916 <SystemAndCoreClockUpdate+0x9e>

200a09e2 <ADC1_2_IRQHandler>:
200a09e2:	a001                	j	200a09e2 <ADC1_2_IRQHandler>

200a09e4 <DVP_DeInit>:
200a09e4:	8a1ff2ef          	jal	t0,200a0284 <__riscv_save_0>
200a09e8:	4585                	li	a1,1
200a09ea:	6509                	lui	a0,0x2
200a09ec:	2511                	jal	200a0ff0 <RCC_HBPeriphResetCmd>
200a09ee:	4581                	li	a1,0
200a09f0:	6509                	lui	a0,0x2
200a09f2:	2bfd                	jal	200a0ff0 <RCC_HBPeriphResetCmd>
200a09f4:	8b5ff06f          	j	200a02a8 <__riscv_restore_0>

200a09f8 <DVP_Init>:
200a09f8:	40026637          	lui	a2,0x40026
200a09fc:	80060023          	sb	zero,-2048(a2) # 40025800 <_eusrstack+0x1ff25800>
200a0a00:	800600a3          	sb	zero,-2047(a2)
200a0a04:	3954                	lbu	a3,21(a0)
200a0a06:	295c                	lbu	a5,20(a0)
200a0a08:	6591                	lui	a1,0x4
200a0a0a:	fc058593          	addi	a1,a1,-64 # 3fc0 <__stack_size+0x37c0>
200a0a0e:	8fd5                	or	a5,a5,a3
200a0a10:	2974                	lbu	a3,22(a0)
200a0a12:	80060713          	addi	a4,a2,-2048
200a0a16:	8fd5                	or	a5,a5,a3
200a0a18:	3974                	lbu	a3,23(a0)
200a0a1a:	8fd5                	or	a5,a5,a3
200a0a1c:	5114                	lw	a3,32(a0)
200a0a1e:	069a                	slli	a3,a3,0x6
200a0a20:	8eed                	and	a3,a3,a1
200a0a22:	8fd5                	or	a5,a5,a3
200a0a24:	0ff7f793          	zext.b	a5,a5
200a0a28:	80f60023          	sb	a5,-2048(a2)
200a0a2c:	4d5c                	lw	a5,28(a0)
200a0a2e:	6689                	lui	a3,0x2
200a0a30:	1681                	addi	a3,a3,-32 # 1fe0 <__stack_size+0x17e0>
200a0a32:	0796                	slli	a5,a5,0x5
200a0a34:	3d10                	lbu	a2,25(a0)
200a0a36:	8ff5                	and	a5,a5,a3
200a0a38:	2d14                	lbu	a3,24(a0)
200a0a3a:	8ed1                	or	a3,a3,a2
200a0a3c:	8fd5                	or	a5,a5,a3
200a0a3e:	0ff7f793          	zext.b	a5,a5
200a0a42:	b31c                	sb	a5,1(a4)
200a0a44:	211e                	lhu	a5,0(a0)
200a0a46:	a35e                	sh	a5,4(a4)
200a0a48:	213e                	lhu	a5,2(a0)
200a0a4a:	a37e                	sh	a5,6(a4)
200a0a4c:	415c                	lw	a5,4(a0)
200a0a4e:	c71c                	sw	a5,8(a4)
200a0a50:	451c                	lw	a5,8(a0)
200a0a52:	c75c                	sw	a5,12(a4)
200a0a54:	255e                	lhu	a5,12(a0)
200a0a56:	af1e                	sh	a5,24(a4)
200a0a58:	257e                	lhu	a5,14(a0)
200a0a5a:	af3e                	sh	a5,26(a4)
200a0a5c:	291e                	lhu	a5,16(a0)
200a0a5e:	af5e                	sh	a5,28(a4)
200a0a60:	293e                	lhu	a5,18(a0)
200a0a62:	af7e                	sh	a5,30(a4)
200a0a64:	8082                	ret

200a0a66 <DVP_Cmd>:
200a0a66:	40026737          	lui	a4,0x40026
200a0a6a:	80074783          	lbu	a5,-2048(a4) # 40025800 <_eusrstack+0x1ff25800>
200a0a6e:	c511                	beqz	a0,200a0a7a <DVP_Cmd+0x14>
200a0a70:	0017e793          	ori	a5,a5,1
200a0a74:	80f70023          	sb	a5,-2048(a4)
200a0a78:	8082                	ret
200a0a7a:	0fe7f793          	andi	a5,a5,254
200a0a7e:	bfdd                	j	200a0a74 <DVP_Cmd+0xe>

200a0a80 <DVP_DMACmd>:
200a0a80:	400267b7          	lui	a5,0x40026
200a0a84:	8017c703          	lbu	a4,-2047(a5) # 40025801 <_eusrstack+0x1ff25801>
200a0a88:	80078793          	addi	a5,a5,-2048
200a0a8c:	c509                	beqz	a0,200a0a96 <DVP_DMACmd+0x16>
200a0a8e:	00176713          	ori	a4,a4,1
200a0a92:	b398                	sb	a4,1(a5)
200a0a94:	8082                	ret
200a0a96:	0fe77713          	andi	a4,a4,254
200a0a9a:	bfe5                	j	200a0a92 <DVP_DMACmd+0x12>

200a0a9c <DVP_ReceiveCircuitResetCmd>:
200a0a9c:	400267b7          	lui	a5,0x40026
200a0aa0:	8017c703          	lbu	a4,-2047(a5) # 40025801 <_eusrstack+0x1ff25801>
200a0aa4:	80078793          	addi	a5,a5,-2048
200a0aa8:	c509                	beqz	a0,200a0ab2 <DVP_ReceiveCircuitResetCmd+0x16>
200a0aaa:	00476713          	ori	a4,a4,4
200a0aae:	b398                	sb	a4,1(a5)
200a0ab0:	8082                	ret
200a0ab2:	0fb77713          	andi	a4,a4,251
200a0ab6:	bfe5                	j	200a0aae <DVP_ReceiveCircuitResetCmd+0x12>

200a0ab8 <DVP_FIFO_ResetCmd>:
200a0ab8:	400267b7          	lui	a5,0x40026
200a0abc:	8017c703          	lbu	a4,-2047(a5) # 40025801 <_eusrstack+0x1ff25801>
200a0ac0:	80078793          	addi	a5,a5,-2048
200a0ac4:	c509                	beqz	a0,200a0ace <DVP_FIFO_ResetCmd+0x16>
200a0ac6:	00276713          	ori	a4,a4,2
200a0aca:	b398                	sb	a4,1(a5)
200a0acc:	8082                	ret
200a0ace:	0fd77713          	andi	a4,a4,253
200a0ad2:	bfe5                	j	200a0aca <DVP_FIFO_ResetCmd+0x12>

200a0ad4 <DVP_ITConfig>:
200a0ad4:	400267b7          	lui	a5,0x40026
200a0ad8:	8027c703          	lbu	a4,-2046(a5) # 40025802 <_eusrstack+0x1ff25802>
200a0adc:	80078793          	addi	a5,a5,-2048
200a0ae0:	c581                	beqz	a1,200a0ae8 <DVP_ITConfig+0x14>
200a0ae2:	8f49                	or	a4,a4,a0
200a0ae4:	a3b8                	sb	a4,2(a5)
200a0ae6:	8082                	ret
200a0ae8:	40a77533          	andn	a0,a4,a0
200a0aec:	a3a8                	sb	a0,2(a5)
200a0aee:	8082                	ret

200a0af0 <DVP_GetITStatus>:
200a0af0:	40026737          	lui	a4,0x40026
200a0af4:	80274783          	lbu	a5,-2046(a4) # 40025802 <_eusrstack+0x1ff25802>
200a0af8:	80070713          	addi	a4,a4,-2048
200a0afc:	2b18                	lbu	a4,16(a4)
200a0afe:	0ff7f793          	zext.b	a5,a5
200a0b02:	8f69                	and	a4,a4,a0
200a0b04:	c709                	beqz	a4,200a0b0e <DVP_GetITStatus+0x1e>
200a0b06:	8d7d                	and	a0,a0,a5
200a0b08:	00a03533          	snez	a0,a0
200a0b0c:	8082                	ret
200a0b0e:	4501                	li	a0,0
200a0b10:	8082                	ret

200a0b12 <DVP_ClearITPendingBit>:
200a0b12:	400267b7          	lui	a5,0x40026
200a0b16:	80a78823          	sb	a0,-2032(a5) # 40025810 <_eusrstack+0x1ff25810>
200a0b1a:	8082                	ret

200a0b1c <GPIO_Init>:
200a0b1c:	459c                	lw	a5,8(a1)
200a0b1e:	0005d803          	lhu	a6,0(a1)
200a0b22:	0107f713          	andi	a4,a5,16
200a0b26:	00f7f893          	andi	a7,a5,15
200a0b2a:	cb1d                	beqz	a4,200a0b60 <GPIO_Init+0x44>
200a0b2c:	4d58                	lw	a4,28(a0)
200a0b2e:	0018e893          	ori	a7,a7,1
200a0b32:	4681                	li	a3,0
200a0b34:	4e8d                	li	t4,3
200a0b36:	4e41                	li	t3,16
200a0b38:	28d01633          	bset	a2,zero,a3
200a0b3c:	00c87333          	and	t1,a6,a2
200a0b40:	00661c63          	bne	a2,t1,200a0b58 <GPIO_Init+0x3c>
200a0b44:	00169313          	slli	t1,a3,0x1
200a0b48:	006e9633          	sll	a2,t4,t1
200a0b4c:	40c77733          	andn	a4,a4,a2
200a0b50:	41d0                	lw	a2,4(a1)
200a0b52:	00661633          	sll	a2,a2,t1
200a0b56:	8f51                	or	a4,a4,a2
200a0b58:	0685                	addi	a3,a3,1
200a0b5a:	fdc69fe3          	bne	a3,t3,200a0b38 <GPIO_Init+0x1c>
200a0b5e:	cd58                	sw	a4,28(a0)
200a0b60:	0ff87713          	zext.b	a4,a6
200a0b64:	cf1d                	beqz	a4,200a0ba2 <GPIO_Init+0x86>
200a0b66:	4118                	lw	a4,0(a0)
200a0b68:	4681                	li	a3,0
200a0b6a:	02800313          	li	t1,40
200a0b6e:	4e3d                	li	t3,15
200a0b70:	04800e93          	li	t4,72
200a0b74:	45a1                	li	a1,8
200a0b76:	28d01633          	bset	a2,zero,a3
200a0b7a:	00c87f33          	and	t5,a6,a2
200a0b7e:	01e61e63          	bne	a2,t5,200a0b9a <GPIO_Init+0x7e>
200a0b82:	06679563          	bne	a5,t1,200a0bec <GPIO_Init+0xd0>
200a0b86:	c950                	sw	a2,20(a0)
200a0b88:	00269613          	slli	a2,a3,0x2
200a0b8c:	00ce1f33          	sll	t5,t3,a2
200a0b90:	00c89633          	sll	a2,a7,a2
200a0b94:	41e77733          	andn	a4,a4,t5
200a0b98:	8f51                	or	a4,a4,a2
200a0b9a:	0685                	addi	a3,a3,1
200a0b9c:	fcb69de3          	bne	a3,a1,200a0b76 <GPIO_Init+0x5a>
200a0ba0:	c118                	sw	a4,0(a0)
200a0ba2:	0ff00713          	li	a4,255
200a0ba6:	05077263          	bgeu	a4,a6,200a0bea <GPIO_Init+0xce>
200a0baa:	4154                	lw	a3,4(a0)
200a0bac:	4601                	li	a2,0
200a0bae:	02800e13          	li	t3,40
200a0bb2:	04800e93          	li	t4,72
200a0bb6:	4321                	li	t1,8
200a0bb8:	00860713          	addi	a4,a2,8
200a0bbc:	28e01733          	bset	a4,zero,a4
200a0bc0:	00e875b3          	and	a1,a6,a4
200a0bc4:	00b71f63          	bne	a4,a1,200a0be2 <GPIO_Init+0xc6>
200a0bc8:	03c79663          	bne	a5,t3,200a0bf4 <GPIO_Init+0xd8>
200a0bcc:	c958                	sw	a4,20(a0)
200a0bce:	00261713          	slli	a4,a2,0x2
200a0bd2:	45bd                	li	a1,15
200a0bd4:	00e595b3          	sll	a1,a1,a4
200a0bd8:	00e89733          	sll	a4,a7,a4
200a0bdc:	40b6f6b3          	andn	a3,a3,a1
200a0be0:	8ed9                	or	a3,a3,a4
200a0be2:	0605                	addi	a2,a2,1
200a0be4:	fc661ae3          	bne	a2,t1,200a0bb8 <GPIO_Init+0x9c>
200a0be8:	c154                	sw	a3,4(a0)
200a0bea:	8082                	ret
200a0bec:	f9d79ee3          	bne	a5,t4,200a0b88 <GPIO_Init+0x6c>
200a0bf0:	c910                	sw	a2,16(a0)
200a0bf2:	bf59                	j	200a0b88 <GPIO_Init+0x6c>
200a0bf4:	fdd79de3          	bne	a5,t4,200a0bce <GPIO_Init+0xb2>
200a0bf8:	c918                	sw	a4,16(a0)
200a0bfa:	bfd1                	j	200a0bce <GPIO_Init+0xb2>

200a0bfc <GPIO_WriteBit>:
200a0bfc:	c219                	beqz	a2,200a0c02 <GPIO_WriteBit+0x6>
200a0bfe:	c90c                	sw	a1,16(a0)
200a0c00:	8082                	ret
200a0c02:	c94c                	sw	a1,20(a0)
200a0c04:	8082                	ret

200a0c06 <GPIO_PinAFConfig>:
200a0c06:	40011737          	lui	a4,0x40011
200a0c0a:	479d                	li	a5,7
200a0c0c:	80070693          	addi	a3,a4,-2048 # 40010800 <_eusrstack+0x1ff10800>
200a0c10:	02b7f863          	bgeu	a5,a1,200a0c40 <GPIO_PinAFConfig+0x3a>
200a0c14:	ff858793          	addi	a5,a1,-8
200a0c18:	0ff7f793          	zext.b	a5,a5
200a0c1c:	06d51a63          	bne	a0,a3,200a0c90 <GPIO_PinAFConfig+0x8a>
200a0c20:	400106b7          	lui	a3,0x40010
200a0c24:	468c                	lw	a1,8(a3)
200a0c26:	078a                	slli	a5,a5,0x2
200a0c28:	473d                	li	a4,15
200a0c2a:	00f71733          	sll	a4,a4,a5
200a0c2e:	40e5f733          	andn	a4,a1,a4
200a0c32:	c698                	sw	a4,8(a3)
200a0c34:	4698                	lw	a4,8(a3)
200a0c36:	00f617b3          	sll	a5,a2,a5
200a0c3a:	8fd9                	or	a5,a5,a4
200a0c3c:	c69c                	sw	a5,8(a3)
200a0c3e:	8082                	ret
200a0c40:	02d50863          	beq	a0,a3,200a0c70 <GPIO_PinAFConfig+0x6a>
200a0c44:	c0070793          	addi	a5,a4,-1024
200a0c48:	08f50a63          	beq	a0,a5,200a0cdc <GPIO_PinAFConfig+0xd6>
200a0c4c:	16e51c63          	bne	a0,a4,200a0dc4 <GPIO_PinAFConfig+0x1be>
200a0c50:	40010737          	lui	a4,0x40010
200a0c54:	4b54                	lw	a3,20(a4)
200a0c56:	058a                	slli	a1,a1,0x2
200a0c58:	47bd                	li	a5,15
200a0c5a:	00b797b3          	sll	a5,a5,a1
200a0c5e:	40f6f7b3          	andn	a5,a3,a5
200a0c62:	cb5c                	sw	a5,20(a4)
200a0c64:	4b5c                	lw	a5,20(a4)
200a0c66:	00b615b3          	sll	a1,a2,a1
200a0c6a:	8ddd                	or	a1,a1,a5
200a0c6c:	cb4c                	sw	a1,20(a4)
200a0c6e:	8082                	ret
200a0c70:	40010737          	lui	a4,0x40010
200a0c74:	4354                	lw	a3,4(a4)
200a0c76:	058a                	slli	a1,a1,0x2
200a0c78:	47bd                	li	a5,15
200a0c7a:	00b797b3          	sll	a5,a5,a1
200a0c7e:	40f6f7b3          	andn	a5,a3,a5
200a0c82:	c35c                	sw	a5,4(a4)
200a0c84:	435c                	lw	a5,4(a4)
200a0c86:	00b615b3          	sll	a1,a2,a1
200a0c8a:	8ddd                	or	a1,a1,a5
200a0c8c:	c34c                	sw	a1,4(a4)
200a0c8e:	8082                	ret
200a0c90:	c0070693          	addi	a3,a4,-1024 # 4000fc00 <_eusrstack+0x1ff0fc00>
200a0c94:	02d50463          	beq	a0,a3,200a0cbc <GPIO_PinAFConfig+0xb6>
200a0c98:	10e51263          	bne	a0,a4,200a0d9c <GPIO_PinAFConfig+0x196>
200a0c9c:	400106b7          	lui	a3,0x40010
200a0ca0:	4e8c                	lw	a1,24(a3)
200a0ca2:	078a                	slli	a5,a5,0x2
200a0ca4:	473d                	li	a4,15
200a0ca6:	00f71733          	sll	a4,a4,a5
200a0caa:	40e5f733          	andn	a4,a1,a4
200a0cae:	ce98                	sw	a4,24(a3)
200a0cb0:	4e98                	lw	a4,24(a3)
200a0cb2:	00f617b3          	sll	a5,a2,a5
200a0cb6:	8fd9                	or	a5,a5,a4
200a0cb8:	ce9c                	sw	a5,24(a3)
200a0cba:	8082                	ret
200a0cbc:	400106b7          	lui	a3,0x40010
200a0cc0:	4a8c                	lw	a1,16(a3)
200a0cc2:	078a                	slli	a5,a5,0x2
200a0cc4:	473d                	li	a4,15
200a0cc6:	00f71733          	sll	a4,a4,a5
200a0cca:	40e5f733          	andn	a4,a1,a4
200a0cce:	ca98                	sw	a4,16(a3)
200a0cd0:	4a98                	lw	a4,16(a3)
200a0cd2:	00f617b3          	sll	a5,a2,a5
200a0cd6:	8fd9                	or	a5,a5,a4
200a0cd8:	ca9c                	sw	a5,16(a3)
200a0cda:	8082                	ret
200a0cdc:	40010737          	lui	a4,0x40010
200a0ce0:	4754                	lw	a3,12(a4)
200a0ce2:	058a                	slli	a1,a1,0x2
200a0ce4:	47bd                	li	a5,15
200a0ce6:	00b797b3          	sll	a5,a5,a1
200a0cea:	40f6f7b3          	andn	a5,a3,a5
200a0cee:	c75c                	sw	a5,12(a4)
200a0cf0:	475c                	lw	a5,12(a4)
200a0cf2:	00b615b3          	sll	a1,a2,a1
200a0cf6:	8ddd                	or	a1,a1,a5
200a0cf8:	c74c                	sw	a1,12(a4)
200a0cfa:	8082                	ret
200a0cfc:	40012737          	lui	a4,0x40012
200a0d00:	80070713          	addi	a4,a4,-2048 # 40011800 <_eusrstack+0x1ff11800>
200a0d04:	87ae                	mv	a5,a1
200a0d06:	04e51863          	bne	a0,a4,200a0d56 <GPIO_PinAFConfig+0x150>
200a0d0a:	40010737          	lui	a4,0x40010
200a0d0e:	5354                	lw	a3,36(a4)
200a0d10:	058a                	slli	a1,a1,0x2
200a0d12:	47bd                	li	a5,15
200a0d14:	00b797b3          	sll	a5,a5,a1
200a0d18:	40f6f7b3          	andn	a5,a3,a5
200a0d1c:	d35c                	sw	a5,36(a4)
200a0d1e:	535c                	lw	a5,36(a4)
200a0d20:	00b615b3          	sll	a1,a2,a1
200a0d24:	8ddd                	or	a1,a1,a5
200a0d26:	d34c                	sw	a1,36(a4)
200a0d28:	8082                	ret
200a0d2a:	40012737          	lui	a4,0x40012
200a0d2e:	80070713          	addi	a4,a4,-2048 # 40011800 <_eusrstack+0x1ff11800>
200a0d32:	02e51263          	bne	a0,a4,200a0d56 <GPIO_PinAFConfig+0x150>
200a0d36:	400106b7          	lui	a3,0x40010
200a0d3a:	568c                	lw	a1,40(a3)
200a0d3c:	078a                	slli	a5,a5,0x2
200a0d3e:	473d                	li	a4,15
200a0d40:	00f71733          	sll	a4,a4,a5
200a0d44:	40e5f733          	andn	a4,a1,a4
200a0d48:	d698                	sw	a4,40(a3)
200a0d4a:	5698                	lw	a4,40(a3)
200a0d4c:	00f617b3          	sll	a5,a2,a5
200a0d50:	8fd9                	or	a5,a5,a4
200a0d52:	d69c                	sw	a5,40(a3)
200a0d54:	8082                	ret
200a0d56:	40012737          	lui	a4,0x40012
200a0d5a:	c0070713          	addi	a4,a4,-1024 # 40011c00 <_eusrstack+0x1ff11c00>
200a0d5e:	08e51763          	bne	a0,a4,200a0dec <GPIO_PinAFConfig+0x1e6>
200a0d62:	078a                	slli	a5,a5,0x2
200a0d64:	473d                	li	a4,15
200a0d66:	00f71733          	sll	a4,a4,a5
200a0d6a:	00f61633          	sll	a2,a2,a5
200a0d6e:	479d                	li	a5,7
200a0d70:	fff74713          	not	a4,a4
200a0d74:	00b7fb63          	bgeu	a5,a1,200a0d8a <GPIO_PinAFConfig+0x184>
200a0d78:	400107b7          	lui	a5,0x40010
200a0d7c:	5b94                	lw	a3,48(a5)
200a0d7e:	8f75                	and	a4,a4,a3
200a0d80:	db98                	sw	a4,48(a5)
200a0d82:	5b98                	lw	a4,48(a5)
200a0d84:	8f51                	or	a4,a4,a2
200a0d86:	db98                	sw	a4,48(a5)
200a0d88:	8082                	ret
200a0d8a:	400107b7          	lui	a5,0x40010
200a0d8e:	57d4                	lw	a3,44(a5)
200a0d90:	8f75                	and	a4,a4,a3
200a0d92:	d7d8                	sw	a4,44(a5)
200a0d94:	57d8                	lw	a4,44(a5)
200a0d96:	8f51                	or	a4,a4,a2
200a0d98:	d7d8                	sw	a4,44(a5)
200a0d9a:	8082                	ret
200a0d9c:	40070713          	addi	a4,a4,1024
200a0da0:	f8e515e3          	bne	a0,a4,200a0d2a <GPIO_PinAFConfig+0x124>
200a0da4:	400106b7          	lui	a3,0x40010
200a0da8:	528c                	lw	a1,32(a3)
200a0daa:	078a                	slli	a5,a5,0x2
200a0dac:	473d                	li	a4,15
200a0dae:	00f71733          	sll	a4,a4,a5
200a0db2:	40e5f733          	andn	a4,a1,a4
200a0db6:	d298                	sw	a4,32(a3)
200a0db8:	5298                	lw	a4,32(a3)
200a0dba:	00f617b3          	sll	a5,a2,a5
200a0dbe:	8fd9                	or	a5,a5,a4
200a0dc0:	d29c                	sw	a5,32(a3)
200a0dc2:	8082                	ret
200a0dc4:	40070713          	addi	a4,a4,1024
200a0dc8:	f2e51ae3          	bne	a0,a4,200a0cfc <GPIO_PinAFConfig+0xf6>
200a0dcc:	40010737          	lui	a4,0x40010
200a0dd0:	4f54                	lw	a3,28(a4)
200a0dd2:	058a                	slli	a1,a1,0x2
200a0dd4:	47bd                	li	a5,15
200a0dd6:	00b797b3          	sll	a5,a5,a1
200a0dda:	40f6f7b3          	andn	a5,a3,a5
200a0dde:	cf5c                	sw	a5,28(a4)
200a0de0:	4f5c                	lw	a5,28(a4)
200a0de2:	00b615b3          	sll	a1,a2,a1
200a0de6:	8ddd                	or	a1,a1,a5
200a0de8:	cf4c                	sw	a1,28(a4)
200a0dea:	8082                	ret
200a0dec:	8082                	ret

200a0dee <RCC_GetClocksFreq>:
200a0dee:	400217b7          	lui	a5,0x40021
200a0df2:	43d4                	lw	a3,4(a5)
200a0df4:	4798                	lw	a4,8(a5)
200a0df6:	4621                	li	a2,8
200a0df8:	8ab1                	andi	a3,a3,12
200a0dfa:	02c69463          	bne	a3,a2,200a0e22 <RCC_GetClocksFreq+0x34>
200a0dfe:	700006b7          	lui	a3,0x70000
200a0e02:	8f75                	and	a4,a4,a3
200a0e04:	50000637          	lui	a2,0x50000
200a0e08:	16c70063          	beq	a4,a2,200a0f68 <RCC_GetClocksFreq+0x17a>
200a0e0c:	02e66063          	bltu	a2,a4,200a0e2c <RCC_GetClocksFreq+0x3e>
200a0e10:	c71d                	beqz	a4,200a0e3e <RCC_GetClocksFreq+0x50>
200a0e12:	1c9c47b7          	lui	a5,0x1c9c4
200a0e16:	400006b7          	lui	a3,0x40000
200a0e1a:	80078793          	addi	a5,a5,-2048 # 1c9c3800 <_data_lma+0x1c97ae98>
200a0e1e:	06d70763          	beq	a4,a3,200a0e8c <RCC_GetClocksFreq+0x9e>
200a0e22:	017d87b7          	lui	a5,0x17d8
200a0e26:	84078793          	addi	a5,a5,-1984 # 17d7840 <_data_lma+0x178eed8>
200a0e2a:	a08d                	j	200a0e8c <RCC_GetClocksFreq+0x9e>
200a0e2c:	60000637          	lui	a2,0x60000
200a0e30:	10c70d63          	beq	a4,a2,200a0f4a <RCC_GetClocksFreq+0x15c>
200a0e34:	077367b7          	lui	a5,0x7736
200a0e38:	94078793          	addi	a5,a5,-1728 # 7735940 <_data_lma+0x76ecfd8>
200a0e3c:	b7cd                	j	200a0e1e <RCC_GetClocksFreq+0x30>
200a0e3e:	4790                	lw	a2,8(a5)
200a0e40:	4794                	lw	a3,8(a5)
200a0e42:	4798                	lw	a4,8(a5)
200a0e44:	0a000593          	li	a1,160
200a0e48:	0e06f693          	andi	a3,a3,224
200a0e4c:	8321                	srli	a4,a4,0x8
200a0e4e:	03f77713          	andi	a4,a4,63
200a0e52:	8a7d                	andi	a2,a2,31
200a0e54:	0705                	addi	a4,a4,1 # 40010001 <_eusrstack+0x1ff10001>
200a0e56:	08b69f63          	bne	a3,a1,200a0ef4 <RCC_GetClocksFreq+0x106>
200a0e5a:	1dcd67b7          	lui	a5,0x1dcd6
200a0e5e:	50078793          	addi	a5,a5,1280 # 1dcd6500 <_data_lma+0x1dc8db98>
200a0e62:	02e7d733          	divu	a4,a5,a4
200a0e66:	200c07b7          	lui	a5,0x200c0
200a0e6a:	36078793          	addi	a5,a5,864 # 200c0360 <PLLMULTable>
200a0e6e:	97b2                	add	a5,a5,a2
200a0e70:	239c                	lbu	a5,0(a5)
200a0e72:	4691                	li	a3,4
200a0e74:	02e787b3          	mul	a5,a5,a4
200a0e78:	00d60963          	beq	a2,a3,200a0e8a <RCC_GetClocksFreq+0x9c>
200a0e7c:	6685                	lui	a3,0x1
200a0e7e:	54068693          	addi	a3,a3,1344 # 1540 <__stack_size+0xd40>
200a0e82:	00c6d6b3          	srl	a3,a3,a2
200a0e86:	8a85                	andi	a3,a3,1
200a0e88:	c291                	beqz	a3,200a0e8c <RCC_GetClocksFreq+0x9e>
200a0e8a:	8385                	srli	a5,a5,0x1
200a0e8c:	c11c                	sw	a5,0(a0)
200a0e8e:	40021637          	lui	a2,0x40021
200a0e92:	4254                	lw	a3,4(a2)
200a0e94:	200c0737          	lui	a4,0x200c0
200a0e98:	35070713          	addi	a4,a4,848 # 200c0350 <HBPrescTable>
200a0e9c:	8291                	srli	a3,a3,0x4
200a0e9e:	8abd                	andi	a3,a3,15
200a0ea0:	9736                	add	a4,a4,a3
200a0ea2:	2318                	lbu	a4,0(a4)
200a0ea4:	200c06b7          	lui	a3,0x200c0
200a0ea8:	3f068693          	addi	a3,a3,1008 # 200c03f0 <FPRETable>
200a0eac:	00e7d7b3          	srl	a5,a5,a4
200a0eb0:	4258                	lw	a4,4(a2)
200a0eb2:	6641                	lui	a2,0x10
200a0eb4:	8341                	srli	a4,a4,0x10
200a0eb6:	8b0d                	andi	a4,a4,3
200a0eb8:	9736                	add	a4,a4,a3
200a0eba:	2318                	lbu	a4,0(a4)
200a0ebc:	e000f6b7          	lui	a3,0xe000f
200a0ec0:	00e7d733          	srl	a4,a5,a4
200a0ec4:	c158                	sw	a4,4(a0)
200a0ec6:	d106a683          	lw	a3,-752(a3) # e000ed10 <_eusrstack+0xbff0ed10>
200a0eca:	8ef1                	and	a3,a3,a2
200a0ecc:	e291                	bnez	a3,200a0ed0 <RCC_GetClocksFreq+0xe2>
200a0ece:	87ba                	mv	a5,a4
200a0ed0:	c51c                	sw	a5,8(a0)
200a0ed2:	40021637          	lui	a2,0x40021
200a0ed6:	425c                	lw	a5,4(a2)
200a0ed8:	0807dd63          	bgez	a5,200a0f72 <RCC_GetClocksFreq+0x184>
200a0edc:	425c                	lw	a5,4(a2)
200a0ede:	1c9c4737          	lui	a4,0x1c9c4
200a0ee2:	80070713          	addi	a4,a4,-2048 # 1c9c3800 <_data_lma+0x1c97ae98>
200a0ee6:	83ad                	srli	a5,a5,0xb
200a0ee8:	8bfd                	andi	a5,a5,31
200a0eea:	0795                	addi	a5,a5,5
200a0eec:	02f75733          	divu	a4,a4,a5
200a0ef0:	c558                	sw	a4,12(a0)
200a0ef2:	8082                	ret
200a0ef4:	0e000593          	li	a1,224
200a0ef8:	02b69263          	bne	a3,a1,200a0f1c <RCC_GetClocksFreq+0x12e>
200a0efc:	5bd4                	lw	a3,52(a5)
200a0efe:	200c07b7          	lui	a5,0x200c0
200a0f02:	34078793          	addi	a5,a5,832 # 200c0340 <SERDESPLLMULTable>
200a0f06:	82c1                	srli	a3,a3,0x10
200a0f08:	97b6                	add	a5,a5,a3
200a0f0a:	239c                	lbu	a5,0(a5)
200a0f0c:	017d86b7          	lui	a3,0x17d8
200a0f10:	84068693          	addi	a3,a3,-1984 # 17d7840 <_data_lma+0x178eed8>
200a0f14:	02d787b3          	mul	a5,a5,a3
200a0f18:	8385                	srli	a5,a5,0x1
200a0f1a:	b7a1                	j	200a0e62 <RCC_GetClocksFreq+0x74>
200a0f1c:	08000793          	li	a5,128
200a0f20:	00f69763          	bne	a3,a5,200a0f2e <RCC_GetClocksFreq+0x140>
200a0f24:	1c9c47b7          	lui	a5,0x1c9c4
200a0f28:	80078793          	addi	a5,a5,-2048 # 1c9c3800 <_data_lma+0x1c97ae98>
200a0f2c:	bf1d                	j	200a0e62 <RCC_GetClocksFreq+0x74>
200a0f2e:	0c000793          	li	a5,192
200a0f32:	00f69763          	bne	a3,a5,200a0f40 <RCC_GetClocksFreq+0x152>
200a0f36:	077367b7          	lui	a5,0x7736
200a0f3a:	94078793          	addi	a5,a5,-1728 # 7735940 <_data_lma+0x76ecfd8>
200a0f3e:	b715                	j	200a0e62 <RCC_GetClocksFreq+0x74>
200a0f40:	017d87b7          	lui	a5,0x17d8
200a0f44:	84078793          	addi	a5,a5,-1984 # 17d7840 <_data_lma+0x178eed8>
200a0f48:	bf29                	j	200a0e62 <RCC_GetClocksFreq+0x74>
200a0f4a:	5bd8                	lw	a4,52(a5)
200a0f4c:	200c07b7          	lui	a5,0x200c0
200a0f50:	34078793          	addi	a5,a5,832 # 200c0340 <SERDESPLLMULTable>
200a0f54:	8341                	srli	a4,a4,0x10
200a0f56:	97ba                	add	a5,a5,a4
200a0f58:	239c                	lbu	a5,0(a5)
200a0f5a:	017d8737          	lui	a4,0x17d8
200a0f5e:	84070713          	addi	a4,a4,-1984 # 17d7840 <_data_lma+0x178eed8>
200a0f62:	02e787b3          	mul	a5,a5,a4
200a0f66:	b715                	j	200a0e8a <RCC_GetClocksFreq+0x9c>
200a0f68:	1dcd67b7          	lui	a5,0x1dcd6
200a0f6c:	50078793          	addi	a5,a5,1280 # 1dcd6500 <_data_lma+0x1dc8db98>
200a0f70:	bf31                	j	200a0e8c <RCC_GetClocksFreq+0x9e>
200a0f72:	4254                	lw	a3,4(a2)
200a0f74:	200c07b7          	lui	a5,0x200c0
200a0f78:	3e878793          	addi	a5,a5,1000 # 200c03e8 <PPRE2Table>
200a0f7c:	82ad                	srli	a3,a3,0xb
200a0f7e:	8a9d                	andi	a3,a3,7
200a0f80:	97b6                	add	a5,a5,a3
200a0f82:	238c                	lbu	a1,0(a5)
200a0f84:	425c                	lw	a5,4(a2)
200a0f86:	200c06b7          	lui	a3,0x200c0
200a0f8a:	3e468693          	addi	a3,a3,996 # 200c03e4 <ADCPRETable>
200a0f8e:	83b9                	srli	a5,a5,0xe
200a0f90:	8b8d                	andi	a5,a5,3
200a0f92:	97b6                	add	a5,a5,a3
200a0f94:	239c                	lbu	a5,0(a5)
200a0f96:	00b75733          	srl	a4,a4,a1
200a0f9a:	bf89                	j	200a0eec <RCC_GetClocksFreq+0xfe>

200a0f9c <RCC_HBPeriphClockCmd>:
200a0f9c:	c599                	beqz	a1,200a0faa <RCC_HBPeriphClockCmd+0xe>
200a0f9e:	40021737          	lui	a4,0x40021
200a0fa2:	4f1c                	lw	a5,24(a4)
200a0fa4:	8fc9                	or	a5,a5,a0
200a0fa6:	cf1c                	sw	a5,24(a4)
200a0fa8:	8082                	ret
200a0faa:	400217b7          	lui	a5,0x40021
200a0fae:	4f98                	lw	a4,24(a5)
200a0fb0:	40a77533          	andn	a0,a4,a0
200a0fb4:	cf88                	sw	a0,24(a5)
200a0fb6:	8082                	ret

200a0fb8 <RCC_HB2PeriphClockCmd>:
200a0fb8:	c599                	beqz	a1,200a0fc6 <RCC_HB2PeriphClockCmd+0xe>
200a0fba:	40021737          	lui	a4,0x40021
200a0fbe:	4f5c                	lw	a5,28(a4)
200a0fc0:	8fc9                	or	a5,a5,a0
200a0fc2:	cf5c                	sw	a5,28(a4)
200a0fc4:	8082                	ret
200a0fc6:	400217b7          	lui	a5,0x40021
200a0fca:	4fd8                	lw	a4,28(a5)
200a0fcc:	40a77533          	andn	a0,a4,a0
200a0fd0:	cfc8                	sw	a0,28(a5)
200a0fd2:	8082                	ret

200a0fd4 <RCC_HB1PeriphClockCmd>:
200a0fd4:	c599                	beqz	a1,200a0fe2 <RCC_HB1PeriphClockCmd+0xe>
200a0fd6:	40021737          	lui	a4,0x40021
200a0fda:	531c                	lw	a5,32(a4)
200a0fdc:	8fc9                	or	a5,a5,a0
200a0fde:	d31c                	sw	a5,32(a4)
200a0fe0:	8082                	ret
200a0fe2:	400217b7          	lui	a5,0x40021
200a0fe6:	5398                	lw	a4,32(a5)
200a0fe8:	40a77533          	andn	a0,a4,a0
200a0fec:	d388                	sw	a0,32(a5)
200a0fee:	8082                	ret

200a0ff0 <RCC_HBPeriphResetCmd>:
200a0ff0:	c599                	beqz	a1,200a0ffe <RCC_HBPeriphResetCmd+0xe>
200a0ff2:	40021737          	lui	a4,0x40021
200a0ff6:	575c                	lw	a5,44(a4)
200a0ff8:	8fc9                	or	a5,a5,a0
200a0ffa:	d75c                	sw	a5,44(a4)
200a0ffc:	8082                	ret
200a0ffe:	400217b7          	lui	a5,0x40021
200a1002:	57d8                	lw	a4,44(a5)
200a1004:	40a77533          	andn	a0,a4,a0
200a1008:	d7c8                	sw	a0,44(a5)
200a100a:	8082                	ret

200a100c <USART_Init>:
200a100c:	a78ff2ef          	jal	t0,200a0284 <__riscv_save_0>
200a1010:	259e                	lhu	a5,8(a1)
200a1012:	777d                	lui	a4,0xfffff
200a1014:	66bd                	lui	a3,0xf
200a1016:	8f7d                	and	a4,a4,a5
200a1018:	1141                	addi	sp,sp,-16
200a101a:	842a                	mv	s0,a0
200a101c:	84ae                	mv	s1,a1
200a101e:	00d71b63          	bne	a4,a3,200a1034 <USART_Init+0x28>
200a1022:	2d5a                	lhu	a4,28(a0)
200a1024:	8bb1                	andi	a5,a5,12
200a1026:	08074733          	zext.h	a4,a4
200a102a:	9b4d                	andi	a4,a4,-13
200a102c:	8fd9                	or	a5,a5,a4
200a102e:	ad5e                	sh	a5,28(a0)
200a1030:	00059423          	sh	zero,8(a1)
200a1034:	281a                	lhu	a4,16(s0)
200a1036:	77f5                	lui	a5,0xffffd
200a1038:	17fd                	addi	a5,a5,-1 # ffffcfff <_eusrstack+0xdfefcfff>
200a103a:	8f7d                	and	a4,a4,a5
200a103c:	20fe                	lhu	a5,6(s1)
200a103e:	850a                	mv	a0,sp
200a1040:	8fd9                	or	a5,a5,a4
200a1042:	a81e                	sh	a5,16(s0)
200a1044:	245a                	lhu	a4,12(s0)
200a1046:	678d                	lui	a5,0x3
200a1048:	9f378793          	addi	a5,a5,-1549 # 29f3 <__stack_size+0x21f3>
200a104c:	8f7d                	and	a4,a4,a5
200a104e:	20de                	lhu	a5,4(s1)
200a1050:	8fd9                	or	a5,a5,a4
200a1052:	249a                	lhu	a4,8(s1)
200a1054:	8fd9                	or	a5,a5,a4
200a1056:	24ba                	lhu	a4,10(s1)
200a1058:	8fd9                	or	a5,a5,a4
200a105a:	a45e                	sh	a5,12(s0)
200a105c:	285e                	lhu	a5,20(s0)
200a105e:	24da                	lhu	a4,12(s1)
200a1060:	0807c7b3          	zext.h	a5,a5
200a1064:	cff7f793          	andi	a5,a5,-769
200a1068:	8fd9                	or	a5,a5,a4
200a106a:	a85e                	sh	a5,20(s0)
200a106c:	3349                	jal	200a0dee <RCC_GetClocksFreq>
200a106e:	4792                	lw	a5,4(sp)
200a1070:	4565                	li	a0,25
200a1072:	4090                	lw	a2,0(s1)
200a1074:	02f535b3          	mulhu	a1,a0,a5
200a1078:	4681                	li	a3,0
200a107a:	060a                	slli	a2,a2,0x2
200a107c:	02f50533          	mul	a0,a0,a5
200a1080:	7d6010ef          	jal	ra,200a2856 <__udivdi3>
200a1084:	06400693          	li	a3,100
200a1088:	02d557b3          	divu	a5,a0,a3
200a108c:	63f00613          	li	a2,1599
200a1090:	00479713          	slli	a4,a5,0x4
200a1094:	02d577b3          	remu	a5,a0,a3
200a1098:	0792                	slli	a5,a5,0x4
200a109a:	03278793          	addi	a5,a5,50
200a109e:	00f67a63          	bgeu	a2,a5,200a10b2 <USART_Init+0xa6>
200a10a2:	01070793          	addi	a5,a4,16 # fffff010 <_eusrstack+0xdfeff010>
200a10a6:	0807c7b3          	zext.h	a5,a5
200a10aa:	a41e                	sh	a5,8(s0)
200a10ac:	0141                	addi	sp,sp,16
200a10ae:	9faff06f          	j	200a02a8 <__riscv_restore_0>
200a10b2:	02d7d7b3          	divu	a5,a5,a3
200a10b6:	8fd9                	or	a5,a5,a4
200a10b8:	b7fd                	j	200a10a6 <USART_Init+0x9a>

200a10ba <USART_Cmd>:
200a10ba:	255e                	lhu	a5,12(a0)
200a10bc:	c589                	beqz	a1,200a10c6 <USART_Cmd+0xc>
200a10be:	28d79793          	bseti	a5,a5,0xd
200a10c2:	a55e                	sh	a5,12(a0)
200a10c4:	8082                	ret
200a10c6:	7779                	lui	a4,0xffffe
200a10c8:	177d                	addi	a4,a4,-1 # ffffdfff <_eusrstack+0xdfefdfff>
200a10ca:	8ff9                	and	a5,a5,a4
200a10cc:	bfdd                	j	200a10c2 <USART_Cmd+0x8>

200a10ce <USART_SendData>:
200a10ce:	1ff5f593          	andi	a1,a1,511
200a10d2:	a14e                	sh	a1,4(a0)
200a10d4:	8082                	ret

200a10d6 <USART_GetFlagStatus>:
200a10d6:	210a                	lhu	a0,0(a0)
200a10d8:	8d6d                	and	a0,a0,a1
200a10da:	00a03533          	snez	a0,a0
200a10de:	8082                	ret

200a10e0 <Delay_Init>:
200a10e0:	8dc1a783          	lw	a5,-1828(gp) # 200c04bc <HCLKClock>
200a10e4:	000f4737          	lui	a4,0xf4
200a10e8:	24070713          	addi	a4,a4,576 # f4240 <_data_lma+0xab8d8>
200a10ec:	02e7d7b3          	divu	a5,a5,a4
200a10f0:	8ef19223          	sh	a5,-1820(gp) # 200c04c4 <p_us>
200a10f4:	3e800713          	li	a4,1000
200a10f8:	02e787b3          	mul	a5,a5,a4
200a10fc:	8ef1a023          	sw	a5,-1824(gp) # 200c04c0 <p_ms>
200a1100:	8082                	ret

200a1102 <Delay_Us>:
200a1102:	e000f7b7          	lui	a5,0xe000f
200a1106:	43d8                	lw	a4,4(a5)
200a1108:	9b75                	andi	a4,a4,-3
200a110a:	c3d8                	sw	a4,4(a5)
200a110c:	8e41d703          	lhu	a4,-1820(gp) # 200c04c4 <p_us>
200a1110:	08078793          	addi	a5,a5,128 # e000f080 <_eusrstack+0xbff0f080>
200a1114:	0007a423          	sw	zero,8(a5)
200a1118:	02a70733          	mul	a4,a4,a0
200a111c:	cb98                	sw	a4,16(a5)
200a111e:	4711                	li	a4,4
200a1120:	c398                	sw	a4,0(a5)
200a1122:	4398                	lw	a4,0(a5)
200a1124:	00176713          	ori	a4,a4,1
200a1128:	c398                	sw	a4,0(a5)
200a112a:	e000f7b7          	lui	a5,0xe000f
200a112e:	43d8                	lw	a4,4(a5)
200a1130:	8b09                	andi	a4,a4,2
200a1132:	df75                	beqz	a4,200a112e <Delay_Us+0x2c>
200a1134:	08078793          	addi	a5,a5,128 # e000f080 <_eusrstack+0xbff0f080>
200a1138:	4398                	lw	a4,0(a5)
200a113a:	9b79                	andi	a4,a4,-2
200a113c:	c398                	sw	a4,0(a5)
200a113e:	8082                	ret

200a1140 <Delay_Ms>:
200a1140:	e000f7b7          	lui	a5,0xe000f
200a1144:	43d8                	lw	a4,4(a5)
200a1146:	9b75                	andi	a4,a4,-3
200a1148:	c3d8                	sw	a4,4(a5)
200a114a:	8e01a703          	lw	a4,-1824(gp) # 200c04c0 <p_ms>
200a114e:	08078793          	addi	a5,a5,128 # e000f080 <_eusrstack+0xbff0f080>
200a1152:	0007a423          	sw	zero,8(a5)
200a1156:	02e50533          	mul	a0,a0,a4
200a115a:	4711                	li	a4,4
200a115c:	cb88                	sw	a0,16(a5)
200a115e:	c398                	sw	a4,0(a5)
200a1160:	4398                	lw	a4,0(a5)
200a1162:	00176713          	ori	a4,a4,1
200a1166:	c398                	sw	a4,0(a5)
200a1168:	e000f7b7          	lui	a5,0xe000f
200a116c:	43d8                	lw	a4,4(a5)
200a116e:	8b09                	andi	a4,a4,2
200a1170:	df75                	beqz	a4,200a116c <Delay_Ms+0x2c>
200a1172:	08078793          	addi	a5,a5,128 # e000f080 <_eusrstack+0xbff0f080>
200a1176:	4398                	lw	a4,0(a5)
200a1178:	9b79                	andi	a4,a4,-2
200a117a:	c398                	sw	a4,0(a5)
200a117c:	8082                	ret

200a117e <USART_Printf_Init>:
200a117e:	906ff2ef          	jal	t0,200a0284 <__riscv_save_0>
200a1182:	1101                	addi	sp,sp,-32
200a1184:	842a                	mv	s0,a0
200a1186:	4585                	li	a1,1
200a1188:	4525                	li	a0,9
200a118a:	c202                	sw	zero,4(sp)
200a118c:	c402                	sw	zero,8(sp)
200a118e:	c602                	sw	zero,12(sp)
200a1190:	c802                	sw	zero,16(sp)
200a1192:	ca02                	sw	zero,20(sp)
200a1194:	cc02                	sw	zero,24(sp)
200a1196:	ce02                	sw	zero,28(sp)
200a1198:	3505                	jal	200a0fb8 <RCC_HB2PeriphClockCmd>
200a119a:	4585                	li	a1,1
200a119c:	10000513          	li	a0,256
200a11a0:	3d15                	jal	200a0fd4 <RCC_HB1PeriphClockCmd>
200a11a2:	400114b7          	lui	s1,0x40011
200a11a6:	462d                	li	a2,11
200a11a8:	c0048513          	addi	a0,s1,-1024 # 40010c00 <_eusrstack+0x1ff10c00>
200a11ac:	4591                	li	a1,4
200a11ae:	a59ff0ef          	jal	ra,200a0c06 <GPIO_PinAFConfig>
200a11b2:	47c1                	li	a5,16
200a11b4:	827c                	sh	a5,4(sp)
200a11b6:	478d                	li	a5,3
200a11b8:	c43e                	sw	a5,8(sp)
200a11ba:	004c                	addi	a1,sp,4
200a11bc:	47e1                	li	a5,24
200a11be:	c0048513          	addi	a0,s1,-1024
200a11c2:	c63e                	sw	a5,12(sp)
200a11c4:	959ff0ef          	jal	ra,200a0b1c <GPIO_Init>
200a11c8:	000807b7          	lui	a5,0x80
200a11cc:	080c                	addi	a1,sp,16
200a11ce:	40002537          	lui	a0,0x40002
200a11d2:	cc3e                	sw	a5,24(sp)
200a11d4:	c822                	sw	s0,16(sp)
200a11d6:	ca02                	sw	zero,20(sp)
200a11d8:	00011e23          	sh	zero,28(sp)
200a11dc:	3d05                	jal	200a100c <USART_Init>
200a11de:	4585                	li	a1,1
200a11e0:	40002537          	lui	a0,0x40002
200a11e4:	3dd9                	jal	200a10ba <USART_Cmd>
200a11e6:	6105                	addi	sp,sp,32
200a11e8:	8c0ff06f          	j	200a02a8 <__riscv_restore_0>

200a11ec <_write>:
200a11ec:	898ff2ef          	jal	t0,200a0284 <__riscv_save_0>
200a11f0:	892e                	mv	s2,a1
200a11f2:	8432                	mv	s0,a2
200a11f4:	4481                	li	s1,0
200a11f6:	0084c563          	blt	s1,s0,200a1200 <_write+0x14>
200a11fa:	8522                	mv	a0,s0
200a11fc:	8acff06f          	j	200a02a8 <__riscv_restore_0>
200a1200:	04000593          	li	a1,64
200a1204:	40002537          	lui	a0,0x40002
200a1208:	35f9                	jal	200a10d6 <USART_GetFlagStatus>
200a120a:	d97d                	beqz	a0,200a1200 <_write+0x14>
200a120c:	009907b3          	add	a5,s2,s1
200a1210:	00078583          	lb	a1,0(a5) # 80000 <_data_lma+0x37698>
200a1214:	40002537          	lui	a0,0x40002
200a1218:	0485                	addi	s1,s1,1
200a121a:	0805c5b3          	zext.h	a1,a1
200a121e:	3d45                	jal	200a10ce <USART_SendData>
200a1220:	bfd9                	j	200a11f6 <_write+0xa>

200a1222 <_sbrk>:
200a1222:	200c06b7          	lui	a3,0x200c0
200a1226:	87aa                	mv	a5,a0
200a1228:	3f46a503          	lw	a0,1012(a3) # 200c03f4 <curbrk.0>
200a122c:	48818713          	addi	a4,gp,1160 # 200c1068 <_ebss>
200a1230:	97aa                	add	a5,a5,a0
200a1232:	00e7eb63          	bltu	a5,a4,200a1248 <_sbrk+0x26>
200a1236:	20100737          	lui	a4,0x20100
200a123a:	80070713          	addi	a4,a4,-2048 # 200ff800 <_heap_end>
200a123e:	00f76563          	bltu	a4,a5,200a1248 <_sbrk+0x26>
200a1242:	3ef6aa23          	sw	a5,1012(a3)
200a1246:	8082                	ret
200a1248:	557d                	li	a0,-1
200a124a:	8082                	ret

200a124c <DVP_Function_Init>:
200a124c:	838ff2ef          	jal	t0,200a0284 <__riscv_save_0>
200a1250:	7179                	addi	sp,sp,-48
200a1252:	02400613          	li	a2,36
200a1256:	4581                	li	a1,0
200a1258:	0068                	addi	a0,sp,12
200a125a:	85aff0ef          	jal	ra,200a02b4 <memset>
200a125e:	4585                	li	a1,1
200a1260:	6509                	lui	a0,0x2
200a1262:	3b2d                	jal	200a0f9c <RCC_HBPeriphClockCmd>
200a1264:	f80ff0ef          	jal	ra,200a09e4 <DVP_DeInit>
200a1268:	14000793          	li	a5,320
200a126c:	877c                	sh	a5,14(sp)
200a126e:	8401a783          	lw	a5,-1984(gp) # 200c0420 <JPEG_DVPDMAaddr0>
200a1272:	0068                	addi	a0,sp,12
200a1274:	c83e                	sw	a5,16(sp)
200a1276:	200c07b7          	lui	a5,0x200c0
200a127a:	4007a783          	lw	a5,1024(a5) # 200c0400 <JPEG_DVPDMAaddr1>
200a127e:	ca3e                	sw	a5,20(sp)
200a1280:	020007b7          	lui	a5,0x2000
200a1284:	d03e                	sw	a5,32(sp)
200a1286:	f8000793          	li	a5,-128
200a128a:	02f10223          	sb	a5,36(sp)
200a128e:	4785                	li	a5,1
200a1290:	d63e                	sw	a5,44(sp)
200a1292:	f66ff0ef          	jal	ra,200a09f8 <DVP_Init>
200a1296:	4501                	li	a0,0
200a1298:	805ff0ef          	jal	ra,200a0a9c <DVP_ReceiveCircuitResetCmd>
200a129c:	4501                	li	a0,0
200a129e:	81bff0ef          	jal	ra,200a0ab8 <DVP_FIFO_ResetCmd>
200a12a2:	e000e7b7          	lui	a5,0xe000e
200a12a6:	01000737          	lui	a4,0x1000
200a12aa:	10e7a623          	sw	a4,268(a5) # e000e10c <_eusrstack+0xbff0e10c>
200a12ae:	46078c23          	sb	zero,1144(a5)
200a12b2:	4585                	li	a1,1
200a12b4:	457d                	li	a0,31
200a12b6:	81fff0ef          	jal	ra,200a0ad4 <DVP_ITConfig>
200a12ba:	4505                	li	a0,1
200a12bc:	fc4ff0ef          	jal	ra,200a0a80 <DVP_DMACmd>
200a12c0:	4505                	li	a0,1
200a12c2:	fa4ff0ef          	jal	ra,200a0a66 <DVP_Cmd>
200a12c6:	6145                	addi	sp,sp,48
200a12c8:	fe1fe06f          	j	200a02a8 <__riscv_restore_0>

200a12cc <dvp_restart>:
200a12cc:	8401a703          	lw	a4,-1984(gp) # 200c0420 <JPEG_DVPDMAaddr0>
200a12d0:	400267b7          	lui	a5,0x40026
200a12d4:	80078793          	addi	a5,a5,-2048 # 40025800 <_eusrstack+0x1ff25800>
200a12d8:	c798                	sw	a4,8(a5)
200a12da:	200c0737          	lui	a4,0x200c0
200a12de:	40072703          	lw	a4,1024(a4) # 200c0400 <JPEG_DVPDMAaddr1>
200a12e2:	4505                	li	a0,1
200a12e4:	c7d8                	sw	a4,12(a5)
200a12e6:	8e01a823          	sw	zero,-1808(gp) # 200c04d0 <href_cnt>
200a12ea:	8e01aa23          	sw	zero,-1804(gp) # 200c04d4 <addr_cnt>
200a12ee:	8e01a623          	sw	zero,-1812(gp) # 200c04cc <frame_ready>
200a12f2:	f74ff06f          	j	200a0a66 <DVP_Cmd>

200a12f6 <Hardware>:
200a12f6:	f8ffe2ef          	jal	t0,200a0284 <__riscv_save_0>
200a12fa:	40011437          	lui	s0,0x40011
200a12fe:	c0040413          	addi	s0,s0,-1024 # 40010c00 <_eusrstack+0x1ff10c00>
200a1302:	4905                	li	s2,1
200a1304:	4489                	li	s1,2
200a1306:	01242823          	sw	s2,16(s0)
200a130a:	06400513          	li	a0,100
200a130e:	c804                	sw	s1,16(s0)
200a1310:	3d05                	jal	200a1140 <Delay_Ms>
200a1312:	c844                	sw	s1,20(s0)
200a1314:	1f400513          	li	a0,500
200a1318:	01242a23          	sw	s2,20(s0)
200a131c:	3515                	jal	200a1140 <Delay_Ms>
200a131e:	06400513          	li	a0,100
200a1322:	01242823          	sw	s2,16(s0)
200a1326:	3d29                	jal	200a1140 <Delay_Ms>
200a1328:	06400513          	li	a0,100
200a132c:	c804                	sw	s1,16(s0)
200a132e:	3d09                	jal	200a1140 <Delay_Ms>
200a1330:	6b1000ef          	jal	ra,200a21e0 <OV2640_Init>
200a1334:	e10d                	bnez	a0,200a1356 <Hardware+0x60>
200a1336:	3e800513          	li	a0,1000
200a133a:	3519                	jal	200a1140 <Delay_Ms>
200a133c:	072010ef          	jal	ra,200a23ae <RGB565_Mode_Init>
200a1340:	3e800513          	li	a0,1000
200a1344:	3bf5                	jal	200a1140 <Delay_Ms>
200a1346:	088010ef          	jal	ra,200a23ce <JPEG_Mode_Init>
200a134a:	3e800513          	li	a0,1000
200a134e:	3bcd                	jal	200a1140 <Delay_Ms>
200a1350:	3df5                	jal	200a124c <DVP_Function_Init>
200a1352:	f57fe06f          	j	200a02a8 <__riscv_restore_0>
200a1356:	3e800513          	li	a0,1000
200a135a:	bfd1                	j	200a132e <Hardware+0x38>

200a135c <inference_init>:
200a135c:	ef9fe2ef          	jal	t0,200a0254 <__riscv_save_12>
200a1360:	00048a37          	lui	s4,0x48
200a1364:	1141                	addi	sp,sp,-16
200a1366:	2d8a0793          	addi	a5,s4,728 # 482d8 <bn_gamma>
200a136a:	c43e                	sw	a5,8(sp)
200a136c:	8681a783          	lw	a5,-1944(gp) # 200c0448 <_impure_ptr+0x10>
200a1370:	00048ab7          	lui	s5,0x48
200a1374:	00048bb7          	lui	s7,0x48
200a1378:	00048c37          	lui	s8,0x48
200a137c:	00048cb7          	lui	s9,0x48
200a1380:	00048d37          	lui	s10,0x48
200a1384:	4401                	li	s0,0
200a1386:	496d                	li	s2,27
200a1388:	278a8a93          	addi	s5,s5,632 # 48278 <bn_var>
200a138c:	c63e                	sw	a5,12(sp)
200a138e:	95418b13          	addi	s6,gp,-1708 # 200c0534 <b_fused>
200a1392:	2f8b8b93          	addi	s7,s7,760 # 482f8 <b_conv>
200a1396:	298c0c13          	addi	s8,s8,664 # 48298 <bn_mean>
200a139a:	2b8c8c93          	addi	s9,s9,696 # 482b8 <bn_beta>
200a139e:	318d0d13          	addi	s10,s10,792 # 48318 <w_conv>
200a13a2:	47a2                	lw	a5,8(sp)
200a13a4:	45b2                	lw	a1,12(sp)
200a13a6:	97a2                	add	a5,a5,s0
200a13a8:	4384                	lw	s1,0(a5)
200a13aa:	015407b3          	add	a5,s0,s5
200a13ae:	4388                	lw	a0,0(a5)
200a13b0:	041010ef          	jal	ra,200a2bf0 <__addsf3>
200a13b4:	0a0010ef          	jal	ra,200a2454 <sqrtf>
200a13b8:	85aa                	mv	a1,a0
200a13ba:	8526                	mv	a0,s1
200a13bc:	38d010ef          	jal	ra,200a2f48 <__divsf3>
200a13c0:	017407b3          	add	a5,s0,s7
200a13c4:	018406b3          	add	a3,s0,s8
200a13c8:	428c                	lw	a1,0(a3)
200a13ca:	c22a                	sw	a0,4(sp)
200a13cc:	4388                	lw	a0,0(a5)
200a13ce:	016404b3          	add	s1,s0,s6
200a13d2:	228020ef          	jal	ra,200a35fa <__subsf3>
200a13d6:	4592                	lw	a1,4(sp)
200a13d8:	75d010ef          	jal	ra,200a3334 <__mulsf3>
200a13dc:	019407b3          	add	a5,s0,s9
200a13e0:	438c                	lw	a1,0(a5)
200a13e2:	00f010ef          	jal	ra,200a2bf0 <__addsf3>
200a13e6:	200c0637          	lui	a2,0x200c0
200a13ea:	c088                	sw	a0,0(s1)
200a13ec:	55460613          	addi	a2,a2,1364 # 200c0554 <w_fused>
200a13f0:	fe590493          	addi	s1,s2,-27 # 2015ffe5 <_eusrstack+0x5ffe5>
200a13f4:	4d81                	li	s11,0
200a13f6:	21a4ca33          	sh2add	s4,s1,s10
200a13fa:	20c4c9b3          	sh2add	s3,s1,a2
200a13fe:	4592                	lw	a1,4(sp)
200a1400:	000a2503          	lw	a0,0(s4)
200a1404:	0d85                	addi	s11,s11,1
200a1406:	0a31                	addi	s4,s4,12
200a1408:	72d010ef          	jal	ra,200a3334 <__mulsf3>
200a140c:	00a9a023          	sw	a0,0(s3)
200a1410:	4592                	lw	a1,4(sp)
200a1412:	ff8a2503          	lw	a0,-8(s4)
200a1416:	09b1                	addi	s3,s3,12
200a1418:	71d010ef          	jal	ra,200a3334 <__mulsf3>
200a141c:	fea9ac23          	sw	a0,-8(s3)
200a1420:	4592                	lw	a1,4(sp)
200a1422:	ffca2503          	lw	a0,-4(s4)
200a1426:	70f010ef          	jal	ra,200a3334 <__mulsf3>
200a142a:	200c07b7          	lui	a5,0x200c0
200a142e:	fea9ae23          	sw	a0,-4(s3)
200a1432:	480d                	li	a6,3
200a1434:	55478613          	addi	a2,a5,1364 # 200c0554 <w_fused>
200a1438:	fd0d93e3          	bne	s11,a6,200a13fe <inference_init+0xa2>
200a143c:	04a5                	addi	s1,s1,9
200a143e:	fb249be3          	bne	s1,s2,200a13f4 <inference_init+0x98>
200a1442:	01b48913          	addi	s2,s1,27
200a1446:	0f300793          	li	a5,243
200a144a:	0411                	addi	s0,s0,4
200a144c:	f4f91be3          	bne	s2,a5,200a13a2 <inference_init+0x46>
200a1450:	0141                	addi	sp,sp,16
200a1452:	e3ffe06f          	j	200a0290 <__riscv_restore_12>

200a1456 <inference_run>:
200a1456:	dfffe2ef          	jal	t0,200a0254 <__riscv_save_12>
200a145a:	200c07b7          	lui	a5,0x200c0
200a145e:	7179                	addi	sp,sp,-48
200a1460:	55478793          	addi	a5,a5,1364 # 200c0554 <w_fused>
200a1464:	c63e                	sw	a5,12(sp)
200a1466:	18050793          	addi	a5,a0,384 # 2180 <__stack_size+0x1980>
200a146a:	842e                	mv	s0,a1
200a146c:	95418b93          	addi	s7,gp,-1708 # 200c0534 <b_fused>
200a1470:	4a81                	li	s5,0
200a1472:	02000a13          	li	s4,32
200a1476:	c83e                	sw	a5,16(sp)
200a1478:	4d21                	li	s10,8
200a147a:	47ed                	li	a5,27
200a147c:	02fa87b3          	mul	a5,s5,a5
200a1480:	00aa9b13          	slli	s6,s5,0xa
200a1484:	4981                	li	s3,0
200a1486:	c43e                	sw	a5,8(sp)
200a1488:	a06d                	j	200a1532 <inference_run+0xdc>
200a148a:	0891                	addi	a7,a7,4
200a148c:	47fd                	li	a5,31
200a148e:	0507ec63          	bltu	a5,a6,200a14e6 <inference_run+0x90>
200a1492:	57fd                	li	a5,-1
200a1494:	00f91563          	bne	s2,a5,200a149e <inference_run+0x48>
200a1498:	0891                	addi	a7,a7,4
200a149a:	4901                	li	s2,0
200a149c:	bfc5                	j	200a148c <inference_run+0x36>
200a149e:	05490463          	beq	s2,s4,200a14e6 <inference_run+0x90>
200a14a2:	18000793          	li	a5,384
200a14a6:	02f80533          	mul	a0,a6,a5
200a14aa:	47b1                	li	a5,12
200a14ac:	d61e                	sw	t2,44(sp)
200a14ae:	d47e                	sw	t6,40(sp)
200a14b0:	d27a                	sw	t5,36(sp)
200a14b2:	d01a                	sw	t1,32(sp)
200a14b4:	ce42                	sw	a6,28(sp)
200a14b6:	cc16                	sw	t0,24(sp)
200a14b8:	ca46                	sw	a7,20(sp)
200a14ba:	02f905b3          	mul	a1,s2,a5
200a14be:	9516                	add	a0,a0,t0
200a14c0:	952e                	add	a0,a0,a1
200a14c2:	e8052503          	lw	a0,-384(a0)
200a14c6:	0008a583          	lw	a1,0(a7)
200a14ca:	66b010ef          	jal	ra,200a3334 <__mulsf3>
200a14ce:	85aa                	mv	a1,a0
200a14d0:	8526                	mv	a0,s1
200a14d2:	71e010ef          	jal	ra,200a2bf0 <__addsf3>
200a14d6:	53b2                	lw	t2,44(sp)
200a14d8:	5fa2                	lw	t6,40(sp)
200a14da:	5f12                	lw	t5,36(sp)
200a14dc:	5302                	lw	t1,32(sp)
200a14de:	4872                	lw	a6,28(sp)
200a14e0:	42e2                	lw	t0,24(sp)
200a14e2:	48d2                	lw	a7,20(sp)
200a14e4:	84aa                	mv	s1,a0
200a14e6:	0905                	addi	s2,s2,1
200a14e8:	fa7911e3          	bne	s2,t2,200a148a <inference_run+0x34>
200a14ec:	0805                	addi	a6,a6,1
200a14ee:	0f0d                	addi	t5,t5,3
200a14f0:	01b80863          	beq	a6,s11,200a1500 <inference_run+0xaa>
200a14f4:	47b2                	lw	a5,12(sp)
200a14f6:	fffc0913          	addi	s2,s8,-1
200a14fa:	20ff48b3          	sh2add	a7,t5,a5
200a14fe:	b779                	j	200a148c <inference_run+0x36>
200a1500:	0305                	addi	t1,t1,1 # 20120001 <_eusrstack+0x20001>
200a1502:	478d                	li	a5,3
200a1504:	0fa5                	addi	t6,t6,9
200a1506:	04f31363          	bne	t1,a5,200a154c <inference_run+0xf6>
200a150a:	00000593          	li	a1,0
200a150e:	8526                	mv	a0,s1
200a1510:	4f7010ef          	jal	ra,200a3206 <__gesf2>
200a1514:	00a04463          	bgtz	a0,200a151c <inference_run+0xc6>
200a1518:	00000493          	li	s1,0
200a151c:	009ca023          	sw	s1,0(s9)
200a1520:	0c05                	addi	s8,s8,1
200a1522:	0c91                	addi	s9,s9,4
200a1524:	014c1e63          	bne	s8,s4,200a1540 <inference_run+0xea>
200a1528:	0985                	addi	s3,s3,1
200a152a:	020b0b13          	addi	s6,s6,32
200a152e:	03898663          	beq	s3,s8,200a155a <inference_run+0x104>
200a1532:	201307b7          	lui	a5,0x20130
200a1536:	4c01                	li	s8,0
200a1538:	00298d93          	addi	s11,s3,2
200a153c:	20fb4cb3          	sh2add	s9,s6,a5
200a1540:	000ba483          	lw	s1,0(s7)
200a1544:	4fa2                	lw	t6,8(sp)
200a1546:	4301                	li	t1,0
200a1548:	002c0393          	addi	t2,s8,2
200a154c:	47c2                	lw	a5,16(sp)
200a154e:	fff98813          	addi	a6,s3,-1
200a1552:	8f7e                	mv	t5,t6
200a1554:	20f342b3          	sh2add	t0,t1,a5
200a1558:	bf71                	j	200a14f4 <inference_run+0x9e>
200a155a:	0a85                	addi	s5,s5,1
200a155c:	0b91                	addi	s7,s7,4
200a155e:	f1aa9ee3          	bne	s5,s10,200a147a <inference_run+0x24>
200a1562:	86c1a883          	lw	a7,-1940(gp) # 200c044c <_impure_ptr+0x14>
200a1566:	4901                	li	s2,0
200a1568:	20150837          	lui	a6,0x20150
200a156c:	20130637          	lui	a2,0x20130
200a1570:	00491a13          	slli	s4,s2,0x4
200a1574:	00591713          	slli	a4,s2,0x5
200a1578:	4481                	li	s1,0
200a157a:	a88d                	j	200a15ec <inference_run+0x196>
200a157c:	000da783          	lw	a5,0(s11)
200a1580:	85e2                	mv	a1,s8
200a1582:	c876                	sw	t4,16(sp)
200a1584:	853e                	mv	a0,a5
200a1586:	c63a                	sw	a4,12(sp)
200a1588:	c43e                	sw	a5,8(sp)
200a158a:	47d010ef          	jal	ra,200a3206 <__gesf2>
200a158e:	4732                	lw	a4,12(sp)
200a1590:	4ec2                	lw	t4,16(sp)
200a1592:	86c1a883          	lw	a7,-1940(gp) # 200c044c <_impure_ptr+0x14>
200a1596:	4691                	li	a3,4
200a1598:	20130637          	lui	a2,0x20130
200a159c:	20150837          	lui	a6,0x20150
200a15a0:	10000313          	li	t1,256
200a15a4:	02000e13          	li	t3,32
200a15a8:	00a05463          	blez	a0,200a15b0 <inference_run+0x15a>
200a15ac:	47a2                	lw	a5,8(sp)
200a15ae:	8c3e                	mv	s8,a5
200a15b0:	0985                	addi	s3,s3,1
200a15b2:	0d91                	addi	s11,s11,4
200a15b4:	fcd994e3          	bne	s3,a3,200a157c <inference_run+0x126>
200a15b8:	0c85                	addi	s9,s9,1
200a15ba:	020d0d13          	addi	s10,s10,32
200a15be:	013c8663          	beq	s9,s3,200a15ca <inference_run+0x174>
200a15c2:	4981                	li	s3,0
200a15c4:	21dd4db3          	sh2add	s11,s10,t4
200a15c8:	bf55                	j	200a157c <inference_run+0x126>
200a15ca:	018ba023          	sw	s8,0(s7)
200a15ce:	020a8a93          	addi	s5,s5,32
200a15d2:	0b91                	addi	s7,s7,4
200a15d4:	400b0b13          	addi	s6,s6,1024
200a15d8:	006a8663          	beq	s5,t1,200a15e4 <inference_run+0x18e>
200a15dc:	8d5a                	mv	s10,s6
200a15de:	4c81                	li	s9,0
200a15e0:	8c46                	mv	s8,a7
200a15e2:	b7c5                	j	200a15c2 <inference_run+0x16c>
200a15e4:	0491                	addi	s1,s1,4
200a15e6:	0a21                	addi	s4,s4,8
200a15e8:	01c48963          	beq	s1,t3,200a15fa <inference_run+0x1a4>
200a15ec:	8b3a                	mv	s6,a4
200a15ee:	4a81                	li	s5,0
200a15f0:	210a4bb3          	sh2add	s7,s4,a6
200a15f4:	20c4ceb3          	sh2add	t4,s1,a2
200a15f8:	b7d5                	j	200a15dc <inference_run+0x186>
200a15fa:	0911                	addi	s2,s2,4
200a15fc:	f6991ae3          	bne	s2,s1,200a1570 <inference_run+0x11a>
200a1600:	00045937          	lui	s2,0x45
200a1604:	00045ab7          	lui	s5,0x45
200a1608:	20151b37          	lui	s6,0x20151
200a160c:	27890913          	addi	s2,s2,632 # 45278 <w_dense>
200a1610:	4481                	li	s1,0
200a1612:	260a8a93          	addi	s5,s5,608 # 45260 <b_dense>
200a1616:	800b0b13          	addi	s6,s6,-2048 # 20150800 <_eusrstack+0x50800>
200a161a:	28b01c93          	bseti	s9,zero,0xb
200a161e:	4c61                	li	s8,24
200a1620:	015487b3          	add	a5,s1,s5
200a1624:	0007a983          	lw	s3,0(a5) # 20130000 <_eusrstack+0x30000>
200a1628:	8bca                	mv	s7,s2
200a162a:	20150a37          	lui	s4,0x20150
200a162e:	000ba583          	lw	a1,0(s7)
200a1632:	000a2503          	lw	a0,0(s4) # 20150000 <_eusrstack+0x50000>
200a1636:	0a11                	addi	s4,s4,4
200a1638:	0b91                	addi	s7,s7,4
200a163a:	4fb010ef          	jal	ra,200a3334 <__mulsf3>
200a163e:	85aa                	mv	a1,a0
200a1640:	854e                	mv	a0,s3
200a1642:	5ae010ef          	jal	ra,200a2bf0 <__addsf3>
200a1646:	89aa                	mv	s3,a0
200a1648:	ff6a13e3          	bne	s4,s6,200a162e <inference_run+0x1d8>
200a164c:	009407b3          	add	a5,s0,s1
200a1650:	c388                	sw	a0,0(a5)
200a1652:	0491                	addi	s1,s1,4
200a1654:	9966                	add	s2,s2,s9
200a1656:	fd8495e3          	bne	s1,s8,200a1620 <inference_run+0x1ca>
200a165a:	00042a03          	lw	s4,0(s0)
200a165e:	00440913          	addi	s2,s0,4
200a1662:	84a2                	mv	s1,s0
200a1664:	01840993          	addi	s3,s0,24
200a1668:	00092a83          	lw	s5,0(s2)
200a166c:	85d2                	mv	a1,s4
200a166e:	8556                	mv	a0,s5
200a1670:	397010ef          	jal	ra,200a3206 <__gesf2>
200a1674:	00a05363          	blez	a0,200a167a <inference_run+0x224>
200a1678:	8a56                	mv	s4,s5
200a167a:	0911                	addi	s2,s2,4
200a167c:	ff2996e3          	bne	s3,s2,200a1668 <inference_run+0x212>
200a1680:	00000913          	li	s2,0
200a1684:	4008                	lw	a0,0(s0)
200a1686:	85d2                	mv	a1,s4
200a1688:	0411                	addi	s0,s0,4
200a168a:	771010ef          	jal	ra,200a35fa <__subsf3>
200a168e:	561000ef          	jal	ra,200a23ee <expf>
200a1692:	fea42e23          	sw	a0,-4(s0)
200a1696:	85aa                	mv	a1,a0
200a1698:	854a                	mv	a0,s2
200a169a:	556010ef          	jal	ra,200a2bf0 <__addsf3>
200a169e:	892a                	mv	s2,a0
200a16a0:	fe8992e3          	bne	s3,s0,200a1684 <inference_run+0x22e>
200a16a4:	4088                	lw	a0,0(s1)
200a16a6:	85ca                	mv	a1,s2
200a16a8:	0491                	addi	s1,s1,4
200a16aa:	09f010ef          	jal	ra,200a2f48 <__divsf3>
200a16ae:	fea4ae23          	sw	a0,-4(s1)
200a16b2:	fe9999e3          	bne	s3,s1,200a16a4 <inference_run+0x24e>
200a16b6:	6145                	addi	sp,sp,48
200a16b8:	bd9fe06f          	j	200a0290 <__riscv_restore_12>

200a16bc <read_bit>:
200a16bc:	9081a783          	lw	a5,-1784(gp) # 200c04e8 <bit_cnt>
200a16c0:	ef8d                	bnez	a5,200a16fa <read_bit+0x3e>
200a16c2:	9041a783          	lw	a5,-1788(gp) # 200c04e4 <data_ptr>
200a16c6:	9001a583          	lw	a1,-1792(gp) # 200c04e0 <data_end>
200a16ca:	557d                	li	a0,-1
200a16cc:	06b7f563          	bgeu	a5,a1,200a1736 <read_bit+0x7a>
200a16d0:	2388                	lbu	a0,0(a5)
200a16d2:	00178613          	addi	a2,a5,1
200a16d6:	90a1a623          	sw	a0,-1780(gp) # 200c04ec <bit_buf>
200a16da:	90c1a223          	sw	a2,-1788(gp) # 200c04e4 <data_ptr>
200a16de:	0ff00813          	li	a6,255
200a16e2:	01051963          	bne	a0,a6,200a16f4 <read_bit+0x38>
200a16e6:	00b67763          	bgeu	a2,a1,200a16f4 <read_bit+0x38>
200a16ea:	3390                	lbu	a2,1(a5)
200a16ec:	e601                	bnez	a2,200a16f4 <read_bit+0x38>
200a16ee:	0789                	addi	a5,a5,2
200a16f0:	90f1a223          	sw	a5,-1788(gp) # 200c04e4 <data_ptr>
200a16f4:	47a1                	li	a5,8
200a16f6:	90f1a423          	sw	a5,-1784(gp) # 200c04e8 <bit_cnt>
200a16fa:	9081a783          	lw	a5,-1784(gp) # 200c04e8 <bit_cnt>
200a16fe:	17fd                	addi	a5,a5,-1
200a1700:	90f1a423          	sw	a5,-1784(gp) # 200c04e8 <bit_cnt>
200a1704:	90c1a503          	lw	a0,-1780(gp) # 200c04ec <bit_buf>
200a1708:	8fc1a703          	lw	a4,-1796(gp) # 200c04dc <entropy_bit_count>
200a170c:	48f55533          	bext	a0,a0,a5
200a1710:	47fd                	li	a5,31
200a1712:	00e7cf63          	blt	a5,a4,200a1730 <read_bit+0x74>
200a1716:	91418793          	addi	a5,gp,-1772 # 200c04f4 <jpeg_dec_bitstream>
200a171a:	40375693          	srai	a3,a4,0x3
200a171e:	96be                	add	a3,a3,a5
200a1720:	228c                	lbu	a1,0(a3)
200a1722:	fff74793          	not	a5,a4
200a1726:	8b9d                	andi	a5,a5,7
200a1728:	00f517b3          	sll	a5,a0,a5
200a172c:	8fcd                	or	a5,a5,a1
200a172e:	a29c                	sb	a5,0(a3)
200a1730:	0705                	addi	a4,a4,1
200a1732:	8ee1ae23          	sw	a4,-1796(gp) # 200c04dc <entropy_bit_count>
200a1736:	8082                	ret

200a1738 <read_bits>:
200a1738:	b4dfe2ef          	jal	t0,200a0284 <__riscv_save_0>
200a173c:	84aa                	mv	s1,a0
200a173e:	4901                	li	s2,0
200a1740:	4401                	li	s0,0
200a1742:	00994563          	blt	s2,s1,200a174c <read_bits+0x14>
200a1746:	8522                	mv	a0,s0
200a1748:	b61fe06f          	j	200a02a8 <__riscv_restore_0>
200a174c:	3f85                	jal	200a16bc <read_bit>
200a174e:	00054663          	bltz	a0,200a175a <read_bits+0x22>
200a1752:	0406                	slli	s0,s0,0x1
200a1754:	8c49                	or	s0,s0,a0
200a1756:	0905                	addi	s2,s2,1
200a1758:	b7ed                	j	200a1742 <read_bits+0xa>
200a175a:	547d                	li	s0,-1
200a175c:	b7ed                	j	200a1746 <read_bits+0xe>

200a175e <huff_decode>:
200a175e:	b0dfe2ef          	jal	t0,200a026a <__riscv_save_4>
200a1762:	842a                	mv	s0,a0
200a1764:	11450993          	addi	s3,a0,276
200a1768:	4905                	li	s2,1
200a176a:	4481                	li	s1,0
200a176c:	4a45                	li	s4,17
200a176e:	37b9                	jal	200a16bc <read_bit>
200a1770:	04054263          	bltz	a0,200a17b4 <huff_decode+0x56>
200a1774:	012407b3          	add	a5,s0,s2
200a1778:	239c                	lbu	a5,0(a5)
200a177a:	0486                	slli	s1,s1,0x1
200a177c:	8cc9                	or	s1,s1,a0
200a177e:	c785                	beqz	a5,200a17a6 <huff_decode+0x48>
200a1780:	0009d703          	lhu	a4,0(s3)
200a1784:	40f707b3          	sub	a5,a4,a5
200a1788:	0785                	addi	a5,a5,1
200a178a:	00f4ce63          	blt	s1,a5,200a17a6 <huff_decode+0x48>
200a178e:	00974c63          	blt	a4,s1,200a17a6 <huff_decode+0x48>
200a1792:	8c9d                	sub	s1,s1,a5
200a1794:	20894933          	sh2add	s2,s2,s0
200a1798:	13492783          	lw	a5,308(s2)
200a179c:	9426                	add	s0,s0,s1
200a179e:	943e                	add	s0,s0,a5
200a17a0:	3808                	lbu	a0,17(s0)
200a17a2:	afdfe06f          	j	200a029e <__riscv_restore_4>
200a17a6:	0905                	addi	s2,s2,1
200a17a8:	0989                	addi	s3,s3,2
200a17aa:	fd4912e3          	bne	s2,s4,200a176e <huff_decode+0x10>
200a17ae:	c1900513          	li	a0,-999
200a17b2:	bfc5                	j	200a17a2 <huff_decode+0x44>
200a17b4:	557d                	li	a0,-1
200a17b6:	b7f5                	j	200a17a2 <huff_decode+0x44>

200a17b8 <jpeg_dec_init>:
200a17b8:	acdfe2ef          	jal	t0,200a0284 <__riscv_save_0>
200a17bc:	2f800613          	li	a2,760
200a17c0:	4581                	li	a1,0
200a17c2:	ff018513          	addi	a0,gp,-16 # 200c0bd0 <dc_tab>
200a17c6:	aeffe0ef          	jal	ra,200a02b4 <memset>
200a17ca:	2f800613          	li	a2,760
200a17ce:	4581                	li	a1,0
200a17d0:	cf818513          	addi	a0,gp,-776 # 200c08d8 <ac_tab>
200a17d4:	ae1fe0ef          	jal	ra,200a02b4 <memset>
200a17d8:	4501                	li	a0,0
200a17da:	acffe06f          	j	200a02a8 <__riscv_restore_0>

200a17de <jpeg_dec_decode>:
200a17de:	a77fe2ef          	jal	t0,200a0254 <__riscv_save_12>
200a17e2:	00b507b3          	add	a5,a0,a1
200a17e6:	d7010113          	addi	sp,sp,-656
200a17ea:	c43e                	sw	a5,8(sp)
200a17ec:	4722                	lw	a4,8(sp)
200a17ee:	90a1a223          	sw	a0,-1788(gp) # 200c04e4 <data_ptr>
200a17f2:	4541                	li	a0,16
200a17f4:	90e1a023          	sw	a4,-1792(gp) # 200c04e0 <data_end>
200a17f8:	3781                	jal	200a1738 <read_bits>
200a17fa:	67c1                	lui	a5,0x10
200a17fc:	fd878793          	addi	a5,a5,-40 # ffd8 <__stack_size+0xf7d8>
200a1800:	06f50263          	beq	a0,a5,200a1864 <jpeg_dec_decode+0x86>
200a1804:	557d                	li	a0,-1
200a1806:	29010113          	addi	sp,sp,656
200a180a:	a87fe06f          	j	200a0290 <__riscv_restore_12>
200a180e:	4541                	li	a0,16
200a1810:	3725                	jal	200a1738 <read_bits>
200a1812:	4985                	li	s3,1
200a1814:	fea9d8e3          	bge	s3,a0,200a1804 <jpeg_dec_decode+0x26>
200a1818:	fc040793          	addi	a5,s0,-64
200a181c:	ffe50913          	addi	s2,a0,-2
200a1820:	08f49f63          	bne	s1,a5,200a18be <jpeg_dec_decode+0xe0>
200a1824:	4521                	li	a0,8
200a1826:	3f09                	jal	200a1738 <read_bits>
200a1828:	4541                	li	a0,16
200a182a:	3739                	jal	200a1738 <read_bits>
200a182c:	90a1ae23          	sw	a0,-1764(gp) # 200c04fc <jpeg_dec_height>
200a1830:	4541                	li	a0,16
200a1832:	3719                	jal	200a1738 <read_bits>
200a1834:	92a1a023          	sw	a0,-1760(gp) # 200c0500 <jpeg_dec_width>
200a1838:	4521                	li	a0,8
200a183a:	3dfd                	jal	200a1738 <read_bits>
200a183c:	90a1ac23          	sw	a0,-1768(gp) # 200c04f8 <jpeg_dec_num_components>
200a1840:	9975                	andi	a0,a0,-3
200a1842:	5d351d63          	bne	a0,s3,200a1e1c <jpeg_dec_decode+0x63e>
200a1846:	84a1a423          	sw	a0,-1976(gp) # 200c0428 <jpeg_dec_H_max>
200a184a:	84a1a223          	sw	a0,-1980(gp) # 200c0424 <jpeg_dec_V_max>
200a184e:	cec18913          	addi	s2,gp,-788 # 200c08cc <comp_qt>
200a1852:	47c18493          	addi	s1,gp,1148 # 200c105c <jpeg_dec_comp_h>
200a1856:	47018413          	addi	s0,gp,1136 # 200c1050 <jpeg_dec_comp_v>
200a185a:	4981                	li	s3,0
200a185c:	9181a783          	lw	a5,-1768(gp) # 200c04f8 <jpeg_dec_num_components>
200a1860:	02f9c163          	blt	s3,a5,200a1882 <jpeg_dec_decode+0xa4>
200a1864:	9041a783          	lw	a5,-1788(gp) # 200c04e4 <data_ptr>
200a1868:	4722                	lw	a4,8(sp)
200a186a:	00e7fa63          	bgeu	a5,a4,200a187e <jpeg_dec_decode+0xa0>
200a186e:	4541                	li	a0,16
200a1870:	35e1                	jal	200a1738 <read_bits>
200a1872:	6441                	lui	s0,0x10
200a1874:	fd940793          	addi	a5,s0,-39 # ffd9 <__stack_size+0xf7d9>
200a1878:	84aa                	mv	s1,a0
200a187a:	f8f51ae3          	bne	a0,a5,200a180e <jpeg_dec_decode+0x30>
200a187e:	4501                	li	a0,0
200a1880:	b759                	j	200a1806 <jpeg_dec_decode+0x28>
200a1882:	4521                	li	a0,8
200a1884:	3d55                	jal	200a1738 <read_bits>
200a1886:	4521                	li	a0,8
200a1888:	3d45                	jal	200a1738 <read_bits>
200a188a:	8481a703          	lw	a4,-1976(gp) # 200c0428 <jpeg_dec_H_max>
200a188e:	40455793          	srai	a5,a0,0x4
200a1892:	893d                	andi	a0,a0,15
200a1894:	c09c                	sw	a5,0(s1)
200a1896:	c008                	sw	a0,0(s0)
200a1898:	00f75463          	bge	a4,a5,200a18a0 <jpeg_dec_decode+0xc2>
200a189c:	84f1a423          	sw	a5,-1976(gp) # 200c0428 <jpeg_dec_H_max>
200a18a0:	8441a783          	lw	a5,-1980(gp) # 200c0424 <jpeg_dec_V_max>
200a18a4:	00a7d463          	bge	a5,a0,200a18ac <jpeg_dec_decode+0xce>
200a18a8:	84a1a223          	sw	a0,-1980(gp) # 200c0424 <jpeg_dec_V_max>
200a18ac:	4521                	li	a0,8
200a18ae:	3569                	jal	200a1738 <read_bits>
200a18b0:	00a92023          	sw	a0,0(s2)
200a18b4:	0985                	addi	s3,s3,1
200a18b6:	0911                	addi	s2,s2,4
200a18b8:	0491                	addi	s1,s1,4
200a18ba:	0411                	addi	s0,s0,4
200a18bc:	b745                	j	200a185c <jpeg_dec_decode+0x7e>
200a18be:	fdb40793          	addi	a5,s0,-37
200a18c2:	02f49a63          	bne	s1,a5,200a18f6 <jpeg_dec_decode+0x118>
200a18c6:	2e818493          	addi	s1,gp,744 # 200c0ec8 <quant_table>
200a18ca:	04000993          	li	s3,64
200a18ce:	f9205be3          	blez	s2,200a1864 <jpeg_dec_decode+0x86>
200a18d2:	4521                	li	a0,8
200a18d4:	3595                	jal	200a1738 <read_bits>
200a18d6:	00f57413          	andi	s0,a0,15
200a18da:	041a                	slli	s0,s0,0x6
200a18dc:	4a01                	li	s4,0
200a18de:	4521                	li	a0,8
200a18e0:	3da1                	jal	200a1738 <read_bits>
200a18e2:	008a07b3          	add	a5,s4,s0
200a18e6:	97a6                	add	a5,a5,s1
200a18e8:	a388                	sb	a0,0(a5)
200a18ea:	0a05                	addi	s4,s4,1
200a18ec:	ff3a19e3          	bne	s4,s3,200a18de <jpeg_dec_decode+0x100>
200a18f0:	fbf90913          	addi	s2,s2,-65
200a18f4:	bfe9                	j	200a18ce <jpeg_dec_decode+0xf0>
200a18f6:	fc440793          	addi	a5,s0,-60
200a18fa:	0cf49a63          	bne	s1,a5,200a19ce <jpeg_dec_decode+0x1f0>
200a18fe:	cf818993          	addi	s3,gp,-776 # 200c08d8 <ac_tab>
200a1902:	42818a13          	addi	s4,gp,1064 # 200c1008 <jpeg_dec_huff_ac_bits>
200a1906:	44c18a93          	addi	s5,gp,1100 # 200c102c <jpeg_dec_huff_dc_bits>
200a190a:	f5205de3          	blez	s2,200a1864 <jpeg_dec_decode+0x86>
200a190e:	4521                	li	a0,8
200a1910:	3525                	jal	200a1738 <read_bits>
200a1912:	40455c93          	srai	s9,a0,0x4
200a1916:	17c00413          	li	s0,380
200a191a:	893d                	andi	a0,a0,15
200a191c:	00fcfc93          	andi	s9,s9,15
200a1920:	02850433          	mul	s0,a0,s0
200a1924:	080c9e63          	bnez	s9,200a19c0 <jpeg_dec_decode+0x1e2>
200a1928:	ff018793          	addi	a5,gp,-16 # 200c0bd0 <dc_tab>
200a192c:	943e                	add	s0,s0,a5
200a192e:	47c5                	li	a5,17
200a1930:	4c05                	li	s8,1
200a1932:	4b01                	li	s6,0
200a1934:	4d45                	li	s10,17
200a1936:	02f504b3          	mul	s1,a0,a5
200a193a:	0485                	addi	s1,s1,1
200a193c:	4521                	li	a0,8
200a193e:	3bed                	jal	200a1738 <read_bits>
200a1940:	01840733          	add	a4,s0,s8
200a1944:	0ff57793          	zext.b	a5,a0
200a1948:	a31c                	sb	a5,0(a4)
200a194a:	01548733          	add	a4,s1,s5
200a194e:	000c8463          	beqz	s9,200a1956 <jpeg_dec_decode+0x178>
200a1952:	01448733          	add	a4,s1,s4
200a1956:	0ff57513          	zext.b	a0,a0
200a195a:	a31c                	sb	a5,0(a4)
200a195c:	0c05                	addi	s8,s8,1
200a195e:	9b2a                	add	s6,s6,a0
200a1960:	0485                	addi	s1,s1,1
200a1962:	fdac1de3          	bne	s8,s10,200a193c <jpeg_dec_decode+0x15e>
200a1966:	84a2                	mv	s1,s0
200a1968:	008b0c33          	add	s8,s6,s0
200a196c:	05849c63          	bne	s1,s8,200a19c4 <jpeg_dec_decode+0x1e6>
200a1970:	13840613          	addi	a2,s0,312
200a1974:	11440693          	addi	a3,s0,276
200a1978:	4781                	li	a5,0
200a197a:	4705                	li	a4,1
200a197c:	4581                	li	a1,0
200a197e:	58fd                	li	a7,-1
200a1980:	4845                	li	a6,17
200a1982:	c20c                	sw	a1,0(a2)
200a1984:	01169023          	sh	a7,0(a3)
200a1988:	00e40533          	add	a0,s0,a4
200a198c:	2108                	lbu	a0,0(a0)
200a198e:	c909                	beqz	a0,200a19a0 <jpeg_dec_decode+0x1c2>
200a1990:	97aa                	add	a5,a5,a0
200a1992:	0807c7b3          	zext.h	a5,a5
200a1996:	fff78313          	addi	t1,a5,-1
200a199a:	00669023          	sh	t1,0(a3)
200a199e:	95aa                	add	a1,a1,a0
200a19a0:	0786                	slli	a5,a5,0x1
200a19a2:	0705                	addi	a4,a4,1
200a19a4:	0611                	addi	a2,a2,4 # 20130004 <_eusrstack+0x30004>
200a19a6:	0689                	addi	a3,a3,2
200a19a8:	0807c7b3          	zext.h	a5,a5
200a19ac:	fd071be3          	bne	a4,a6,200a1982 <jpeg_dec_decode+0x1a4>
200a19b0:	4785                	li	a5,1
200a19b2:	16f42c23          	sw	a5,376(s0)
200a19b6:	011b0793          	addi	a5,s6,17
200a19ba:	40f90933          	sub	s2,s2,a5
200a19be:	b7b1                	j	200a190a <jpeg_dec_decode+0x12c>
200a19c0:	944e                	add	s0,s0,s3
200a19c2:	b7b5                	j	200a192e <jpeg_dec_decode+0x150>
200a19c4:	4521                	li	a0,8
200a19c6:	3b8d                	jal	200a1738 <read_bits>
200a19c8:	b888                	sb	a0,17(s1)
200a19ca:	0485                	addi	s1,s1,1
200a19cc:	b745                	j	200a196c <jpeg_dec_decode+0x18e>
200a19ce:	fda40413          	addi	s0,s0,-38
200a19d2:	4981                	li	s3,0
200a19d4:	44849163          	bne	s1,s0,200a1e16 <jpeg_dec_decode+0x638>
200a19d8:	4521                	li	a0,8
200a19da:	3bb9                	jal	200a1738 <read_bits>
200a19dc:	ce018913          	addi	s2,gp,-800 # 200c08c0 <comp_dc>
200a19e0:	cd418993          	addi	s3,gp,-812 # 200c08b4 <comp_ac>
200a19e4:	ce018713          	addi	a4,gp,-800 # 200c08c0 <comp_dc>
200a19e8:	cd418793          	addi	a5,gp,-812 # 200c08b4 <comp_ac>
200a19ec:	842a                	mv	s0,a0
200a19ee:	4481                	li	s1,0
200a19f0:	d63a                	sw	a4,44(sp)
200a19f2:	d83e                	sw	a5,48(sp)
200a19f4:	4521                	li	a0,8
200a19f6:	0884c763          	blt	s1,s0,200a1a84 <jpeg_dec_decode+0x2a6>
200a19fa:	3b3d                	jal	200a1738 <read_bits>
200a19fc:	4521                	li	a0,8
200a19fe:	3b2d                	jal	200a1738 <read_bits>
200a1a00:	4521                	li	a0,8
200a1a02:	3b1d                	jal	200a1738 <read_bits>
200a1a04:	9001aa23          	sw	zero,-1772(gp) # 200c04f4 <jpeg_dec_bitstream>
200a1a08:	8e01ae23          	sw	zero,-1796(gp) # 200c04dc <entropy_bit_count>
200a1a0c:	02000613          	li	a2,32
200a1a10:	4581                	li	a1,0
200a1a12:	3e818513          	addi	a0,gp,1000 # 200c0fc8 <jpeg_dec_debug_cat>
200a1a16:	9001a823          	sw	zero,-1776(gp) # 200c04f0 <debug_idx>
200a1a1a:	89bfe0ef          	jal	ra,200a02b4 <memset>
200a1a1e:	02000613          	li	a2,32
200a1a22:	4581                	li	a1,0
200a1a24:	3c818513          	addi	a0,gp,968 # 200c0fa8 <jpeg_dec_debug_val>
200a1a28:	88dfe0ef          	jal	ra,200a02b4 <memset>
200a1a2c:	8481a783          	lw	a5,-1976(gp) # 200c0428 <jpeg_dec_H_max>
200a1a30:	9201a683          	lw	a3,-1760(gp) # 200c0500 <jpeg_dec_width>
200a1a34:	c282                	sw	zero,68(sp)
200a1a36:	00379713          	slli	a4,a5,0x3
200a1a3a:	20d7e7b3          	sh3add	a5,a5,a3
200a1a3e:	17fd                	addi	a5,a5,-1
200a1a40:	02e7c7b3          	div	a5,a5,a4
200a1a44:	91c1a683          	lw	a3,-1764(gp) # 200c04fc <jpeg_dec_height>
200a1a48:	c482                	sw	zero,72(sp)
200a1a4a:	c682                	sw	zero,76(sp)
200a1a4c:	c602                	sw	zero,12(sp)
200a1a4e:	4c81                	li	s9,0
200a1a50:	4481                	li	s1,0
200a1a52:	4c01                	li	s8,0
200a1a54:	ce3e                	sw	a5,28(sp)
200a1a56:	8441a783          	lw	a5,-1980(gp) # 200c0424 <jpeg_dec_V_max>
200a1a5a:	00379713          	slli	a4,a5,0x3
200a1a5e:	20d7e7b3          	sh3add	a5,a5,a3
200a1a62:	17fd                	addi	a5,a5,-1
200a1a64:	02e7c7b3          	div	a5,a5,a4
200a1a68:	d03e                	sw	a5,32(sp)
200a1a6a:	cec18793          	addi	a5,gp,-788 # 200c08cc <comp_qt>
200a1a6e:	dc3e                	sw	a5,56(sp)
200a1a70:	9041a783          	lw	a5,-1788(gp) # 200c04e4 <data_ptr>
200a1a74:	4722                	lw	a4,8(sp)
200a1a76:	dee7f7e3          	bgeu	a5,a4,200a1864 <jpeg_dec_decode+0x86>
200a1a7a:	04410a93          	addi	s5,sp,68
200a1a7e:	4401                	li	s0,0
200a1a80:	c802                	sw	zero,16(sp)
200a1a82:	a6bd                	j	200a1df0 <jpeg_dec_decode+0x612>
200a1a84:	3955                	jal	200a1738 <read_bits>
200a1a86:	4521                	li	a0,8
200a1a88:	3945                	jal	200a1738 <read_bits>
200a1a8a:	40455793          	srai	a5,a0,0x4
200a1a8e:	00f92023          	sw	a5,0(s2)
200a1a92:	00f57793          	andi	a5,a0,15
200a1a96:	00f9a023          	sw	a5,0(s3)
200a1a9a:	0485                	addi	s1,s1,1
200a1a9c:	0911                	addi	s2,s2,4
200a1a9e:	0991                	addi	s3,s3,4
200a1aa0:	bf91                	j	200a19f4 <jpeg_dec_decode+0x216>
200a1aa2:	8fc1a783          	lw	a5,-1796(gp) # 200c04dc <entropy_bit_count>
200a1aa6:	ff018513          	addi	a0,gp,-16 # 200c0bd0 <dc_tab>
200a1aaa:	ca3e                	sw	a5,20(sp)
200a1aac:	57b2                	lw	a5,44(sp)
200a1aae:	97a2                	add	a5,a5,s0
200a1ab0:	4398                	lw	a4,0(a5)
200a1ab2:	17c00793          	li	a5,380
200a1ab6:	02e787b3          	mul	a5,a5,a4
200a1aba:	953e                	add	a0,a0,a5
200a1abc:	314d                	jal	200a175e <huff_decode>
200a1abe:	8b2a                	mv	s6,a0
200a1ac0:	9101aa03          	lw	s4,-1776(gp) # 200c04f0 <debug_idx>
200a1ac4:	479d                	li	a5,7
200a1ac6:	0ea04063          	bgtz	a0,200a1ba6 <jpeg_dec_decode+0x3c8>
200a1aca:	0347c163          	blt	a5,s4,200a1aec <jpeg_dec_decode+0x30e>
200a1ace:	3e818793          	addi	a5,gp,1000 # 200c0fc8 <jpeg_dec_debug_cat>
200a1ad2:	20fa47b3          	sh2add	a5,s4,a5
200a1ad6:	0007a023          	sw	zero,0(a5)
200a1ada:	3c818793          	addi	a5,gp,968 # 200c0fa8 <jpeg_dec_debug_val>
200a1ade:	20fa47b3          	sh2add	a5,s4,a5
200a1ae2:	0a05                	addi	s4,s4,1
200a1ae4:	0007a023          	sw	zero,0(a5)
200a1ae8:	9141a823          	sw	s4,-1776(gp) # 200c04f0 <debug_idx>
200a1aec:	4501                	li	a0,0
200a1aee:	8fc1ab03          	lw	s6,-1796(gp) # 200c04dc <entropy_bit_count>
200a1af2:	000aa783          	lw	a5,0(s5)
200a1af6:	0fc00613          	li	a2,252
200a1afa:	4581                	li	a1,0
200a1afc:	00f50a33          	add	s4,a0,a5
200a1b00:	014aa023          	sw	s4,0(s5)
200a1b04:	0948                	addi	a0,sp,148
200a1b06:	faefe0ef          	jal	ra,200a02b4 <memset>
200a1b0a:	57c2                	lw	a5,48(sp)
200a1b0c:	c952                	sw	s4,144(sp)
200a1b0e:	17c00a13          	li	s4,380
200a1b12:	97a2                	add	a5,a5,s0
200a1b14:	439c                	lw	a5,0(a5)
200a1b16:	03f00d13          	li	s10,63
200a1b1a:	4dbd                	li	s11,15
200a1b1c:	02fa0a33          	mul	s4,s4,a5
200a1b20:	cf818793          	addi	a5,gp,-776 # 200c08d8 <ac_tab>
200a1b24:	97d2                	add	a5,a5,s4
200a1b26:	d23e                	sw	a5,36(sp)
200a1b28:	4a05                	li	s4,1
200a1b2a:	5512                	lw	a0,36(sp)
200a1b2c:	c33ff0ef          	jal	ra,200a175e <huff_decode>
200a1b30:	0aa04b63          	bgtz	a0,200a1be6 <jpeg_dec_decode+0x408>
200a1b34:	4732                	lw	a4,12(sp)
200a1b36:	479d                	li	a5,7
200a1b38:	10e7d263          	bge	a5,a4,200a1c3c <jpeg_dec_decode+0x45e>
200a1b3c:	57d2                	lw	a5,52(sp)
200a1b3e:	2e818513          	addi	a0,gp,744 # 200c0ec8 <quant_table>
200a1b42:	4394                	lw	a3,0(a5)
200a1b44:	479d                	li	a5,7
200a1b46:	069a                	slli	a3,a3,0x6
200a1b48:	0197ce63          	blt	a5,s9,200a1b64 <jpeg_dec_decode+0x386>
200a1b4c:	00d50733          	add	a4,a0,a3
200a1b50:	2318                	lbu	a4,0(a4)
200a1b52:	464a                	lw	a2,144(sp)
200a1b54:	40818793          	addi	a5,gp,1032 # 200c0fe8 <jpeg_dec_raw_dc>
200a1b58:	02c70733          	mul	a4,a4,a2
200a1b5c:	20fcc7b3          	sh2add	a5,s9,a5
200a1b60:	0c85                	addi	s9,s9,1
200a1b62:	c398                	sw	a4,0(a5)
200a1b64:	0910                	addi	a2,sp,144
200a1b66:	8732                	mv	a4,a2
200a1b68:	4781                	li	a5,0
200a1b6a:	04000813          	li	a6,64
200a1b6e:	00d785b3          	add	a1,a5,a3
200a1b72:	95aa                	add	a1,a1,a0
200a1b74:	0005c883          	lbu	a7,0(a1)
200a1b78:	430c                	lw	a1,0(a4)
200a1b7a:	0785                	addi	a5,a5,1
200a1b7c:	031585b3          	mul	a1,a1,a7
200a1b80:	c30c                	sw	a1,0(a4)
200a1b82:	0711                	addi	a4,a4,4
200a1b84:	ff0795e3          	bne	a5,a6,200a1b6e <jpeg_dec_decode+0x390>
200a1b88:	0b14                	addi	a3,sp,400
200a1b8a:	688d                	lui	a7,0x3
200a1b8c:	8536                	mv	a0,a3
200a1b8e:	4801                	li	a6,0
200a1b90:	d4188893          	addi	a7,a7,-703 # 2d41 <__stack_size+0x2541>
200a1b94:	4ea1                	li	t4,8
200a1b96:	04000f13          	li	t5,64
200a1b9a:	000457b7          	lui	a5,0x45
200a1b9e:	f6878713          	addi	a4,a5,-152 # 44f68 <cos_table>
200a1ba2:	85aa                	mv	a1,a0
200a1ba4:	a8d5                	j	200a1c98 <jpeg_dec_decode+0x4ba>
200a1ba6:	0347d263          	bge	a5,s4,200a1bca <jpeg_dec_decode+0x3ec>
200a1baa:	b8fff0ef          	jal	ra,200a1738 <read_bits>
200a1bae:	0a05                	addi	s4,s4,1
200a1bb0:	fffb0793          	addi	a5,s6,-1
200a1bb4:	9141a823          	sw	s4,-1776(gp) # 200c04f0 <debug_idx>
200a1bb8:	28f017b3          	bset	a5,zero,a5
200a1bbc:	f2f559e3          	bge	a0,a5,200a1aee <jpeg_dec_decode+0x310>
200a1bc0:	296017b3          	bset	a5,zero,s6
200a1bc4:	17fd                	addi	a5,a5,-1
200a1bc6:	8d1d                	sub	a0,a0,a5
200a1bc8:	b71d                	j	200a1aee <jpeg_dec_decode+0x310>
200a1bca:	3e818793          	addi	a5,gp,1000 # 200c0fc8 <jpeg_dec_debug_cat>
200a1bce:	20fa47b3          	sh2add	a5,s4,a5
200a1bd2:	c388                	sw	a0,0(a5)
200a1bd4:	b65ff0ef          	jal	ra,200a1738 <read_bits>
200a1bd8:	002a1d93          	slli	s11,s4,0x2
200a1bdc:	3c818793          	addi	a5,gp,968 # 200c0fa8 <jpeg_dec_debug_val>
200a1be0:	97ee                	add	a5,a5,s11
200a1be2:	c388                	sw	a0,0(a5)
200a1be4:	b7e9                	j	200a1bae <jpeg_dec_decode+0x3d0>
200a1be6:	40455693          	srai	a3,a0,0x4
200a1bea:	9a36                	add	s4,s4,a3
200a1bec:	00f57793          	andi	a5,a0,15
200a1bf0:	f54d42e3          	blt	s10,s4,200a1b34 <jpeg_dec_decode+0x356>
200a1bf4:	e781                	bnez	a5,200a1bfc <jpeg_dec_decode+0x41e>
200a1bf6:	f3b69fe3          	bne	a3,s11,200a1b34 <jpeg_dec_decode+0x356>
200a1bfa:	bf05                	j	200a1b2a <jpeg_dec_decode+0x34c>
200a1bfc:	853e                	mv	a0,a5
200a1bfe:	de3e                	sw	a5,60(sp)
200a1c00:	b39ff0ef          	jal	ra,200a1738 <read_bits>
200a1c04:	57f2                	lw	a5,60(sp)
200a1c06:	fff78693          	addi	a3,a5,-1
200a1c0a:	28d016b3          	bset	a3,zero,a3
200a1c0e:	00d55663          	bge	a0,a3,200a1c1a <jpeg_dec_decode+0x43c>
200a1c12:	28f017b3          	bset	a5,zero,a5
200a1c16:	17fd                	addi	a5,a5,-1
200a1c18:	8d1d                	sub	a0,a0,a5
200a1c1a:	000457b7          	lui	a5,0x45
200a1c1e:	06878793          	addi	a5,a5,104 # 45068 <zigzag>
200a1c22:	97d2                	add	a5,a5,s4
200a1c24:	239c                	lbu	a5,0(a5)
200a1c26:	0d18                	addi	a4,sp,656
200a1c28:	0a05                	addi	s4,s4,1
200a1c2a:	20e7c7b3          	sh2add	a5,a5,a4
200a1c2e:	e0a7a023          	sw	a0,-512(a5)
200a1c32:	04000793          	li	a5,64
200a1c36:	eefa1ae3          	bne	s4,a5,200a1b2a <jpeg_dec_decode+0x34c>
200a1c3a:	bded                	j	200a1b34 <jpeg_dec_decode+0x356>
200a1c3c:	4752                	lw	a4,20(sp)
200a1c3e:	38818793          	addi	a5,gp,904 # 200c0f68 <jpeg_dec_dc_bits_arr>
200a1c42:	40eb0733          	sub	a4,s6,a4
200a1c46:	97ce                	add	a5,a5,s3
200a1c48:	c398                	sw	a4,0(a5)
200a1c4a:	8fc1a703          	lw	a4,-1796(gp) # 200c04dc <entropy_bit_count>
200a1c4e:	36818793          	addi	a5,gp,872 # 200c0f48 <jpeg_dec_ac_bits_arr>
200a1c52:	97ce                	add	a5,a5,s3
200a1c54:	41670b33          	sub	s6,a4,s6
200a1c58:	46d2                	lw	a3,20(sp)
200a1c5a:	0167a023          	sw	s6,0(a5)
200a1c5e:	3a818793          	addi	a5,gp,936 # 200c0f88 <jpeg_dec_block_bits>
200a1c62:	97ce                	add	a5,a5,s3
200a1c64:	8f15                	sub	a4,a4,a3
200a1c66:	c398                	sw	a4,0(a5)
200a1c68:	bdd1                	j	200a1b3c <jpeg_dec_decode+0x35e>
200a1c6a:	000e2283          	lw	t0,0(t3)
200a1c6e:	000fa383          	lw	t2,0(t6)
200a1c72:	0305                	addi	t1,t1,1
200a1c74:	0f91                	addi	t6,t6,4
200a1c76:	027282b3          	mul	t0,t0,t2
200a1c7a:	0e11                	addi	t3,t3,4
200a1c7c:	9796                	add	a5,a5,t0
200a1c7e:	ffd316e3          	bne	t1,t4,200a1c6a <jpeg_dec_decode+0x48c>
200a1c82:	87b9                	srai	a5,a5,0xe
200a1c84:	c19c                	sw	a5,0(a1)
200a1c86:	000457b7          	lui	a5,0x45
200a1c8a:	02070713          	addi	a4,a4,32
200a1c8e:	06878793          	addi	a5,a5,104 # 45068 <zigzag>
200a1c92:	0591                	addi	a1,a1,4
200a1c94:	02f70063          	beq	a4,a5,200a1cb4 <jpeg_dec_decode+0x4d6>
200a1c98:	421c                	lw	a5,0(a2)
200a1c9a:	00072303          	lw	t1,0(a4)
200a1c9e:	00460f93          	addi	t6,a2,4
200a1ca2:	031787b3          	mul	a5,a5,a7
200a1ca6:	00470e13          	addi	t3,a4,4
200a1caa:	87b9                	srai	a5,a5,0xe
200a1cac:	026787b3          	mul	a5,a5,t1
200a1cb0:	4305                	li	t1,1
200a1cb2:	bf65                	j	200a1c6a <jpeg_dec_decode+0x48c>
200a1cb4:	0821                	addi	a6,a6,8 # 20150008 <_eusrstack+0x50008>
200a1cb6:	02060613          	addi	a2,a2,32
200a1cba:	02050513          	addi	a0,a0,32
200a1cbe:	ede81ee3          	bne	a6,t5,200a1b9a <jpeg_dec_decode+0x3bc>
200a1cc2:	680d                	lui	a6,0x3
200a1cc4:	4601                	li	a2,0
200a1cc6:	d4180813          	addi	a6,a6,-703 # 2d41 <__stack_size+0x2541>
200a1cca:	48a1                	li	a7,8
200a1ccc:	0ff00313          	li	t1,255
200a1cd0:	4e01                	li	t3,0
200a1cd2:	089c                	addi	a5,sp,80
200a1cd4:	00f60533          	add	a0,a2,a5
200a1cd8:	000457b7          	lui	a5,0x45
200a1cdc:	f6878713          	addi	a4,a5,-152 # 44f68 <cos_table>
200a1ce0:	a83d                	j	200a1d1e <jpeg_dec_decode+0x540>
200a1ce2:	000eaf83          	lw	t6,0(t4)
200a1ce6:	000f2283          	lw	t0,0(t5)
200a1cea:	0585                	addi	a1,a1,1
200a1cec:	020f0f13          	addi	t5,t5,32
200a1cf0:	025f8fb3          	mul	t6,t6,t0
200a1cf4:	0e91                	addi	t4,t4,4
200a1cf6:	97fe                	add	a5,a5,t6
200a1cf8:	ff1595e3          	bne	a1,a7,200a1ce2 <jpeg_dec_decode+0x504>
200a1cfc:	87c1                	srai	a5,a5,0x10
200a1cfe:	08078793          	addi	a5,a5,128
200a1d02:	0a67c7b3          	min	a5,a5,t1
200a1d06:	0bc7e7b3          	max	a5,a5,t3
200a1d0a:	a11c                	sb	a5,0(a0)
200a1d0c:	000457b7          	lui	a5,0x45
200a1d10:	02070713          	addi	a4,a4,32
200a1d14:	06878793          	addi	a5,a5,104 # 45068 <zigzag>
200a1d18:	0521                	addi	a0,a0,8
200a1d1a:	00f70f63          	beq	a4,a5,200a1d38 <jpeg_dec_decode+0x55a>
200a1d1e:	429c                	lw	a5,0(a3)
200a1d20:	430c                	lw	a1,0(a4)
200a1d22:	02068f13          	addi	t5,a3,32
200a1d26:	030787b3          	mul	a5,a5,a6
200a1d2a:	00470e93          	addi	t4,a4,4
200a1d2e:	87b9                	srai	a5,a5,0xe
200a1d30:	02b787b3          	mul	a5,a5,a1
200a1d34:	4585                	li	a1,1
200a1d36:	b775                	j	200a1ce2 <jpeg_dec_decode+0x504>
200a1d38:	0605                	addi	a2,a2,1
200a1d3a:	0691                	addi	a3,a3,4
200a1d3c:	f8b61be3          	bne	a2,a1,200a1cd2 <jpeg_dec_decode+0x4f4>
200a1d40:	8481a783          	lw	a5,-1976(gp) # 200c0428 <jpeg_dec_H_max>
200a1d44:	4712                	lw	a4,4(sp)
200a1d46:	4581                	li	a1,0
200a1d48:	02f487b3          	mul	a5,s1,a5
200a1d4c:	04000e13          	li	t3,64
200a1d50:	97ca                	add	a5,a5,s2
200a1d52:	00379693          	slli	a3,a5,0x3
200a1d56:	8441a783          	lw	a5,-1980(gp) # 200c0424 <jpeg_dec_V_max>
200a1d5a:	00868893          	addi	a7,a3,8
200a1d5e:	02fc07b3          	mul	a5,s8,a5
200a1d62:	97ba                	add	a5,a5,a4
200a1d64:	00379713          	slli	a4,a5,0x3
200a1d68:	089c                	addi	a5,sp,80
200a1d6a:	8636                	mv	a2,a3
200a1d6c:	00f58833          	add	a6,a1,a5
200a1d70:	9201a783          	lw	a5,-1760(gp) # 200c0500 <jpeg_dec_width>
200a1d74:	00f65f63          	bge	a2,a5,200a1d92 <jpeg_dec_decode+0x5b4>
200a1d78:	91c1a503          	lw	a0,-1764(gp) # 200c04fc <jpeg_dec_height>
200a1d7c:	00a75b63          	bge	a4,a0,200a1d92 <jpeg_dec_decode+0x5b4>
200a1d80:	02e78533          	mul	a0,a5,a4
200a1d84:	84c1a783          	lw	a5,-1972(gp) # 200c042c <jpeg_dec_buf>
200a1d88:	97b2                	add	a5,a5,a2
200a1d8a:	97aa                	add	a5,a5,a0
200a1d8c:	00084503          	lbu	a0,0(a6)
200a1d90:	a388                	sb	a0,0(a5)
200a1d92:	0605                	addi	a2,a2,1
200a1d94:	0805                	addi	a6,a6,1
200a1d96:	fd161de3          	bne	a2,a7,200a1d70 <jpeg_dec_decode+0x592>
200a1d9a:	05a1                	addi	a1,a1,8
200a1d9c:	0705                	addi	a4,a4,1
200a1d9e:	fdc595e3          	bne	a1,t3,200a1d68 <jpeg_dec_decode+0x58a>
200a1da2:	0905                	addi	s2,s2,1
200a1da4:	0991                	addi	s3,s3,4
200a1da6:	47e2                	lw	a5,24(sp)
200a1da8:	97ca                	add	a5,a5,s2
200a1daa:	c63e                	sw	a5,12(sp)
200a1dac:	57a2                	lw	a5,40(sp)
200a1dae:	439c                	lw	a5,0(a5)
200a1db0:	cef949e3          	blt	s2,a5,200a1aa2 <jpeg_dec_decode+0x2c4>
200a1db4:	4792                	lw	a5,4(sp)
200a1db6:	0785                	addi	a5,a5,1
200a1db8:	c23e                	sw	a5,4(sp)
200a1dba:	47018793          	addi	a5,gp,1136 # 200c1050 <jpeg_dec_comp_v>
200a1dbe:	97a2                	add	a5,a5,s0
200a1dc0:	439c                	lw	a5,0(a5)
200a1dc2:	4712                	lw	a4,4(sp)
200a1dc4:	02f75163          	bge	a4,a5,200a1de6 <jpeg_dec_decode+0x608>
200a1dc8:	47b2                	lw	a5,12(sp)
200a1dca:	4901                	li	s2,0
200a1dcc:	cc3e                	sw	a5,24(sp)
200a1dce:	00279993          	slli	s3,a5,0x2
200a1dd2:	47c18793          	addi	a5,gp,1148 # 200c105c <jpeg_dec_comp_h>
200a1dd6:	97a2                	add	a5,a5,s0
200a1dd8:	d43e                	sw	a5,40(sp)
200a1dda:	b7f1                	j	200a1da6 <jpeg_dec_decode+0x5c8>
200a1ddc:	57e2                	lw	a5,56(sp)
200a1dde:	c202                	sw	zero,4(sp)
200a1de0:	97a2                	add	a5,a5,s0
200a1de2:	da3e                	sw	a5,52(sp)
200a1de4:	bfd9                	j	200a1dba <jpeg_dec_decode+0x5dc>
200a1de6:	47c2                	lw	a5,16(sp)
200a1de8:	0a91                	addi	s5,s5,4
200a1dea:	0411                	addi	s0,s0,4
200a1dec:	0785                	addi	a5,a5,1
200a1dee:	c83e                	sw	a5,16(sp)
200a1df0:	9181a783          	lw	a5,-1768(gp) # 200c04f8 <jpeg_dec_num_components>
200a1df4:	4742                	lw	a4,16(sp)
200a1df6:	fef743e3          	blt	a4,a5,200a1ddc <jpeg_dec_decode+0x5fe>
200a1dfa:	47f2                	lw	a5,28(sp)
200a1dfc:	0485                	addi	s1,s1,1
200a1dfe:	c6f4c9e3          	blt	s1,a5,200a1a70 <jpeg_dec_decode+0x292>
200a1e02:	5782                	lw	a5,32(sp)
200a1e04:	0c05                	addi	s8,s8,1
200a1e06:	a6fc5ce3          	bge	s8,a5,200a187e <jpeg_dec_decode+0xa0>
200a1e0a:	4481                	li	s1,0
200a1e0c:	b195                	j	200a1a70 <jpeg_dec_decode+0x292>
200a1e0e:	4521                	li	a0,8
200a1e10:	929ff0ef          	jal	ra,200a1738 <read_bits>
200a1e14:	0985                	addi	s3,s3,1
200a1e16:	ff29cce3          	blt	s3,s2,200a1e0e <jpeg_dec_decode+0x630>
200a1e1a:	b4a9                	j	200a1864 <jpeg_dec_decode+0x86>
200a1e1c:	5575                	li	a0,-3
200a1e1e:	b2e5                	j	200a1806 <jpeg_dec_decode+0x28>

200a1e20 <SCCB_GPIO_Init>:
200a1e20:	400117b7          	lui	a5,0x40011
200a1e24:	4398                	lw	a4,0(a5)
200a1e26:	9b41                	andi	a4,a4,-16
200a1e28:	c398                	sw	a4,0(a5)
200a1e2a:	4398                	lw	a4,0(a5)
200a1e2c:	00376713          	ori	a4,a4,3
200a1e30:	c398                	sw	a4,0(a5)
200a1e32:	4398                	lw	a4,0(a5)
200a1e34:	f0f77713          	andi	a4,a4,-241
200a1e38:	c398                	sw	a4,0(a5)
200a1e3a:	4398                	lw	a4,0(a5)
200a1e3c:	03076713          	ori	a4,a4,48
200a1e40:	c398                	sw	a4,0(a5)
200a1e42:	4705                	li	a4,1
200a1e44:	cb98                	sw	a4,16(a5)
200a1e46:	4709                	li	a4,2
200a1e48:	cb98                	sw	a4,16(a5)
200a1e4a:	8082                	ret

200a1e4c <SCCB_Start>:
200a1e4c:	c38fe2ef          	jal	t0,200a0284 <__riscv_save_0>
200a1e50:	40011437          	lui	s0,0x40011
200a1e54:	4909                	li	s2,2
200a1e56:	01242823          	sw	s2,16(s0) # 40011010 <_eusrstack+0x1ff11010>
200a1e5a:	4485                	li	s1,1
200a1e5c:	c804                	sw	s1,16(s0)
200a1e5e:	03200513          	li	a0,50
200a1e62:	aa0ff0ef          	jal	ra,200a1102 <Delay_Us>
200a1e66:	03200513          	li	a0,50
200a1e6a:	01242a23          	sw	s2,20(s0)
200a1e6e:	a94ff0ef          	jal	ra,200a1102 <Delay_Us>
200a1e72:	c844                	sw	s1,20(s0)
200a1e74:	c34fe06f          	j	200a02a8 <__riscv_restore_0>

200a1e78 <SCCB_Stop>:
200a1e78:	c0cfe2ef          	jal	t0,200a0284 <__riscv_save_0>
200a1e7c:	40011437          	lui	s0,0x40011
200a1e80:	4489                	li	s1,2
200a1e82:	c844                	sw	s1,20(s0)
200a1e84:	03200513          	li	a0,50
200a1e88:	a7aff0ef          	jal	ra,200a1102 <Delay_Us>
200a1e8c:	4785                	li	a5,1
200a1e8e:	c81c                	sw	a5,16(s0)
200a1e90:	03200513          	li	a0,50
200a1e94:	a6eff0ef          	jal	ra,200a1102 <Delay_Us>
200a1e98:	03200513          	li	a0,50
200a1e9c:	c804                	sw	s1,16(s0)
200a1e9e:	a64ff0ef          	jal	ra,200a1102 <Delay_Us>
200a1ea2:	c06fe06f          	j	200a02a8 <__riscv_restore_0>

200a1ea6 <SCCB_No_Ack>:
200a1ea6:	bdefe2ef          	jal	t0,200a0284 <__riscv_save_0>
200a1eaa:	40011437          	lui	s0,0x40011
200a1eae:	4489                	li	s1,2
200a1eb0:	03200513          	li	a0,50
200a1eb4:	a4eff0ef          	jal	ra,200a1102 <Delay_Us>
200a1eb8:	4905                	li	s2,1
200a1eba:	c804                	sw	s1,16(s0)
200a1ebc:	01242823          	sw	s2,16(s0) # 40011010 <_eusrstack+0x1ff11010>
200a1ec0:	03200513          	li	a0,50
200a1ec4:	a3eff0ef          	jal	ra,200a1102 <Delay_Us>
200a1ec8:	03200513          	li	a0,50
200a1ecc:	01242a23          	sw	s2,20(s0)
200a1ed0:	a32ff0ef          	jal	ra,200a1102 <Delay_Us>
200a1ed4:	03200513          	li	a0,50
200a1ed8:	c844                	sw	s1,20(s0)
200a1eda:	a28ff0ef          	jal	ra,200a1102 <Delay_Us>
200a1ede:	bcafe06f          	j	200a02a8 <__riscv_restore_0>

200a1ee2 <SCCB_WR_Byte>:
200a1ee2:	b88fe2ef          	jal	t0,200a026a <__riscv_save_4>
200a1ee6:	84aa                	mv	s1,a0
200a1ee8:	4921                	li	s2,8
200a1eea:	40011437          	lui	s0,0x40011
200a1eee:	4a09                	li	s4,2
200a1ef0:	4985                	li	s3,1
200a1ef2:	60449793          	sext.b	a5,s1
200a1ef6:	0607d963          	bgez	a5,200a1f68 <SCCB_WR_Byte+0x86>
200a1efa:	01442823          	sw	s4,16(s0) # 40011010 <_eusrstack+0x1ff11010>
200a1efe:	03200513          	li	a0,50
200a1f02:	a00ff0ef          	jal	ra,200a1102 <Delay_Us>
200a1f06:	03200513          	li	a0,50
200a1f0a:	01342823          	sw	s3,16(s0)
200a1f0e:	197d                	addi	s2,s2,-1
200a1f10:	0486                	slli	s1,s1,0x1
200a1f12:	9f0ff0ef          	jal	ra,200a1102 <Delay_Us>
200a1f16:	0ff97913          	zext.b	s2,s2
200a1f1a:	01342a23          	sw	s3,20(s0)
200a1f1e:	0ff4f493          	zext.b	s1,s1
200a1f22:	fc0918e3          	bnez	s2,200a1ef2 <SCCB_WR_Byte+0x10>
200a1f26:	401c                	lw	a5,0(s0)
200a1f28:	03200513          	li	a0,50
200a1f2c:	f0f7f793          	andi	a5,a5,-241
200a1f30:	c01c                	sw	a5,0(s0)
200a1f32:	401c                	lw	a5,0(s0)
200a1f34:	0807e793          	ori	a5,a5,128
200a1f38:	c01c                	sw	a5,0(s0)
200a1f3a:	9c8ff0ef          	jal	ra,200a1102 <Delay_Us>
200a1f3e:	03200513          	li	a0,50
200a1f42:	01342823          	sw	s3,16(s0)
200a1f46:	9bcff0ef          	jal	ra,200a1102 <Delay_Us>
200a1f4a:	4408                	lw	a0,8(s0)
200a1f4c:	01342a23          	sw	s3,20(s0)
200a1f50:	401c                	lw	a5,0(s0)
200a1f52:	48155513          	bexti	a0,a0,0x1
200a1f56:	f0f7f793          	andi	a5,a5,-241
200a1f5a:	c01c                	sw	a5,0(s0)
200a1f5c:	401c                	lw	a5,0(s0)
200a1f5e:	0307e793          	ori	a5,a5,48
200a1f62:	c01c                	sw	a5,0(s0)
200a1f64:	b3afe06f          	j	200a029e <__riscv_restore_4>
200a1f68:	01442a23          	sw	s4,20(s0)
200a1f6c:	bf49                	j	200a1efe <SCCB_WR_Byte+0x1c>

200a1f6e <SCCB_RD_Byte>:
200a1f6e:	afcfe2ef          	jal	t0,200a026a <__riscv_save_4>
200a1f72:	400117b7          	lui	a5,0x40011
200a1f76:	4398                	lw	a4,0(a5)
200a1f78:	4921                	li	s2,8
200a1f7a:	4401                	li	s0,0
200a1f7c:	f0f77713          	andi	a4,a4,-241
200a1f80:	c398                	sw	a4,0(a5)
200a1f82:	4398                	lw	a4,0(a5)
200a1f84:	400114b7          	lui	s1,0x40011
200a1f88:	4985                	li	s3,1
200a1f8a:	08076713          	ori	a4,a4,128
200a1f8e:	c398                	sw	a4,0(a5)
200a1f90:	03200513          	li	a0,50
200a1f94:	96eff0ef          	jal	ra,200a1102 <Delay_Us>
200a1f98:	0134a823          	sw	s3,16(s1) # 40011010 <_eusrstack+0x1ff11010>
200a1f9c:	449c                	lw	a5,8(s1)
200a1f9e:	0406                	slli	s0,s0,0x1
200a1fa0:	0ff47413          	zext.b	s0,s0
200a1fa4:	8b89                	andi	a5,a5,2
200a1fa6:	c781                	beqz	a5,200a1fae <SCCB_RD_Byte+0x40>
200a1fa8:	0405                	addi	s0,s0,1
200a1faa:	0ff47413          	zext.b	s0,s0
200a1fae:	03200513          	li	a0,50
200a1fb2:	197d                	addi	s2,s2,-1
200a1fb4:	94eff0ef          	jal	ra,200a1102 <Delay_Us>
200a1fb8:	0ff97913          	zext.b	s2,s2
200a1fbc:	0134aa23          	sw	s3,20(s1)
200a1fc0:	fc0918e3          	bnez	s2,200a1f90 <SCCB_RD_Byte+0x22>
200a1fc4:	409c                	lw	a5,0(s1)
200a1fc6:	8522                	mv	a0,s0
200a1fc8:	f0f7f793          	andi	a5,a5,-241
200a1fcc:	c09c                	sw	a5,0(s1)
200a1fce:	409c                	lw	a5,0(s1)
200a1fd0:	0307e793          	ori	a5,a5,48
200a1fd4:	c09c                	sw	a5,0(s1)
200a1fd6:	ac8fe06f          	j	200a029e <__riscv_restore_4>

200a1fda <SCCB_WR_Reg>:
200a1fda:	aaafe2ef          	jal	t0,200a0284 <__riscv_save_0>
200a1fde:	84ae                	mv	s1,a1
200a1fe0:	892a                	mv	s2,a0
200a1fe2:	35ad                	jal	200a1e4c <SCCB_Start>
200a1fe4:	06000513          	li	a0,96
200a1fe8:	3ded                	jal	200a1ee2 <SCCB_WR_Byte>
200a1fea:	842a                	mv	s0,a0
200a1fec:	06400513          	li	a0,100
200a1ff0:	912ff0ef          	jal	ra,200a1102 <Delay_Us>
200a1ff4:	854a                	mv	a0,s2
200a1ff6:	35f5                	jal	200a1ee2 <SCCB_WR_Byte>
200a1ff8:	8c49                	or	s0,s0,a0
200a1ffa:	06400513          	li	a0,100
200a1ffe:	904ff0ef          	jal	ra,200a1102 <Delay_Us>
200a2002:	8526                	mv	a0,s1
200a2004:	3df9                	jal	200a1ee2 <SCCB_WR_Byte>
200a2006:	c511                	beqz	a0,200a2012 <SCCB_WR_Reg+0x38>
200a2008:	4405                	li	s0,1
200a200a:	35bd                	jal	200a1e78 <SCCB_Stop>
200a200c:	8522                	mv	a0,s0
200a200e:	a9afe06f          	j	200a02a8 <__riscv_restore_0>
200a2012:	0ff47413          	zext.b	s0,s0
200a2016:	00803433          	snez	s0,s0
200a201a:	bfc5                	j	200a200a <SCCB_WR_Reg+0x30>

200a201c <SCCB_RD_Reg>:
200a201c:	a68fe2ef          	jal	t0,200a0284 <__riscv_save_0>
200a2020:	1141                	addi	sp,sp,-16
200a2022:	842a                	mv	s0,a0
200a2024:	e29ff0ef          	jal	ra,200a1e4c <SCCB_Start>
200a2028:	06000513          	li	a0,96
200a202c:	3d5d                	jal	200a1ee2 <SCCB_WR_Byte>
200a202e:	06400513          	li	a0,100
200a2032:	8d0ff0ef          	jal	ra,200a1102 <Delay_Us>
200a2036:	8522                	mv	a0,s0
200a2038:	356d                	jal	200a1ee2 <SCCB_WR_Byte>
200a203a:	06400513          	li	a0,100
200a203e:	8c4ff0ef          	jal	ra,200a1102 <Delay_Us>
200a2042:	e37ff0ef          	jal	ra,200a1e78 <SCCB_Stop>
200a2046:	06400513          	li	a0,100
200a204a:	8b8ff0ef          	jal	ra,200a1102 <Delay_Us>
200a204e:	dffff0ef          	jal	ra,200a1e4c <SCCB_Start>
200a2052:	06100513          	li	a0,97
200a2056:	e8dff0ef          	jal	ra,200a1ee2 <SCCB_WR_Byte>
200a205a:	06400513          	li	a0,100
200a205e:	8a4ff0ef          	jal	ra,200a1102 <Delay_Us>
200a2062:	3731                	jal	200a1f6e <SCCB_RD_Byte>
200a2064:	c62a                	sw	a0,12(sp)
200a2066:	e41ff0ef          	jal	ra,200a1ea6 <SCCB_No_Ack>
200a206a:	e0fff0ef          	jal	ra,200a1e78 <SCCB_Stop>
200a206e:	4532                	lw	a0,12(sp)
200a2070:	0141                	addi	sp,sp,16
200a2072:	a36fe06f          	j	200a02a8 <__riscv_restore_0>

200a2076 <DVP_GPIO_Init>:
200a2076:	a0efe2ef          	jal	t0,200a0284 <__riscv_save_0>
200a207a:	1141                	addi	sp,sp,-16
200a207c:	4585                	li	a1,1
200a207e:	07900513          	li	a0,121
200a2082:	40011437          	lui	s0,0x40011
200a2086:	c202                	sw	zero,4(sp)
200a2088:	c402                	sw	zero,8(sp)
200a208a:	c602                	sw	zero,12(sp)
200a208c:	f2dfe0ef          	jal	ra,200a0fb8 <RCC_HB2PeriphClockCmd>
200a2090:	47c1                	li	a5,16
200a2092:	448d                	li	s1,3
200a2094:	004c                	addi	a1,sp,4
200a2096:	c0040513          	addi	a0,s0,-1024 # 40010c00 <_eusrstack+0x1ff10c00>
200a209a:	c63e                	sw	a5,12(sp)
200a209c:	8264                	sh	s1,4(sp)
200a209e:	c426                	sw	s1,8(sp)
200a20a0:	a7dfe0ef          	jal	ra,200a0b1c <GPIO_Init>
200a20a4:	04800913          	li	s2,72
200a20a8:	004c                	addi	a1,sp,4
200a20aa:	40011537          	lui	a0,0x40011
200a20ae:	8264                	sh	s1,4(sp)
200a20b0:	c64a                	sw	s2,12(sp)
200a20b2:	a6bfe0ef          	jal	ra,200a0b1c <GPIO_Init>
200a20b6:	4635                	li	a2,13
200a20b8:	c0040513          	addi	a0,s0,-1024
200a20bc:	459d                	li	a1,7
200a20be:	b49fe0ef          	jal	ra,200a0c06 <GPIO_PinAFConfig>
200a20c2:	08000793          	li	a5,128
200a20c6:	004c                	addi	a1,sp,4
200a20c8:	c0040513          	addi	a0,s0,-1024
200a20cc:	827c                	sh	a5,4(sp)
200a20ce:	c64a                	sw	s2,12(sp)
200a20d0:	a4dfe0ef          	jal	ra,200a0b1c <GPIO_Init>
200a20d4:	c0040513          	addi	a0,s0,-1024
200a20d8:	463d                	li	a2,15
200a20da:	45b1                	li	a1,12
200a20dc:	b2bfe0ef          	jal	ra,200a0c06 <GPIO_PinAFConfig>
200a20e0:	4621                	li	a2,8
200a20e2:	c0040513          	addi	a0,s0,-1024
200a20e6:	45b5                	li	a1,13
200a20e8:	b1ffe0ef          	jal	ra,200a0c06 <GPIO_PinAFConfig>
200a20ec:	6789                	lui	a5,0x2
200a20ee:	004c                	addi	a1,sp,4
200a20f0:	c0040513          	addi	a0,s0,-1024
200a20f4:	827c                	sh	a5,4(sp)
200a20f6:	400124b7          	lui	s1,0x40012
200a20fa:	c64a                	sw	s2,12(sp)
200a20fc:	a21fe0ef          	jal	ra,200a0b1c <GPIO_Init>
200a2100:	80048513          	addi	a0,s1,-2048 # 40011800 <_eusrstack+0x1ff11800>
200a2104:	462d                	li	a2,11
200a2106:	4581                	li	a1,0
200a2108:	afffe0ef          	jal	ra,200a0c06 <GPIO_PinAFConfig>
200a210c:	80048513          	addi	a0,s1,-2048
200a2110:	462d                	li	a2,11
200a2112:	4585                	li	a1,1
200a2114:	af3fe0ef          	jal	ra,200a0c06 <GPIO_PinAFConfig>
200a2118:	80048513          	addi	a0,s1,-2048
200a211c:	4635                	li	a2,13
200a211e:	4589                	li	a1,2
200a2120:	ae7fe0ef          	jal	ra,200a0c06 <GPIO_PinAFConfig>
200a2124:	80048513          	addi	a0,s1,-2048
200a2128:	4635                	li	a2,13
200a212a:	458d                	li	a1,3
200a212c:	adbfe0ef          	jal	ra,200a0c06 <GPIO_PinAFConfig>
200a2130:	80048513          	addi	a0,s1,-2048
200a2134:	4635                	li	a2,13
200a2136:	4591                	li	a1,4
200a2138:	acffe0ef          	jal	ra,200a0c06 <GPIO_PinAFConfig>
200a213c:	80048513          	addi	a0,s1,-2048
200a2140:	4635                	li	a2,13
200a2142:	4595                	li	a1,5
200a2144:	ac3fe0ef          	jal	ra,200a0c06 <GPIO_PinAFConfig>
200a2148:	4635                	li	a2,13
200a214a:	80048513          	addi	a0,s1,-2048
200a214e:	4599                	li	a1,6
200a2150:	ab7fe0ef          	jal	ra,200a0c06 <GPIO_PinAFConfig>
200a2154:	07f00793          	li	a5,127
200a2158:	004c                	addi	a1,sp,4
200a215a:	80048513          	addi	a0,s1,-2048
200a215e:	827c                	sh	a5,4(sp)
200a2160:	c64a                	sw	s2,12(sp)
200a2162:	9bbfe0ef          	jal	ra,200a0b1c <GPIO_Init>
200a2166:	4635                	li	a2,13
200a2168:	c0040513          	addi	a0,s0,-1024
200a216c:	4599                	li	a1,6
200a216e:	a99fe0ef          	jal	ra,200a0c06 <GPIO_PinAFConfig>
200a2172:	04000793          	li	a5,64
200a2176:	004c                	addi	a1,sp,4
200a2178:	c0040513          	addi	a0,s0,-1024
200a217c:	827c                	sh	a5,4(sp)
200a217e:	c64a                	sw	s2,12(sp)
200a2180:	99dfe0ef          	jal	ra,200a0b1c <GPIO_Init>
200a2184:	4635                	li	a2,13
200a2186:	45a9                	li	a1,10
200a2188:	40011537          	lui	a0,0x40011
200a218c:	a7bfe0ef          	jal	ra,200a0c06 <GPIO_PinAFConfig>
200a2190:	4635                	li	a2,13
200a2192:	45b1                	li	a1,12
200a2194:	40011537          	lui	a0,0x40011
200a2198:	a6ffe0ef          	jal	ra,200a0c06 <GPIO_PinAFConfig>
200a219c:	6785                	lui	a5,0x1
200a219e:	40078793          	addi	a5,a5,1024 # 1400 <__stack_size+0xc00>
200a21a2:	004c                	addi	a1,sp,4
200a21a4:	40011537          	lui	a0,0x40011
200a21a8:	827c                	sh	a5,4(sp)
200a21aa:	c64a                	sw	s2,12(sp)
200a21ac:	971fe0ef          	jal	ra,200a0b1c <GPIO_Init>
200a21b0:	40040513          	addi	a0,s0,1024
200a21b4:	4635                	li	a2,13
200a21b6:	4599                	li	a1,6
200a21b8:	a4ffe0ef          	jal	ra,200a0c06 <GPIO_PinAFConfig>
200a21bc:	4635                	li	a2,13
200a21be:	40040513          	addi	a0,s0,1024
200a21c2:	4589                	li	a1,2
200a21c4:	a43fe0ef          	jal	ra,200a0c06 <GPIO_PinAFConfig>
200a21c8:	04400793          	li	a5,68
200a21cc:	004c                	addi	a1,sp,4
200a21ce:	40040513          	addi	a0,s0,1024
200a21d2:	827c                	sh	a5,4(sp)
200a21d4:	c64a                	sw	s2,12(sp)
200a21d6:	947fe0ef          	jal	ra,200a0b1c <GPIO_Init>
200a21da:	0141                	addi	sp,sp,16
200a21dc:	8ccfe06f          	j	200a02a8 <__riscv_restore_0>

200a21e0 <OV2640_Init>:
200a21e0:	8a4fe2ef          	jal	t0,200a0284 <__riscv_save_0>
200a21e4:	e93ff0ef          	jal	ra,200a2076 <DVP_GPIO_Init>
200a21e8:	40011437          	lui	s0,0x40011
200a21ec:	4785                	li	a5,1
200a21ee:	c0040413          	addi	s0,s0,-1024 # 40010c00 <_eusrstack+0x1ff10c00>
200a21f2:	c85c                	sw	a5,20(s0)
200a21f4:	4529                	li	a0,10
200a21f6:	f4bfe0ef          	jal	ra,200a1140 <Delay_Ms>
200a21fa:	4489                	li	s1,2
200a21fc:	4529                	li	a0,10
200a21fe:	c844                	sw	s1,20(s0)
200a2200:	f41fe0ef          	jal	ra,200a1140 <Delay_Ms>
200a2204:	c804                	sw	s1,16(s0)
200a2206:	c1bff0ef          	jal	ra,200a1e20 <SCCB_GPIO_Init>
200a220a:	4585                	li	a1,1
200a220c:	0ff00513          	li	a0,255
200a2210:	dcbff0ef          	jal	ra,200a1fda <SCCB_WR_Reg>
200a2214:	08000593          	li	a1,128
200a2218:	4549                	li	a0,18
200a221a:	dc1ff0ef          	jal	ra,200a1fda <SCCB_WR_Reg>
200a221e:	03200513          	li	a0,50
200a2222:	f1ffe0ef          	jal	ra,200a1140 <Delay_Ms>
200a2226:	4571                	li	a0,28
200a2228:	df5ff0ef          	jal	ra,200a201c <SCCB_RD_Reg>
200a222c:	00851413          	slli	s0,a0,0x8
200a2230:	4575                	li	a0,29
200a2232:	debff0ef          	jal	ra,200a201c <SCCB_RD_Reg>
200a2236:	67a1                	lui	a5,0x8
200a2238:	08044433          	zext.h	s0,s0
200a223c:	fa278793          	addi	a5,a5,-94 # 7fa2 <__stack_size+0x77a2>
200a2240:	008565b3          	or	a1,a0,s0
200a2244:	0805c5b3          	zext.h	a1,a1
200a2248:	00f58b63          	beq	a1,a5,200a225e <OV2640_Init+0x7e>
200a224c:	00045537          	lui	a0,0x45
200a2250:	0a850513          	addi	a0,a0,168 # 450a8 <zigzag+0x40>
200a2254:	0cd010ef          	jal	ra,200a3b20 <iprintf>
200a2258:	4505                	li	a0,1
200a225a:	84efe06f          	j	200a02a8 <__riscv_restore_0>
200a225e:	4529                	li	a0,10
200a2260:	dbdff0ef          	jal	ra,200a201c <SCCB_RD_Reg>
200a2264:	00851413          	slli	s0,a0,0x8
200a2268:	452d                	li	a0,11
200a226a:	db3ff0ef          	jal	ra,200a201c <SCCB_RD_Reg>
200a226e:	6789                	lui	a5,0x2
200a2270:	08044433          	zext.h	s0,s0
200a2274:	64278793          	addi	a5,a5,1602 # 2642 <__stack_size+0x1e42>
200a2278:	008565b3          	or	a1,a0,s0
200a227c:	0805c5b3          	zext.h	a1,a1
200a2280:	00f58a63          	beq	a1,a5,200a2294 <OV2640_Init+0xb4>
200a2284:	00045537          	lui	a0,0x45
200a2288:	0b450513          	addi	a0,a0,180 # 450b4 <zigzag+0x4c>
200a228c:	095010ef          	jal	ra,200a3b20 <iprintf>
200a2290:	4509                	li	a0,2
200a2292:	b7e1                	j	200a225a <OV2640_Init+0x7a>
200a2294:	00045437          	lui	s0,0x45
200a2298:	0fc40413          	addi	s0,s0,252 # 450fc <OV2640_InitRegTbl>
200a229c:	16440493          	addi	s1,s0,356
200a22a0:	300c                	lbu	a1,1(s0)
200a22a2:	2008                	lbu	a0,0(s0)
200a22a4:	0409                	addi	s0,s0,2
200a22a6:	d35ff0ef          	jal	ra,200a1fda <SCCB_WR_Reg>
200a22aa:	fe941be3          	bne	s0,s1,200a22a0 <OV2640_Init+0xc0>
200a22ae:	4501                	li	a0,0
200a22b0:	b76d                	j	200a225a <OV2640_Init+0x7a>

200a22b2 <OV2640_JPEG_Mode>:
200a22b2:	fd3fd2ef          	jal	t0,200a0284 <__riscv_save_0>
200a22b6:	00045437          	lui	s0,0x45
200a22ba:	0ec40413          	addi	s0,s0,236 # 450ec <OV2640_YUV422RegTbl>
200a22be:	01040493          	addi	s1,s0,16
200a22c2:	300c                	lbu	a1,1(s0)
200a22c4:	2008                	lbu	a0,0(s0)
200a22c6:	0409                	addi	s0,s0,2
200a22c8:	d13ff0ef          	jal	ra,200a1fda <SCCB_WR_Reg>
200a22cc:	fe941be3          	bne	s0,s1,200a22c2 <OV2640_JPEG_Mode+0x10>
200a22d0:	00045437          	lui	s0,0x45
200a22d4:	0dc40413          	addi	s0,s0,220 # 450dc <OV2640_JPEGRegTbl>
200a22d8:	00e40493          	addi	s1,s0,14
200a22dc:	300c                	lbu	a1,1(s0)
200a22de:	2008                	lbu	a0,0(s0)
200a22e0:	0409                	addi	s0,s0,2
200a22e2:	cf9ff0ef          	jal	ra,200a1fda <SCCB_WR_Reg>
200a22e6:	fe941be3          	bne	s0,s1,200a22dc <OV2640_JPEG_Mode+0x2a>
200a22ea:	fbffd06f          	j	200a02a8 <__riscv_restore_0>

200a22ee <OV2640_RGB565_Mode>:
200a22ee:	f97fd2ef          	jal	t0,200a0284 <__riscv_save_0>
200a22f2:	00045437          	lui	s0,0x45
200a22f6:	0c040413          	addi	s0,s0,192 # 450c0 <OV2640_RGB565RegTbl>
200a22fa:	01c40493          	addi	s1,s0,28
200a22fe:	300c                	lbu	a1,1(s0)
200a2300:	2008                	lbu	a0,0(s0)
200a2302:	0409                	addi	s0,s0,2
200a2304:	cd7ff0ef          	jal	ra,200a1fda <SCCB_WR_Reg>
200a2308:	fe941be3          	bne	s0,s1,200a22fe <OV2640_RGB565_Mode+0x10>
200a230c:	f9dfd06f          	j	200a02a8 <__riscv_restore_0>

200a2310 <OV2640_OutSize_Set>:
200a2310:	00b567b3          	or	a5,a0,a1
200a2314:	8b8d                	andi	a5,a5,3
200a2316:	e3ad                	bnez	a5,200a2378 <OV2640_OutSize_Set+0x68>
200a2318:	f6dfd2ef          	jal	t0,200a0284 <__riscv_save_0>
200a231c:	84aa                	mv	s1,a0
200a231e:	842e                	mv	s0,a1
200a2320:	0ff00513          	li	a0,255
200a2324:	4581                	li	a1,0
200a2326:	cb5ff0ef          	jal	ra,200a1fda <SCCB_WR_Reg>
200a232a:	4591                	li	a1,4
200a232c:	0e000513          	li	a0,224
200a2330:	cabff0ef          	jal	ra,200a1fda <SCCB_WR_Reg>
200a2334:	0024d593          	srli	a1,s1,0x2
200a2338:	0ff5f593          	zext.b	a1,a1
200a233c:	05a00513          	li	a0,90
200a2340:	c9bff0ef          	jal	ra,200a1fda <SCCB_WR_Reg>
200a2344:	00245593          	srli	a1,s0,0x2
200a2348:	0ff5f593          	zext.b	a1,a1
200a234c:	05b00513          	li	a0,91
200a2350:	c8bff0ef          	jal	ra,200a1fda <SCCB_WR_Reg>
200a2354:	00a4d593          	srli	a1,s1,0xa
200a2358:	8021                	srli	s0,s0,0x8
200a235a:	8811                	andi	s0,s0,4
200a235c:	898d                	andi	a1,a1,3
200a235e:	8dc1                	or	a1,a1,s0
200a2360:	05c00513          	li	a0,92
200a2364:	c77ff0ef          	jal	ra,200a1fda <SCCB_WR_Reg>
200a2368:	4581                	li	a1,0
200a236a:	0e000513          	li	a0,224
200a236e:	c6dff0ef          	jal	ra,200a1fda <SCCB_WR_Reg>
200a2372:	4501                	li	a0,0
200a2374:	f35fd06f          	j	200a02a8 <__riscv_restore_0>
200a2378:	4505                	li	a0,1
200a237a:	8082                	ret

200a237c <OV2640_Speed_Set>:
200a237c:	f09fd2ef          	jal	t0,200a0284 <__riscv_save_0>
200a2380:	842e                	mv	s0,a1
200a2382:	84aa                	mv	s1,a0
200a2384:	4581                	li	a1,0
200a2386:	0ff00513          	li	a0,255
200a238a:	c51ff0ef          	jal	ra,200a1fda <SCCB_WR_Reg>
200a238e:	85a6                	mv	a1,s1
200a2390:	0d300513          	li	a0,211
200a2394:	c47ff0ef          	jal	ra,200a1fda <SCCB_WR_Reg>
200a2398:	4585                	li	a1,1
200a239a:	0ff00513          	li	a0,255
200a239e:	c3dff0ef          	jal	ra,200a1fda <SCCB_WR_Reg>
200a23a2:	85a2                	mv	a1,s0
200a23a4:	4545                	li	a0,17
200a23a6:	c35ff0ef          	jal	ra,200a1fda <SCCB_WR_Reg>
200a23aa:	efffd06f          	j	200a02a8 <__riscv_restore_0>

200a23ae <RGB565_Mode_Init>:
200a23ae:	ed7fd2ef          	jal	t0,200a0284 <__riscv_save_0>
200a23b2:	f3dff0ef          	jal	ra,200a22ee <OV2640_RGB565_Mode>
200a23b6:	14000593          	li	a1,320
200a23ba:	0f000513          	li	a0,240
200a23be:	f53ff0ef          	jal	ra,200a2310 <OV2640_OutSize_Set>
200a23c2:	4585                	li	a1,1
200a23c4:	4505                	li	a0,1
200a23c6:	fb7ff0ef          	jal	ra,200a237c <OV2640_Speed_Set>
200a23ca:	edffd06f          	j	200a02a8 <__riscv_restore_0>

200a23ce <JPEG_Mode_Init>:
200a23ce:	eb7fd2ef          	jal	t0,200a0284 <__riscv_save_0>
200a23d2:	ee1ff0ef          	jal	ra,200a22b2 <OV2640_JPEG_Mode>
200a23d6:	0f000593          	li	a1,240
200a23da:	14000513          	li	a0,320
200a23de:	f33ff0ef          	jal	ra,200a2310 <OV2640_OutSize_Set>
200a23e2:	4585                	li	a1,1
200a23e4:	4505                	li	a0,1
200a23e6:	f97ff0ef          	jal	ra,200a237c <OV2640_Speed_Set>
200a23ea:	ebffd06f          	j	200a02a8 <__riscv_restore_0>

200a23ee <expf>:
200a23ee:	1141                	addi	sp,sp,-16
200a23f0:	c422                	sw	s0,8(sp)
200a23f2:	c226                	sw	s1,4(sp)
200a23f4:	c606                	sw	ra,12(sp)
200a23f6:	84aa                	mv	s1,a0
200a23f8:	2055                	jal	200a249c <__ieee754_expf>
200a23fa:	842a                	mv	s0,a0
200a23fc:	8526                	mv	a0,s1
200a23fe:	21a9                	jal	200a2848 <finitef>
200a2400:	c11d                	beqz	a0,200a2426 <expf+0x38>
200a2402:	0001e597          	auipc	a1,0x1e
200a2406:	0525a583          	lw	a1,82(a1) # 200c0454 <_impure_ptr+0x1c>
200a240a:	8526                	mv	a0,s1
200a240c:	5fb000ef          	jal	ra,200a3206 <__gesf2>
200a2410:	02a05163          	blez	a0,200a2432 <expf+0x44>
200a2414:	706010ef          	jal	ra,200a3b1a <__errno>
200a2418:	02200793          	li	a5,34
200a241c:	c11c                	sw	a5,0(a0)
200a241e:	0001e417          	auipc	s0,0x1e
200a2422:	03242403          	lw	s0,50(s0) # 200c0450 <_impure_ptr+0x18>
200a2426:	40b2                	lw	ra,12(sp)
200a2428:	8522                	mv	a0,s0
200a242a:	4422                	lw	s0,8(sp)
200a242c:	4492                	lw	s1,4(sp)
200a242e:	0141                	addi	sp,sp,16
200a2430:	8082                	ret
200a2432:	0001e597          	auipc	a1,0x1e
200a2436:	0265a583          	lw	a1,38(a1) # 200c0458 <_impure_ptr+0x20>
200a243a:	8526                	mv	a0,s1
200a243c:	661000ef          	jal	ra,200a329c <__lesf2>
200a2440:	fe0553e3          	bgez	a0,200a2426 <expf+0x38>
200a2444:	6d6010ef          	jal	ra,200a3b1a <__errno>
200a2448:	02200793          	li	a5,34
200a244c:	c11c                	sw	a5,0(a0)
200a244e:	00000413          	li	s0,0
200a2452:	bfd1                	j	200a2426 <expf+0x38>

200a2454 <sqrtf>:
200a2454:	1141                	addi	sp,sp,-16
200a2456:	c422                	sw	s0,8(sp)
200a2458:	c226                	sw	s1,4(sp)
200a245a:	c606                	sw	ra,12(sp)
200a245c:	84aa                	mv	s1,a0
200a245e:	2471                	jal	200a26ea <__ieee754_sqrtf>
200a2460:	842a                	mv	s0,a0
200a2462:	85a6                	mv	a1,s1
200a2464:	8526                	mv	a0,s1
200a2466:	50c010ef          	jal	ra,200a3972 <__unordsf2>
200a246a:	e11d                	bnez	a0,200a2490 <sqrtf+0x3c>
200a246c:	00000593          	li	a1,0
200a2470:	8526                	mv	a0,s1
200a2472:	62b000ef          	jal	ra,200a329c <__lesf2>
200a2476:	00055d63          	bgez	a0,200a2490 <sqrtf+0x3c>
200a247a:	6a0010ef          	jal	ra,200a3b1a <__errno>
200a247e:	02100793          	li	a5,33
200a2482:	00000593          	li	a1,0
200a2486:	c11c                	sw	a5,0(a0)
200a2488:	852e                	mv	a0,a1
200a248a:	2bf000ef          	jal	ra,200a2f48 <__divsf3>
200a248e:	842a                	mv	s0,a0
200a2490:	40b2                	lw	ra,12(sp)
200a2492:	8522                	mv	a0,s0
200a2494:	4422                	lw	s0,8(sp)
200a2496:	4492                	lw	s1,4(sp)
200a2498:	0141                	addi	sp,sp,16
200a249a:	8082                	ret

200a249c <__ieee754_expf>:
200a249c:	1101                	addi	sp,sp,-32
200a249e:	cc22                	sw	s0,24(sp)
200a24a0:	ce06                	sw	ra,28(sp)
200a24a2:	ca26                	sw	s1,20(sp)
200a24a4:	c84a                	sw	s2,16(sp)
200a24a6:	c64e                	sw	s3,12(sp)
200a24a8:	c452                	sw	s4,8(sp)
200a24aa:	c256                	sw	s5,4(sp)
200a24ac:	7f800737          	lui	a4,0x7f800
200a24b0:	842a                	mv	s0,a0
200a24b2:	85aa                	mv	a1,a0
200a24b4:	49f51793          	bclri	a5,a0,0x1f
200a24b8:	1cf76563          	bltu	a4,a5,200a2682 <__ieee754_expf+0x1e6>
200a24bc:	01f55913          	srli	s2,a0,0x1f
200a24c0:	00e79e63          	bne	a5,a4,200a24dc <__ieee754_expf+0x40>
200a24c4:	22091063          	bnez	s2,200a26e4 <__ieee754_expf+0x248>
200a24c8:	40f2                	lw	ra,28(sp)
200a24ca:	8522                	mv	a0,s0
200a24cc:	4462                	lw	s0,24(sp)
200a24ce:	44d2                	lw	s1,20(sp)
200a24d0:	4942                	lw	s2,16(sp)
200a24d2:	49b2                	lw	s3,12(sp)
200a24d4:	4a22                	lw	s4,8(sp)
200a24d6:	4a92                	lw	s5,4(sp)
200a24d8:	6105                	addi	sp,sp,32
200a24da:	8082                	ret
200a24dc:	42b17737          	lui	a4,0x42b17
200a24e0:	21770713          	addi	a4,a4,535 # 42b17217 <_eusrstack+0x22a17217>
200a24e4:	00a75c63          	bge	a4,a0,200a24fc <__ieee754_expf+0x60>
200a24e8:	4462                	lw	s0,24(sp)
200a24ea:	40f2                	lw	ra,28(sp)
200a24ec:	44d2                	lw	s1,20(sp)
200a24ee:	4942                	lw	s2,16(sp)
200a24f0:	49b2                	lw	s3,12(sp)
200a24f2:	4a22                	lw	s4,8(sp)
200a24f4:	4a92                	lw	s5,4(sp)
200a24f6:	4501                	li	a0,0
200a24f8:	6105                	addi	sp,sp,32
200a24fa:	a689                	j	200a283c <__math_oflowf>
200a24fc:	02055263          	bgez	a0,200a2520 <__ieee754_expf+0x84>
200a2500:	42cff737          	lui	a4,0x42cff
200a2504:	1b570713          	addi	a4,a4,437 # 42cff1b5 <_eusrstack+0x22bff1b5>
200a2508:	00f77c63          	bgeu	a4,a5,200a2520 <__ieee754_expf+0x84>
200a250c:	4462                	lw	s0,24(sp)
200a250e:	40f2                	lw	ra,28(sp)
200a2510:	44d2                	lw	s1,20(sp)
200a2512:	4942                	lw	s2,16(sp)
200a2514:	49b2                	lw	s3,12(sp)
200a2516:	4a22                	lw	s4,8(sp)
200a2518:	4a92                	lw	s5,4(sp)
200a251a:	4501                	li	a0,0
200a251c:	6105                	addi	sp,sp,32
200a251e:	ae09                	j	200a2830 <__math_uflowf>
200a2520:	3eb17737          	lui	a4,0x3eb17
200a2524:	21870713          	addi	a4,a4,536 # 3eb17218 <_eusrstack+0x1ea17218>
200a2528:	12f77563          	bgeu	a4,a5,200a2652 <__ieee754_expf+0x1b6>
200a252c:	3f851737          	lui	a4,0x3f851
200a2530:	59170713          	addi	a4,a4,1425 # 3f851591 <_eusrstack+0x1f751591>
200a2534:	00291493          	slli	s1,s2,0x2
200a2538:	0cf76763          	bltu	a4,a5,200a2606 <__ieee754_expf+0x16a>
200a253c:	8c018793          	addi	a5,gp,-1856 # 200c04a0 <ln2HI>
200a2540:	97a6                	add	a5,a5,s1
200a2542:	438c                	lw	a1,0(a5)
200a2544:	8522                	mv	a0,s0
200a2546:	0b4010ef          	jal	ra,200a35fa <__subsf3>
200a254a:	8b818793          	addi	a5,gp,-1864 # 200c0498 <ln2LO>
200a254e:	97a6                	add	a5,a5,s1
200a2550:	0007aa03          	lw	s4,0(a5)
200a2554:	4485                	li	s1,1
200a2556:	412484b3          	sub	s1,s1,s2
200a255a:	89aa                	mv	s3,a0
200a255c:	412484b3          	sub	s1,s1,s2
200a2560:	85d2                	mv	a1,s4
200a2562:	854e                	mv	a0,s3
200a2564:	096010ef          	jal	ra,200a35fa <__subsf3>
200a2568:	842a                	mv	s0,a0
200a256a:	85a2                	mv	a1,s0
200a256c:	8522                	mv	a0,s0
200a256e:	5c7000ef          	jal	ra,200a3334 <__mulsf3>
200a2572:	0001e597          	auipc	a1,0x1e
200a2576:	efe5a583          	lw	a1,-258(a1) # 200c0470 <_impure_ptr+0x38>
200a257a:	892a                	mv	s2,a0
200a257c:	5b9000ef          	jal	ra,200a3334 <__mulsf3>
200a2580:	0001e597          	auipc	a1,0x1e
200a2584:	ef45a583          	lw	a1,-268(a1) # 200c0474 <_impure_ptr+0x3c>
200a2588:	072010ef          	jal	ra,200a35fa <__subsf3>
200a258c:	85ca                	mv	a1,s2
200a258e:	5a7000ef          	jal	ra,200a3334 <__mulsf3>
200a2592:	0001e597          	auipc	a1,0x1e
200a2596:	ee65a583          	lw	a1,-282(a1) # 200c0478 <_impure_ptr+0x40>
200a259a:	2d99                	jal	200a2bf0 <__addsf3>
200a259c:	85ca                	mv	a1,s2
200a259e:	597000ef          	jal	ra,200a3334 <__mulsf3>
200a25a2:	0001e597          	auipc	a1,0x1e
200a25a6:	eda5a583          	lw	a1,-294(a1) # 200c047c <_impure_ptr+0x44>
200a25aa:	050010ef          	jal	ra,200a35fa <__subsf3>
200a25ae:	85ca                	mv	a1,s2
200a25b0:	585000ef          	jal	ra,200a3334 <__mulsf3>
200a25b4:	0001e597          	auipc	a1,0x1e
200a25b8:	ecc5a583          	lw	a1,-308(a1) # 200c0480 <_impure_ptr+0x48>
200a25bc:	2d15                	jal	200a2bf0 <__addsf3>
200a25be:	85ca                	mv	a1,s2
200a25c0:	575000ef          	jal	ra,200a3334 <__mulsf3>
200a25c4:	85aa                	mv	a1,a0
200a25c6:	8522                	mv	a0,s0
200a25c8:	032010ef          	jal	ra,200a35fa <__subsf3>
200a25cc:	85aa                	mv	a1,a0
200a25ce:	892a                	mv	s2,a0
200a25d0:	8522                	mv	a0,s0
200a25d2:	563000ef          	jal	ra,200a3334 <__mulsf3>
200a25d6:	8aaa                	mv	s5,a0
200a25d8:	e8d5                	bnez	s1,200a268c <__ieee754_expf+0x1f0>
200a25da:	0001e597          	auipc	a1,0x1e
200a25de:	eaa5a583          	lw	a1,-342(a1) # 200c0484 <_impure_ptr+0x4c>
200a25e2:	854a                	mv	a0,s2
200a25e4:	016010ef          	jal	ra,200a35fa <__subsf3>
200a25e8:	85aa                	mv	a1,a0
200a25ea:	8556                	mv	a0,s5
200a25ec:	15d000ef          	jal	ra,200a2f48 <__divsf3>
200a25f0:	85a2                	mv	a1,s0
200a25f2:	008010ef          	jal	ra,200a35fa <__subsf3>
200a25f6:	85aa                	mv	a1,a0
200a25f8:	0001e517          	auipc	a0,0x1e
200a25fc:	e7452503          	lw	a0,-396(a0) # 200c046c <_impure_ptr+0x34>
200a2600:	7fb000ef          	jal	ra,200a35fa <__subsf3>
200a2604:	a041                	j	200a2684 <__ieee754_expf+0x1e8>
200a2606:	0001e597          	auipc	a1,0x1e
200a260a:	e565a583          	lw	a1,-426(a1) # 200c045c <_impure_ptr+0x24>
200a260e:	8522                	mv	a0,s0
200a2610:	525000ef          	jal	ra,200a3334 <__mulsf3>
200a2614:	8c818793          	addi	a5,gp,-1848 # 200c04a8 <halF>
200a2618:	97a6                	add	a5,a5,s1
200a261a:	438c                	lw	a1,0(a5)
200a261c:	2bd1                	jal	200a2bf0 <__addsf3>
200a261e:	390010ef          	jal	ra,200a39ae <__fixsfsi>
200a2622:	84aa                	mv	s1,a0
200a2624:	436010ef          	jal	ra,200a3a5a <__floatsisf>
200a2628:	0001e597          	auipc	a1,0x1e
200a262c:	e385a583          	lw	a1,-456(a1) # 200c0460 <_impure_ptr+0x28>
200a2630:	892a                	mv	s2,a0
200a2632:	503000ef          	jal	ra,200a3334 <__mulsf3>
200a2636:	85aa                	mv	a1,a0
200a2638:	8522                	mv	a0,s0
200a263a:	7c1000ef          	jal	ra,200a35fa <__subsf3>
200a263e:	89aa                	mv	s3,a0
200a2640:	0001e597          	auipc	a1,0x1e
200a2644:	e245a583          	lw	a1,-476(a1) # 200c0464 <_impure_ptr+0x2c>
200a2648:	854a                	mv	a0,s2
200a264a:	4eb000ef          	jal	ra,200a3334 <__mulsf3>
200a264e:	8a2a                	mv	s4,a0
200a2650:	bf01                	j	200a2560 <__ieee754_expf+0xc4>
200a2652:	34000737          	lui	a4,0x34000
200a2656:	02e7f963          	bgeu	a5,a4,200a2688 <__ieee754_expf+0x1ec>
200a265a:	0001e597          	auipc	a1,0x1e
200a265e:	e0e5a583          	lw	a1,-498(a1) # 200c0468 <_impure_ptr+0x30>
200a2662:	8522                	mv	a0,s0
200a2664:	2371                	jal	200a2bf0 <__addsf3>
200a2666:	0001e597          	auipc	a1,0x1e
200a266a:	e065a583          	lw	a1,-506(a1) # 200c046c <_impure_ptr+0x34>
200a266e:	399000ef          	jal	ra,200a3206 <__gesf2>
200a2672:	00a05b63          	blez	a0,200a2688 <__ieee754_expf+0x1ec>
200a2676:	0001e797          	auipc	a5,0x1e
200a267a:	df678793          	addi	a5,a5,-522 # 200c046c <_impure_ptr+0x34>
200a267e:	438c                	lw	a1,0(a5)
200a2680:	8522                	mv	a0,s0
200a2682:	23bd                	jal	200a2bf0 <__addsf3>
200a2684:	842a                	mv	s0,a0
200a2686:	b589                	j	200a24c8 <__ieee754_expf+0x2c>
200a2688:	4481                	li	s1,0
200a268a:	b5c5                	j	200a256a <__ieee754_expf+0xce>
200a268c:	85ca                	mv	a1,s2
200a268e:	0001e517          	auipc	a0,0x1e
200a2692:	df652503          	lw	a0,-522(a0) # 200c0484 <_impure_ptr+0x4c>
200a2696:	765000ef          	jal	ra,200a35fa <__subsf3>
200a269a:	85aa                	mv	a1,a0
200a269c:	8556                	mv	a0,s5
200a269e:	0ab000ef          	jal	ra,200a2f48 <__divsf3>
200a26a2:	85aa                	mv	a1,a0
200a26a4:	8552                	mv	a0,s4
200a26a6:	755000ef          	jal	ra,200a35fa <__subsf3>
200a26aa:	85ce                	mv	a1,s3
200a26ac:	74f000ef          	jal	ra,200a35fa <__subsf3>
200a26b0:	85aa                	mv	a1,a0
200a26b2:	0001e517          	auipc	a0,0x1e
200a26b6:	dba52503          	lw	a0,-582(a0) # 200c046c <_impure_ptr+0x34>
200a26ba:	741000ef          	jal	ra,200a35fa <__subsf3>
200a26be:	f8300793          	li	a5,-125
200a26c2:	00f4c663          	blt	s1,a5,200a26ce <__ieee754_expf+0x232>
200a26c6:	04de                	slli	s1,s1,0x17
200a26c8:	00a48433          	add	s0,s1,a0
200a26cc:	bbf5                	j	200a24c8 <__ieee754_expf+0x2c>
200a26ce:	06448493          	addi	s1,s1,100
200a26d2:	04de                	slli	s1,s1,0x17
200a26d4:	0001e597          	auipc	a1,0x1e
200a26d8:	db45a583          	lw	a1,-588(a1) # 200c0488 <_impure_ptr+0x50>
200a26dc:	9526                	add	a0,a0,s1
200a26de:	457000ef          	jal	ra,200a3334 <__mulsf3>
200a26e2:	b74d                	j	200a2684 <__ieee754_expf+0x1e8>
200a26e4:	00000413          	li	s0,0
200a26e8:	b3c5                	j	200a24c8 <__ieee754_expf+0x2c>

200a26ea <__ieee754_sqrtf>:
200a26ea:	1101                	addi	sp,sp,-32
200a26ec:	cc22                	sw	s0,24(sp)
200a26ee:	ce06                	sw	ra,28(sp)
200a26f0:	ca26                	sw	s1,20(sp)
200a26f2:	c84a                	sw	s2,16(sp)
200a26f4:	c64e                	sw	s3,12(sp)
200a26f6:	c452                	sw	s4,8(sp)
200a26f8:	7f8006b7          	lui	a3,0x7f800
200a26fc:	842a                	mv	s0,a0
200a26fe:	49f51793          	bclri	a5,a0,0x1f
200a2702:	02d7e263          	bltu	a5,a3,200a2726 <__ieee754_sqrtf+0x3c>
200a2706:	85aa                	mv	a1,a0
200a2708:	42d000ef          	jal	ra,200a3334 <__mulsf3>
200a270c:	85aa                	mv	a1,a0
200a270e:	8522                	mv	a0,s0
200a2710:	21c5                	jal	200a2bf0 <__addsf3>
200a2712:	842a                	mv	s0,a0
200a2714:	40f2                	lw	ra,28(sp)
200a2716:	8522                	mv	a0,s0
200a2718:	4462                	lw	s0,24(sp)
200a271a:	44d2                	lw	s1,20(sp)
200a271c:	4942                	lw	s2,16(sp)
200a271e:	49b2                	lw	s3,12(sp)
200a2720:	4a22                	lw	s4,8(sp)
200a2722:	6105                	addi	sp,sp,32
200a2724:	8082                	ret
200a2726:	d7fd                	beqz	a5,200a2714 <__ieee754_sqrtf+0x2a>
200a2728:	87aa                	mv	a5,a0
200a272a:	00055963          	bgez	a0,200a273c <__ieee754_sqrtf+0x52>
200a272e:	85aa                	mv	a1,a0
200a2730:	6cb000ef          	jal	ra,200a35fa <__subsf3>
200a2734:	85aa                	mv	a1,a0
200a2736:	013000ef          	jal	ra,200a2f48 <__divsf3>
200a273a:	bfe1                	j	200a2712 <__ieee754_sqrtf+0x28>
200a273c:	8ee9                	and	a3,a3,a0
200a273e:	41755713          	srai	a4,a0,0x17
200a2742:	c2d5                	beqz	a3,200a27e6 <__ieee754_sqrtf+0xfc>
200a2744:	f8170713          	addi	a4,a4,-127 # 33ffff81 <_eusrstack+0x13efff81>
200a2748:	07a6                	slli	a5,a5,0x9
200a274a:	83a5                	srli	a5,a5,0x9
200a274c:	00177693          	andi	a3,a4,1
200a2750:	29779793          	bseti	a5,a5,0x17
200a2754:	c291                	beqz	a3,200a2758 <__ieee754_sqrtf+0x6e>
200a2756:	0786                	slli	a5,a5,0x1
200a2758:	40175413          	srai	s0,a4,0x1
200a275c:	0786                	slli	a5,a5,0x1
200a275e:	4665                	li	a2,25
200a2760:	4481                	li	s1,0
200a2762:	4501                	li	a0,0
200a2764:	010006b7          	lui	a3,0x1000
200a2768:	00d505b3          	add	a1,a0,a3
200a276c:	873e                	mv	a4,a5
200a276e:	00b7c763          	blt	a5,a1,200a277c <__ieee754_sqrtf+0x92>
200a2772:	00d58533          	add	a0,a1,a3
200a2776:	40b78733          	sub	a4,a5,a1
200a277a:	94b6                	add	s1,s1,a3
200a277c:	167d                	addi	a2,a2,-1
200a277e:	00171793          	slli	a5,a4,0x1
200a2782:	8285                	srli	a3,a3,0x1
200a2784:	f275                	bnez	a2,200a2768 <__ieee754_sqrtf+0x7e>
200a2786:	c329                	beqz	a4,200a27c8 <__ieee754_sqrtf+0xde>
200a2788:	85418913          	addi	s2,gp,-1964 # 200c0434 <one>
200a278c:	85018993          	addi	s3,gp,-1968 # 200c0430 <tiny>
200a2790:	00092503          	lw	a0,0(s2)
200a2794:	0009a583          	lw	a1,0(s3)
200a2798:	00092a03          	lw	s4,0(s2)
200a279c:	65f000ef          	jal	ra,200a35fa <__subsf3>
200a27a0:	85aa                	mv	a1,a0
200a27a2:	8552                	mv	a0,s4
200a27a4:	2f9000ef          	jal	ra,200a329c <__lesf2>
200a27a8:	02a04063          	bgtz	a0,200a27c8 <__ieee754_sqrtf+0xde>
200a27ac:	00092503          	lw	a0,0(s2)
200a27b0:	0009a583          	lw	a1,0(s3)
200a27b4:	00092903          	lw	s2,0(s2)
200a27b8:	2925                	jal	200a2bf0 <__addsf3>
200a27ba:	85aa                	mv	a1,a0
200a27bc:	854a                	mv	a0,s2
200a27be:	2df000ef          	jal	ra,200a329c <__lesf2>
200a27c2:	02055663          	bgez	a0,200a27ee <__ieee754_sqrtf+0x104>
200a27c6:	0489                	addi	s1,s1,2
200a27c8:	8485                	srai	s1,s1,0x1
200a27ca:	3f0007b7          	lui	a5,0x3f000
200a27ce:	94be                	add	s1,s1,a5
200a27d0:	045e                	slli	s0,s0,0x17
200a27d2:	9426                	add	s0,s0,s1
200a27d4:	b781                	j	200a2714 <__ieee754_sqrtf+0x2a>
200a27d6:	0786                	slli	a5,a5,0x1
200a27d8:	0685                	addi	a3,a3,1 # 1000001 <_data_lma+0xfb7699>
200a27da:	00b7f633          	and	a2,a5,a1
200a27de:	de65                	beqz	a2,200a27d6 <__ieee754_sqrtf+0xec>
200a27e0:	16fd                	addi	a3,a3,-1
200a27e2:	8f15                	sub	a4,a4,a3
200a27e4:	b785                	j	200a2744 <__ieee754_sqrtf+0x5a>
200a27e6:	4681                	li	a3,0
200a27e8:	008005b7          	lui	a1,0x800
200a27ec:	b7fd                	j	200a27da <__ieee754_sqrtf+0xf0>
200a27ee:	0485                	addi	s1,s1,1
200a27f0:	98f9                	andi	s1,s1,-2
200a27f2:	bfd9                	j	200a27c8 <__ieee754_sqrtf+0xde>

200a27f4 <with_errnof>:
200a27f4:	1141                	addi	sp,sp,-16
200a27f6:	c422                	sw	s0,8(sp)
200a27f8:	c226                	sw	s1,4(sp)
200a27fa:	c606                	sw	ra,12(sp)
200a27fc:	842a                	mv	s0,a0
200a27fe:	84ae                	mv	s1,a1
200a2800:	31a010ef          	jal	ra,200a3b1a <__errno>
200a2804:	c104                	sw	s1,0(a0)
200a2806:	40b2                	lw	ra,12(sp)
200a2808:	8522                	mv	a0,s0
200a280a:	4422                	lw	s0,8(sp)
200a280c:	4492                	lw	s1,4(sp)
200a280e:	0141                	addi	sp,sp,16
200a2810:	8082                	ret

200a2812 <xflowf>:
200a2812:	1141                	addi	sp,sp,-16
200a2814:	c606                	sw	ra,12(sp)
200a2816:	c919                	beqz	a0,200a282c <xflowf+0x1a>
200a2818:	69f59513          	binvi	a0,a1,0x1f
200a281c:	319000ef          	jal	ra,200a3334 <__mulsf3>
200a2820:	40b2                	lw	ra,12(sp)
200a2822:	02200593          	li	a1,34
200a2826:	0141                	addi	sp,sp,16
200a2828:	fcdff06f          	j	200a27f4 <with_errnof>
200a282c:	852e                	mv	a0,a1
200a282e:	b7fd                	j	200a281c <xflowf+0xa>

200a2830 <__math_uflowf>:
200a2830:	0001e597          	auipc	a1,0x1e
200a2834:	c5c5a583          	lw	a1,-932(a1) # 200c048c <_impure_ptr+0x54>
200a2838:	fdbff06f          	j	200a2812 <xflowf>

200a283c <__math_oflowf>:
200a283c:	0001e597          	auipc	a1,0x1e
200a2840:	c545a583          	lw	a1,-940(a1) # 200c0490 <_impure_ptr+0x58>
200a2844:	fcfff06f          	j	200a2812 <xflowf>

200a2848 <finitef>:
200a2848:	7f8007b7          	lui	a5,0x7f800
200a284c:	49f51513          	bclri	a0,a0,0x1f
200a2850:	00f52533          	slt	a0,a0,a5
200a2854:	8082                	ret

200a2856 <__udivdi3>:
200a2856:	8832                	mv	a6,a2
200a2858:	88aa                	mv	a7,a0
200a285a:	872e                	mv	a4,a1
200a285c:	eacd                	bnez	a3,200a290e <__udivdi3+0xb8>
200a285e:	0ec5ff63          	bgeu	a1,a2,200a295c <__udivdi3+0x106>
200a2862:	67c1                	lui	a5,0x10
200a2864:	18f66a63          	bltu	a2,a5,200a29f8 <__udivdi3+0x1a2>
200a2868:	010007b7          	lui	a5,0x1000
200a286c:	00f637b3          	sltu	a5,a2,a5
200a2870:	40f007b3          	neg	a5,a5
200a2874:	9be1                	andi	a5,a5,-8
200a2876:	07e1                	addi	a5,a5,24 # 1000018 <_data_lma+0xfb76b0>
200a2878:	00f65333          	srl	t1,a2,a5
200a287c:	dffa6697          	auipc	a3,0xdffa6
200a2880:	ea468693          	addi	a3,a3,-348 # 48720 <__clz_tab>
200a2884:	969a                	add	a3,a3,t1
200a2886:	2294                	lbu	a3,0(a3)
200a2888:	02000313          	li	t1,32
200a288c:	97b6                	add	a5,a5,a3
200a288e:	40f306b3          	sub	a3,t1,a5
200a2892:	00f30b63          	beq	t1,a5,200a28a8 <__udivdi3+0x52>
200a2896:	00d59733          	sll	a4,a1,a3
200a289a:	00f557b3          	srl	a5,a0,a5
200a289e:	00d61833          	sll	a6,a2,a3
200a28a2:	8f5d                	or	a4,a4,a5
200a28a4:	00d518b3          	sll	a7,a0,a3
200a28a8:	01085613          	srli	a2,a6,0x10
200a28ac:	02c75533          	divu	a0,a4,a2
200a28b0:	080846b3          	zext.h	a3,a6
200a28b4:	0108d793          	srli	a5,a7,0x10
200a28b8:	02c77733          	remu	a4,a4,a2
200a28bc:	02a685b3          	mul	a1,a3,a0
200a28c0:	0742                	slli	a4,a4,0x10
200a28c2:	8fd9                	or	a5,a5,a4
200a28c4:	00b7fa63          	bgeu	a5,a1,200a28d8 <__udivdi3+0x82>
200a28c8:	97c2                	add	a5,a5,a6
200a28ca:	fff50713          	addi	a4,a0,-1
200a28ce:	0107e463          	bltu	a5,a6,200a28d6 <__udivdi3+0x80>
200a28d2:	30b7e863          	bltu	a5,a1,200a2be2 <__udivdi3+0x38c>
200a28d6:	853a                	mv	a0,a4
200a28d8:	8f8d                	sub	a5,a5,a1
200a28da:	02c7d733          	divu	a4,a5,a2
200a28de:	0808c8b3          	zext.h	a7,a7
200a28e2:	02c7f7b3          	remu	a5,a5,a2
200a28e6:	02e686b3          	mul	a3,a3,a4
200a28ea:	07c2                	slli	a5,a5,0x10
200a28ec:	00f8e8b3          	or	a7,a7,a5
200a28f0:	00d8fb63          	bgeu	a7,a3,200a2906 <__udivdi3+0xb0>
200a28f4:	98c2                	add	a7,a7,a6
200a28f6:	fff70793          	addi	a5,a4,-1
200a28fa:	0108e563          	bltu	a7,a6,200a2904 <__udivdi3+0xae>
200a28fe:	1779                	addi	a4,a4,-2
200a2900:	00d8e363          	bltu	a7,a3,200a2906 <__udivdi3+0xb0>
200a2904:	873e                	mv	a4,a5
200a2906:	0542                	slli	a0,a0,0x10
200a2908:	8d59                	or	a0,a0,a4
200a290a:	4581                	li	a1,0
200a290c:	8082                	ret
200a290e:	00d5f563          	bgeu	a1,a3,200a2918 <__udivdi3+0xc2>
200a2912:	4581                	li	a1,0
200a2914:	4501                	li	a0,0
200a2916:	8082                	ret
200a2918:	67c1                	lui	a5,0x10
200a291a:	18f6e563          	bltu	a3,a5,200a2aa4 <__udivdi3+0x24e>
200a291e:	010007b7          	lui	a5,0x1000
200a2922:	00f6b7b3          	sltu	a5,a3,a5
200a2926:	40f007b3          	neg	a5,a5
200a292a:	9be1                	andi	a5,a5,-8
200a292c:	07e1                	addi	a5,a5,24 # 1000018 <_data_lma+0xfb76b0>
200a292e:	00f6d833          	srl	a6,a3,a5
200a2932:	dffa6717          	auipc	a4,0xdffa6
200a2936:	dee70713          	addi	a4,a4,-530 # 48720 <__clz_tab>
200a293a:	9742                	add	a4,a4,a6
200a293c:	2318                	lbu	a4,0(a4)
200a293e:	02000893          	li	a7,32
200a2942:	973e                	add	a4,a4,a5
200a2944:	40e88833          	sub	a6,a7,a4
200a2948:	18e89263          	bne	a7,a4,200a2acc <__udivdi3+0x276>
200a294c:	26b6ed63          	bltu	a3,a1,200a2bc6 <__udivdi3+0x370>
200a2950:	00c53533          	sltu	a0,a0,a2
200a2954:	00154513          	xori	a0,a0,1
200a2958:	4581                	li	a1,0
200a295a:	8082                	ret
200a295c:	c645                	beqz	a2,200a2a04 <__udivdi3+0x1ae>
200a295e:	67c1                	lui	a5,0x10
200a2960:	24f67b63          	bgeu	a2,a5,200a2bb6 <__udivdi3+0x360>
200a2964:	10063713          	sltiu	a4,a2,256
200a2968:	00174713          	xori	a4,a4,1
200a296c:	070e                	slli	a4,a4,0x3
200a296e:	00e656b3          	srl	a3,a2,a4
200a2972:	dffa6797          	auipc	a5,0xdffa6
200a2976:	dae78793          	addi	a5,a5,-594 # 48720 <__clz_tab>
200a297a:	97b6                	add	a5,a5,a3
200a297c:	239c                	lbu	a5,0(a5)
200a297e:	02000693          	li	a3,32
200a2982:	97ba                	add	a5,a5,a4
200a2984:	40f68eb3          	sub	t4,a3,a5
200a2988:	08f69d63          	bne	a3,a5,200a2a22 <__udivdi3+0x1cc>
200a298c:	40c587b3          	sub	a5,a1,a2
200a2990:	4585                	li	a1,1
200a2992:	01065693          	srli	a3,a2,0x10
200a2996:	08064633          	zext.h	a2,a2
200a299a:	02d7d533          	divu	a0,a5,a3
200a299e:	0108d713          	srli	a4,a7,0x10
200a29a2:	02d7f7b3          	remu	a5,a5,a3
200a29a6:	02c50333          	mul	t1,a0,a2
200a29aa:	07c2                	slli	a5,a5,0x10
200a29ac:	8fd9                	or	a5,a5,a4
200a29ae:	0067fa63          	bgeu	a5,t1,200a29c2 <__udivdi3+0x16c>
200a29b2:	97c2                	add	a5,a5,a6
200a29b4:	fff50713          	addi	a4,a0,-1
200a29b8:	0107e463          	bltu	a5,a6,200a29c0 <__udivdi3+0x16a>
200a29bc:	2267e063          	bltu	a5,t1,200a2bdc <__udivdi3+0x386>
200a29c0:	853a                	mv	a0,a4
200a29c2:	406787b3          	sub	a5,a5,t1
200a29c6:	02d7d733          	divu	a4,a5,a3
200a29ca:	0808c8b3          	zext.h	a7,a7
200a29ce:	02d7f7b3          	remu	a5,a5,a3
200a29d2:	02c70633          	mul	a2,a4,a2
200a29d6:	07c2                	slli	a5,a5,0x10
200a29d8:	00f8e8b3          	or	a7,a7,a5
200a29dc:	00c8fb63          	bgeu	a7,a2,200a29f2 <__udivdi3+0x19c>
200a29e0:	98c2                	add	a7,a7,a6
200a29e2:	fff70793          	addi	a5,a4,-1
200a29e6:	0108e563          	bltu	a7,a6,200a29f0 <__udivdi3+0x19a>
200a29ea:	1779                	addi	a4,a4,-2
200a29ec:	00c8e363          	bltu	a7,a2,200a29f2 <__udivdi3+0x19c>
200a29f0:	873e                	mv	a4,a5
200a29f2:	0542                	slli	a0,a0,0x10
200a29f4:	8d59                	or	a0,a0,a4
200a29f6:	8082                	ret
200a29f8:	10063793          	sltiu	a5,a2,256
200a29fc:	0017c793          	xori	a5,a5,1
200a2a00:	078e                	slli	a5,a5,0x3
200a2a02:	bd9d                	j	200a2878 <__udivdi3+0x22>
200a2a04:	4681                	li	a3,0
200a2a06:	dffa6797          	auipc	a5,0xdffa6
200a2a0a:	d1a78793          	addi	a5,a5,-742 # 48720 <__clz_tab>
200a2a0e:	97b6                	add	a5,a5,a3
200a2a10:	239c                	lbu	a5,0(a5)
200a2a12:	4701                	li	a4,0
200a2a14:	02000693          	li	a3,32
200a2a18:	97ba                	add	a5,a5,a4
200a2a1a:	40f68eb3          	sub	t4,a3,a5
200a2a1e:	f6f687e3          	beq	a3,a5,200a298c <__udivdi3+0x136>
200a2a22:	01d61833          	sll	a6,a2,t4
200a2a26:	00f5d333          	srl	t1,a1,a5
200a2a2a:	01085693          	srli	a3,a6,0x10
200a2a2e:	02d35e33          	divu	t3,t1,a3
200a2a32:	01d595b3          	sll	a1,a1,t4
200a2a36:	00f557b3          	srl	a5,a0,a5
200a2a3a:	8fcd                	or	a5,a5,a1
200a2a3c:	08084633          	zext.h	a2,a6
200a2a40:	0107d713          	srli	a4,a5,0x10
200a2a44:	01d518b3          	sll	a7,a0,t4
200a2a48:	02d37333          	remu	t1,t1,a3
200a2a4c:	03c605b3          	mul	a1,a2,t3
200a2a50:	0342                	slli	t1,t1,0x10
200a2a52:	00676733          	or	a4,a4,t1
200a2a56:	00b77b63          	bgeu	a4,a1,200a2a6c <__udivdi3+0x216>
200a2a5a:	9742                	add	a4,a4,a6
200a2a5c:	fffe0513          	addi	a0,t3,-1
200a2a60:	17076a63          	bltu	a4,a6,200a2bd4 <__udivdi3+0x37e>
200a2a64:	16b77863          	bgeu	a4,a1,200a2bd4 <__udivdi3+0x37e>
200a2a68:	1e79                	addi	t3,t3,-2
200a2a6a:	9742                	add	a4,a4,a6
200a2a6c:	8f0d                	sub	a4,a4,a1
200a2a6e:	02d75533          	divu	a0,a4,a3
200a2a72:	0807c7b3          	zext.h	a5,a5
200a2a76:	02d77733          	remu	a4,a4,a3
200a2a7a:	02a60333          	mul	t1,a2,a0
200a2a7e:	0742                	slli	a4,a4,0x10
200a2a80:	8fd9                	or	a5,a5,a4
200a2a82:	0067fb63          	bgeu	a5,t1,200a2a98 <__udivdi3+0x242>
200a2a86:	97c2                	add	a5,a5,a6
200a2a88:	fff50713          	addi	a4,a0,-1
200a2a8c:	1507e063          	bltu	a5,a6,200a2bcc <__udivdi3+0x376>
200a2a90:	1267fe63          	bgeu	a5,t1,200a2bcc <__udivdi3+0x376>
200a2a94:	1579                	addi	a0,a0,-2
200a2a96:	97c2                	add	a5,a5,a6
200a2a98:	010e1593          	slli	a1,t3,0x10
200a2a9c:	406787b3          	sub	a5,a5,t1
200a2aa0:	8dc9                	or	a1,a1,a0
200a2aa2:	bde5                	j	200a299a <__udivdi3+0x144>
200a2aa4:	1006b793          	sltiu	a5,a3,256
200a2aa8:	0017c793          	xori	a5,a5,1
200a2aac:	078e                	slli	a5,a5,0x3
200a2aae:	00f6d833          	srl	a6,a3,a5
200a2ab2:	dffa6717          	auipc	a4,0xdffa6
200a2ab6:	c6e70713          	addi	a4,a4,-914 # 48720 <__clz_tab>
200a2aba:	9742                	add	a4,a4,a6
200a2abc:	2318                	lbu	a4,0(a4)
200a2abe:	02000893          	li	a7,32
200a2ac2:	973e                	add	a4,a4,a5
200a2ac4:	40e88833          	sub	a6,a7,a4
200a2ac8:	e8e882e3          	beq	a7,a4,200a294c <__udivdi3+0xf6>
200a2acc:	00e65e33          	srl	t3,a2,a4
200a2ad0:	010696b3          	sll	a3,a3,a6
200a2ad4:	00de6e33          	or	t3,t3,a3
200a2ad8:	00e5d8b3          	srl	a7,a1,a4
200a2adc:	010e5e93          	srli	t4,t3,0x10
200a2ae0:	03d8d7b3          	divu	a5,a7,t4
200a2ae4:	010595b3          	sll	a1,a1,a6
200a2ae8:	00e55733          	srl	a4,a0,a4
200a2aec:	8f4d                	or	a4,a4,a1
200a2aee:	080e4333          	zext.h	t1,t3
200a2af2:	01075693          	srli	a3,a4,0x10
200a2af6:	01061633          	sll	a2,a2,a6
200a2afa:	03d8f8b3          	remu	a7,a7,t4
200a2afe:	02f305b3          	mul	a1,t1,a5
200a2b02:	08c2                	slli	a7,a7,0x10
200a2b04:	0116e6b3          	or	a3,a3,a7
200a2b08:	00b6fb63          	bgeu	a3,a1,200a2b1e <__udivdi3+0x2c8>
200a2b0c:	96f2                	add	a3,a3,t3
200a2b0e:	fff78893          	addi	a7,a5,-1
200a2b12:	0dc6e363          	bltu	a3,t3,200a2bd8 <__udivdi3+0x382>
200a2b16:	0cb6f163          	bgeu	a3,a1,200a2bd8 <__udivdi3+0x382>
200a2b1a:	17f9                	addi	a5,a5,-2
200a2b1c:	96f2                	add	a3,a3,t3
200a2b1e:	8e8d                	sub	a3,a3,a1
200a2b20:	03d6d5b3          	divu	a1,a3,t4
200a2b24:	08074733          	zext.h	a4,a4
200a2b28:	03d6f6b3          	remu	a3,a3,t4
200a2b2c:	02b308b3          	mul	a7,t1,a1
200a2b30:	06c2                	slli	a3,a3,0x10
200a2b32:	8f55                	or	a4,a4,a3
200a2b34:	01177b63          	bgeu	a4,a7,200a2b4a <__udivdi3+0x2f4>
200a2b38:	9772                	add	a4,a4,t3
200a2b3a:	fff58693          	addi	a3,a1,-1
200a2b3e:	09c76963          	bltu	a4,t3,200a2bd0 <__udivdi3+0x37a>
200a2b42:	09177763          	bgeu	a4,a7,200a2bd0 <__udivdi3+0x37a>
200a2b46:	15f9                	addi	a1,a1,-2
200a2b48:	9772                	add	a4,a4,t3
200a2b4a:	07c2                	slli	a5,a5,0x10
200a2b4c:	6ec1                	lui	t4,0x10
200a2b4e:	8fcd                	or	a5,a5,a1
200a2b50:	fffe8693          	addi	a3,t4,-1 # ffff <__stack_size+0xf7ff>
200a2b54:	00d7f5b3          	and	a1,a5,a3
200a2b58:	0107d313          	srli	t1,a5,0x10
200a2b5c:	8ef1                	and	a3,a3,a2
200a2b5e:	8241                	srli	a2,a2,0x10
200a2b60:	02d58e33          	mul	t3,a1,a3
200a2b64:	41170733          	sub	a4,a4,a7
200a2b68:	02d306b3          	mul	a3,t1,a3
200a2b6c:	010e5893          	srli	a7,t3,0x10
200a2b70:	02c585b3          	mul	a1,a1,a2
200a2b74:	95b6                	add	a1,a1,a3
200a2b76:	95c6                	add	a1,a1,a7
200a2b78:	02c30333          	mul	t1,t1,a2
200a2b7c:	00d5f363          	bgeu	a1,a3,200a2b82 <__udivdi3+0x32c>
200a2b80:	9376                	add	t1,t1,t4
200a2b82:	0105d693          	srli	a3,a1,0x10
200a2b86:	969a                	add	a3,a3,t1
200a2b88:	02d76363          	bltu	a4,a3,200a2bae <__udivdi3+0x358>
200a2b8c:	00d70563          	beq	a4,a3,200a2b96 <__udivdi3+0x340>
200a2b90:	853e                	mv	a0,a5
200a2b92:	4581                	li	a1,0
200a2b94:	8082                	ret
200a2b96:	66c1                	lui	a3,0x10
200a2b98:	16fd                	addi	a3,a3,-1 # ffff <__stack_size+0xf7ff>
200a2b9a:	00d5f733          	and	a4,a1,a3
200a2b9e:	0742                	slli	a4,a4,0x10
200a2ba0:	00de7e33          	and	t3,t3,a3
200a2ba4:	01051533          	sll	a0,a0,a6
200a2ba8:	9772                	add	a4,a4,t3
200a2baa:	fee573e3          	bgeu	a0,a4,200a2b90 <__udivdi3+0x33a>
200a2bae:	fff78513          	addi	a0,a5,-1
200a2bb2:	4581                	li	a1,0
200a2bb4:	8082                	ret
200a2bb6:	010007b7          	lui	a5,0x1000
200a2bba:	02f67763          	bgeu	a2,a5,200a2be8 <__udivdi3+0x392>
200a2bbe:	01065693          	srli	a3,a2,0x10
200a2bc2:	4741                	li	a4,16
200a2bc4:	b37d                	j	200a2972 <__udivdi3+0x11c>
200a2bc6:	4581                	li	a1,0
200a2bc8:	4505                	li	a0,1
200a2bca:	8082                	ret
200a2bcc:	853a                	mv	a0,a4
200a2bce:	b5e9                	j	200a2a98 <__udivdi3+0x242>
200a2bd0:	85b6                	mv	a1,a3
200a2bd2:	bfa5                	j	200a2b4a <__udivdi3+0x2f4>
200a2bd4:	8e2a                	mv	t3,a0
200a2bd6:	bd59                	j	200a2a6c <__udivdi3+0x216>
200a2bd8:	87c6                	mv	a5,a7
200a2bda:	b791                	j	200a2b1e <__udivdi3+0x2c8>
200a2bdc:	1579                	addi	a0,a0,-2
200a2bde:	97c2                	add	a5,a5,a6
200a2be0:	b3cd                	j	200a29c2 <__udivdi3+0x16c>
200a2be2:	1579                	addi	a0,a0,-2
200a2be4:	97c2                	add	a5,a5,a6
200a2be6:	b9cd                	j	200a28d8 <__udivdi3+0x82>
200a2be8:	01865693          	srli	a3,a2,0x18
200a2bec:	4761                	li	a4,24
200a2bee:	b351                	j	200a2972 <__udivdi3+0x11c>

200a2bf0 <__addsf3>:
200a2bf0:	00800737          	lui	a4,0x800
200a2bf4:	177d                	addi	a4,a4,-1 # 7fffff <_data_lma+0x7b7697>
200a2bf6:	01755693          	srli	a3,a0,0x17
200a2bfa:	0175d613          	srli	a2,a1,0x17
200a2bfe:	00a777b3          	and	a5,a4,a0
200a2c02:	0ff6f313          	zext.b	t1,a3
200a2c06:	8f6d                	and	a4,a4,a1
200a2c08:	01f55813          	srli	a6,a0,0x1f
200a2c0c:	0ff67613          	zext.b	a2,a2
200a2c10:	81fd                	srli	a1,a1,0x1f
200a2c12:	88c2                	mv	a7,a6
200a2c14:	078e                	slli	a5,a5,0x3
200a2c16:	070e                	slli	a4,a4,0x3
200a2c18:	40c306b3          	sub	a3,t1,a2
200a2c1c:	04b80163          	beq	a6,a1,200a2c5e <__addsf3+0x6e>
200a2c20:	00d05f63          	blez	a3,200a2c3e <__addsf3+0x4e>
200a2c24:	ee21                	bnez	a2,200a2c7c <__addsf3+0x8c>
200a2c26:	10070a63          	beqz	a4,200a2d3a <__addsf3+0x14a>
200a2c2a:	fff68613          	addi	a2,a3,-1
200a2c2e:	2a060c63          	beqz	a2,200a2ee6 <__addsf3+0x2f6>
200a2c32:	0ff00593          	li	a1,255
200a2c36:	16b68d63          	beq	a3,a1,200a2db0 <__addsf3+0x1c0>
200a2c3a:	86b2                	mv	a3,a2
200a2c3c:	a0b1                	j	200a2c88 <__addsf3+0x98>
200a2c3e:	cad5                	beqz	a3,200a2cf2 <__addsf3+0x102>
200a2c40:	406606b3          	sub	a3,a2,t1
200a2c44:	1c031c63          	bnez	t1,200a2e1c <__addsf3+0x22c>
200a2c48:	c7fd                	beqz	a5,200a2d36 <__addsf3+0x146>
200a2c4a:	fff68513          	addi	a0,a3,-1
200a2c4e:	2c050763          	beqz	a0,200a2f1c <__addsf3+0x32c>
200a2c52:	0ff00813          	li	a6,255
200a2c56:	15068b63          	beq	a3,a6,200a2dac <__addsf3+0x1bc>
200a2c5a:	86aa                	mv	a3,a0
200a2c5c:	a2f1                	j	200a2e28 <__addsf3+0x238>
200a2c5e:	14d05b63          	blez	a3,200a2db4 <__addsf3+0x1c4>
200a2c62:	ce5d                	beqz	a2,200a2d20 <__addsf3+0x130>
200a2c64:	0ff00613          	li	a2,255
200a2c68:	14c30463          	beq	t1,a2,200a2db0 <__addsf3+0x1c0>
200a2c6c:	29a71713          	bseti	a4,a4,0x1a
200a2c70:	466d                	li	a2,27
200a2c72:	1ed65a63          	bge	a2,a3,200a2e66 <__addsf3+0x276>
200a2c76:	0785                	addi	a5,a5,1 # 1000001 <_data_lma+0xfb7699>
200a2c78:	869a                	mv	a3,t1
200a2c7a:	a081                	j	200a2cba <__addsf3+0xca>
200a2c7c:	0ff00613          	li	a2,255
200a2c80:	12c30863          	beq	t1,a2,200a2db0 <__addsf3+0x1c0>
200a2c84:	29a71713          	bseti	a4,a4,0x1a
200a2c88:	45ed                	li	a1,27
200a2c8a:	4605                	li	a2,1
200a2c8c:	00d5cd63          	blt	a1,a3,200a2ca6 <__addsf3+0xb6>
200a2c90:	02000613          	li	a2,32
200a2c94:	8e15                	sub	a2,a2,a3
200a2c96:	00c71633          	sll	a2,a4,a2
200a2c9a:	00d756b3          	srl	a3,a4,a3
200a2c9e:	00c03733          	snez	a4,a2
200a2ca2:	00e6e633          	or	a2,a3,a4
200a2ca6:	8f91                	sub	a5,a5,a2
200a2ca8:	04000737          	lui	a4,0x4000
200a2cac:	00e7f6b3          	and	a3,a5,a4
200a2cb0:	eedd                	bnez	a3,200a2d6e <__addsf3+0x17e>
200a2cb2:	0077f713          	andi	a4,a5,7
200a2cb6:	869a                	mv	a3,t1
200a2cb8:	c349                	beqz	a4,200a2d3a <__addsf3+0x14a>
200a2cba:	00f7f713          	andi	a4,a5,15
200a2cbe:	4611                	li	a2,4
200a2cc0:	00c70363          	beq	a4,a2,200a2cc6 <__addsf3+0xd6>
200a2cc4:	0791                	addi	a5,a5,4
200a2cc6:	04000737          	lui	a4,0x4000
200a2cca:	8f7d                	and	a4,a4,a5
200a2ccc:	c73d                	beqz	a4,200a2d3a <__addsf3+0x14a>
200a2cce:	00168513          	addi	a0,a3,1
200a2cd2:	0ff00713          	li	a4,255
200a2cd6:	88c2                	mv	a7,a6
200a2cd8:	08e50263          	beq	a0,a4,200a2d5c <__addsf3+0x16c>
200a2cdc:	00679713          	slli	a4,a5,0x6
200a2ce0:	0ff57513          	zext.b	a0,a0
200a2ce4:	8325                	srli	a4,a4,0x9
200a2ce6:	055e                	slli	a0,a0,0x17
200a2ce8:	8d59                	or	a0,a0,a4
200a2cea:	01f89793          	slli	a5,a7,0x1f
200a2cee:	8d5d                	or	a0,a0,a5
200a2cf0:	8082                	ret
200a2cf2:	00130613          	addi	a2,t1,1
200a2cf6:	0fe67613          	andi	a2,a2,254
200a2cfa:	14061b63          	bnez	a2,200a2e50 <__addsf3+0x260>
200a2cfe:	0a031463          	bnez	t1,200a2da6 <__addsf3+0x1b6>
200a2d02:	20078963          	beqz	a5,200a2f14 <__addsf3+0x324>
200a2d06:	10070263          	beqz	a4,200a2e0a <__addsf3+0x21a>
200a2d0a:	40e78533          	sub	a0,a5,a4
200a2d0e:	04000637          	lui	a2,0x4000
200a2d12:	8e69                	and	a2,a2,a0
200a2d14:	22060663          	beqz	a2,200a2f40 <__addsf3+0x350>
200a2d18:	40f707b3          	sub	a5,a4,a5
200a2d1c:	882e                	mv	a6,a1
200a2d1e:	a041                	j	200a2d9e <__addsf3+0x1ae>
200a2d20:	cf09                	beqz	a4,200a2d3a <__addsf3+0x14a>
200a2d22:	fff68613          	addi	a2,a3,-1
200a2d26:	1a060863          	beqz	a2,200a2ed6 <__addsf3+0x2e6>
200a2d2a:	0ff00593          	li	a1,255
200a2d2e:	08b68163          	beq	a3,a1,200a2db0 <__addsf3+0x1c0>
200a2d32:	86b2                	mv	a3,a2
200a2d34:	bf35                	j	200a2c70 <__addsf3+0x80>
200a2d36:	882e                	mv	a6,a1
200a2d38:	87ba                	mv	a5,a4
200a2d3a:	0ff00713          	li	a4,255
200a2d3e:	838d                	srli	a5,a5,0x3
200a2d40:	0ce69763          	bne	a3,a4,200a2e0e <__addsf3+0x21e>
200a2d44:	c3dd                	beqz	a5,200a2dea <__addsf3+0x1fa>
200a2d46:	0ff00513          	li	a0,255
200a2d4a:	4881                	li	a7,0
200a2d4c:	00400737          	lui	a4,0x400
200a2d50:	055e                	slli	a0,a0,0x17
200a2d52:	8d59                	or	a0,a0,a4
200a2d54:	01f89793          	slli	a5,a7,0x1f
200a2d58:	8d5d                	or	a0,a0,a5
200a2d5a:	8082                	ret
200a2d5c:	0ff00513          	li	a0,255
200a2d60:	4701                	li	a4,0
200a2d62:	055e                	slli	a0,a0,0x17
200a2d64:	8d59                	or	a0,a0,a4
200a2d66:	01f89793          	slli	a5,a7,0x1f
200a2d6a:	8d5d                	or	a0,a0,a5
200a2d6c:	8082                	ret
200a2d6e:	177d                	addi	a4,a4,-1 # 3fffff <_data_lma+0x3b7697>
200a2d70:	00e7f633          	and	a2,a5,a4
200a2d74:	60061793          	clz	a5,a2
200a2d78:	17ed                	addi	a5,a5,-5
200a2d7a:	00f61633          	sll	a2,a2,a5
200a2d7e:	0667c163          	blt	a5,t1,200a2de0 <__addsf3+0x1f0>
200a2d82:	406786b3          	sub	a3,a5,t1
200a2d86:	0685                	addi	a3,a3,1
200a2d88:	02000793          	li	a5,32
200a2d8c:	8f95                	sub	a5,a5,a3
200a2d8e:	00f617b3          	sll	a5,a2,a5
200a2d92:	00f037b3          	snez	a5,a5
200a2d96:	00d65633          	srl	a2,a2,a3
200a2d9a:	8fd1                	or	a5,a5,a2
200a2d9c:	4681                	li	a3,0
200a2d9e:	0077f713          	andi	a4,a5,7
200a2da2:	ff01                	bnez	a4,200a2cba <__addsf3+0xca>
200a2da4:	b70d                	j	200a2cc6 <__addsf3+0xd6>
200a2da6:	14079563          	bnez	a5,200a2ef0 <__addsf3+0x300>
200a2daa:	df51                	beqz	a4,200a2d46 <__addsf3+0x156>
200a2dac:	882e                	mv	a6,a1
200a2dae:	87ba                	mv	a5,a4
200a2db0:	838d                	srli	a5,a5,0x3
200a2db2:	bf49                	j	200a2d44 <__addsf3+0x154>
200a2db4:	c2a1                	beqz	a3,200a2df4 <__addsf3+0x204>
200a2db6:	406606b3          	sub	a3,a2,t1
200a2dba:	0e031663          	bnez	t1,200a2ea6 <__addsf3+0x2b6>
200a2dbe:	dfad                	beqz	a5,200a2d38 <__addsf3+0x148>
200a2dc0:	fff68593          	addi	a1,a3,-1
200a2dc4:	10058963          	beqz	a1,200a2ed6 <__addsf3+0x2e6>
200a2dc8:	0ff00513          	li	a0,255
200a2dcc:	fea681e3          	beq	a3,a0,200a2dae <__addsf3+0x1be>
200a2dd0:	86ae                	mv	a3,a1
200a2dd2:	45ed                	li	a1,27
200a2dd4:	12d5d263          	bge	a1,a3,200a2ef8 <__addsf3+0x308>
200a2dd8:	00170793          	addi	a5,a4,1
200a2ddc:	86b2                	mv	a3,a2
200a2dde:	bdf1                	j	200a2cba <__addsf3+0xca>
200a2de0:	40f306b3          	sub	a3,t1,a5
200a2de4:	49a61793          	bclri	a5,a2,0x1a
200a2de8:	bf5d                	j	200a2d9e <__addsf3+0x1ae>
200a2dea:	88c2                	mv	a7,a6
200a2dec:	0ff00513          	li	a0,255
200a2df0:	4701                	li	a4,0
200a2df2:	bdd5                	j	200a2ce6 <__addsf3+0xf6>
200a2df4:	00130693          	addi	a3,t1,1
200a2df8:	0fe6f613          	andi	a2,a3,254
200a2dfc:	ee45                	bnez	a2,200a2eb4 <__addsf3+0x2c4>
200a2dfe:	0e031763          	bnez	t1,200a2eec <__addsf3+0x2fc>
200a2e02:	12078263          	beqz	a5,200a2f26 <__addsf3+0x336>
200a2e06:	12071263          	bnez	a4,200a2f2a <__addsf3+0x33a>
200a2e0a:	838d                	srli	a5,a5,0x3
200a2e0c:	4681                	li	a3,0
200a2e0e:	07a6                	slli	a5,a5,0x9
200a2e10:	0097d713          	srli	a4,a5,0x9
200a2e14:	0ff6f513          	zext.b	a0,a3
200a2e18:	88c2                	mv	a7,a6
200a2e1a:	b5f1                	j	200a2ce6 <__addsf3+0xf6>
200a2e1c:	0ff00513          	li	a0,255
200a2e20:	f8a606e3          	beq	a2,a0,200a2dac <__addsf3+0x1bc>
200a2e24:	29a79793          	bseti	a5,a5,0x1a
200a2e28:	486d                	li	a6,27
200a2e2a:	4505                	li	a0,1
200a2e2c:	00d84d63          	blt	a6,a3,200a2e46 <__addsf3+0x256>
200a2e30:	02000513          	li	a0,32
200a2e34:	8d15                	sub	a0,a0,a3
200a2e36:	00a79533          	sll	a0,a5,a0
200a2e3a:	00d7d6b3          	srl	a3,a5,a3
200a2e3e:	00a037b3          	snez	a5,a0
200a2e42:	00f6e533          	or	a0,a3,a5
200a2e46:	40a707b3          	sub	a5,a4,a0
200a2e4a:	8332                	mv	t1,a2
200a2e4c:	882e                	mv	a6,a1
200a2e4e:	bda9                	j	200a2ca8 <__addsf3+0xb8>
200a2e50:	40e78633          	sub	a2,a5,a4
200a2e54:	040006b7          	lui	a3,0x4000
200a2e58:	8ef1                	and	a3,a3,a2
200a2e5a:	eab5                	bnez	a3,200a2ece <__addsf3+0x2de>
200a2e5c:	fe01                	bnez	a2,200a2d74 <__addsf3+0x184>
200a2e5e:	4881                	li	a7,0
200a2e60:	4501                	li	a0,0
200a2e62:	4701                	li	a4,0
200a2e64:	b549                	j	200a2ce6 <__addsf3+0xf6>
200a2e66:	02000613          	li	a2,32
200a2e6a:	8e15                	sub	a2,a2,a3
200a2e6c:	00c71633          	sll	a2,a4,a2
200a2e70:	00d75733          	srl	a4,a4,a3
200a2e74:	00c036b3          	snez	a3,a2
200a2e78:	8f55                	or	a4,a4,a3
200a2e7a:	97ba                	add	a5,a5,a4
200a2e7c:	04000737          	lui	a4,0x4000
200a2e80:	8f7d                	and	a4,a4,a5
200a2e82:	e20708e3          	beqz	a4,200a2cb2 <__addsf3+0xc2>
200a2e86:	00130693          	addi	a3,t1,1
200a2e8a:	0ff00513          	li	a0,255
200a2e8e:	4701                	li	a4,0
200a2e90:	e4a68be3          	beq	a3,a0,200a2ce6 <__addsf3+0xf6>
200a2e94:	7e000637          	lui	a2,0x7e000
200a2e98:	0017d713          	srli	a4,a5,0x1
200a2e9c:	167d                	addi	a2,a2,-1 # 7dffffff <_eusrstack+0x5defffff>
200a2e9e:	8b85                	andi	a5,a5,1
200a2ea0:	8f71                	and	a4,a4,a2
200a2ea2:	8fd9                	or	a5,a5,a4
200a2ea4:	bded                	j	200a2d9e <__addsf3+0x1ae>
200a2ea6:	0ff00593          	li	a1,255
200a2eaa:	f0b602e3          	beq	a2,a1,200a2dae <__addsf3+0x1be>
200a2eae:	29a79793          	bseti	a5,a5,0x1a
200a2eb2:	b705                	j	200a2dd2 <__addsf3+0x1e2>
200a2eb4:	0ff00613          	li	a2,255
200a2eb8:	eac682e3          	beq	a3,a2,200a2d5c <__addsf3+0x16c>
200a2ebc:	973e                	add	a4,a4,a5
200a2ebe:	00175793          	srli	a5,a4,0x1
200a2ec2:	0077f613          	andi	a2,a5,7
200a2ec6:	de061ae3          	bnez	a2,200a2cba <__addsf3+0xca>
200a2eca:	838d                	srli	a5,a5,0x3
200a2ecc:	b789                	j	200a2e0e <__addsf3+0x21e>
200a2ece:	40f70633          	sub	a2,a4,a5
200a2ed2:	882e                	mv	a6,a1
200a2ed4:	b545                	j	200a2d74 <__addsf3+0x184>
200a2ed6:	97ba                	add	a5,a5,a4
200a2ed8:	04000737          	lui	a4,0x4000
200a2edc:	8f7d                	and	a4,a4,a5
200a2ede:	4689                	li	a3,2
200a2ee0:	4305                	li	t1,1
200a2ee2:	fb4d                	bnez	a4,200a2e94 <__addsf3+0x2a4>
200a2ee4:	b3f9                	j	200a2cb2 <__addsf3+0xc2>
200a2ee6:	8f99                	sub	a5,a5,a4
200a2ee8:	4305                	li	t1,1
200a2eea:	bb7d                	j	200a2ca8 <__addsf3+0xb8>
200a2eec:	ec0781e3          	beqz	a5,200a2dae <__addsf3+0x1be>
200a2ef0:	e4071be3          	bnez	a4,200a2d46 <__addsf3+0x156>
200a2ef4:	838d                	srli	a5,a5,0x3
200a2ef6:	b5b9                	j	200a2d44 <__addsf3+0x154>
200a2ef8:	02000593          	li	a1,32
200a2efc:	8d95                	sub	a1,a1,a3
200a2efe:	00b795b3          	sll	a1,a5,a1
200a2f02:	00d7d6b3          	srl	a3,a5,a3
200a2f06:	00b037b3          	snez	a5,a1
200a2f0a:	8edd                	or	a3,a3,a5
200a2f0c:	00e687b3          	add	a5,a3,a4
200a2f10:	8332                	mv	t1,a2
200a2f12:	b7ad                	j	200a2e7c <__addsf3+0x28c>
200a2f14:	d729                	beqz	a4,200a2e5e <__addsf3+0x26e>
200a2f16:	882e                	mv	a6,a1
200a2f18:	87ba                	mv	a5,a4
200a2f1a:	bdc5                	j	200a2e0a <__addsf3+0x21a>
200a2f1c:	40f707b3          	sub	a5,a4,a5
200a2f20:	882e                	mv	a6,a1
200a2f22:	4305                	li	t1,1
200a2f24:	b351                	j	200a2ca8 <__addsf3+0xb8>
200a2f26:	87ba                	mv	a5,a4
200a2f28:	b5cd                	j	200a2e0a <__addsf3+0x21a>
200a2f2a:	97ba                	add	a5,a5,a4
200a2f2c:	04000637          	lui	a2,0x4000
200a2f30:	8e7d                	and	a2,a2,a5
200a2f32:	4681                	li	a3,0
200a2f34:	da59                	beqz	a2,200a2eca <__addsf3+0x2da>
200a2f36:	49a79793          	bclri	a5,a5,0x1a
200a2f3a:	4685                	li	a3,1
200a2f3c:	838d                	srli	a5,a5,0x3
200a2f3e:	bdc1                	j	200a2e0e <__addsf3+0x21e>
200a2f40:	87aa                	mv	a5,a0
200a2f42:	dd11                	beqz	a0,200a2e5e <__addsf3+0x26e>
200a2f44:	838d                	srli	a5,a5,0x3
200a2f46:	b5e1                	j	200a2e0e <__addsf3+0x21e>

200a2f48 <__divsf3>:
200a2f48:	01755793          	srli	a5,a0,0x17
200a2f4c:	00951893          	slli	a7,a0,0x9
200a2f50:	0ff7f793          	zext.b	a5,a5
200a2f54:	0098d893          	srli	a7,a7,0x9
200a2f58:	817d                	srli	a0,a0,0x1f
200a2f5a:	cbf1                	beqz	a5,200a302e <__divsf3+0xe6>
200a2f5c:	0ff00713          	li	a4,255
200a2f60:	0ce78d63          	beq	a5,a4,200a303a <__divsf3+0xf2>
200a2f64:	088e                	slli	a7,a7,0x3
200a2f66:	f8178613          	addi	a2,a5,-127
200a2f6a:	4701                	li	a4,0
200a2f6c:	4e01                	li	t3,0
200a2f6e:	29a89893          	bseti	a7,a7,0x1a
200a2f72:	0175d793          	srli	a5,a1,0x17
200a2f76:	00959693          	slli	a3,a1,0x9
200a2f7a:	0ff7f793          	zext.b	a5,a5
200a2f7e:	82a5                	srli	a3,a3,0x9
200a2f80:	81fd                	srli	a1,a1,0x1f
200a2f82:	c7c9                	beqz	a5,200a300c <__divsf3+0xc4>
200a2f84:	0ff00813          	li	a6,255
200a2f88:	0d078063          	beq	a5,a6,200a3048 <__divsf3+0x100>
200a2f8c:	068e                	slli	a3,a3,0x3
200a2f8e:	f8178793          	addi	a5,a5,-127
200a2f92:	4e81                	li	t4,0
200a2f94:	29a69693          	bseti	a3,a3,0x1a
200a2f98:	433d                	li	t1,15
200a2f9a:	00b54833          	xor	a6,a0,a1
200a2f9e:	8e1d                	sub	a2,a2,a5
200a2fa0:	1ae36663          	bltu	t1,a4,200a314c <__divsf3+0x204>
200a2fa4:	dffa5317          	auipc	t1,0xdffa5
200a2fa8:	6d430313          	addi	t1,t1,1748 # 48678 <w_conv+0x360>
200a2fac:	20674733          	sh2add	a4,a4,t1
200a2fb0:	431c                	lw	a5,0(a4)
200a2fb2:	979a                	add	a5,a5,t1
200a2fb4:	8782                	jr	a5
200a2fb6:	0ff00793          	li	a5,255
200a2fba:	4701                	li	a4,0
200a2fbc:	01779513          	slli	a0,a5,0x17
200a2fc0:	8d59                	or	a0,a0,a4
200a2fc2:	087e                	slli	a6,a6,0x1f
200a2fc4:	01056533          	or	a0,a0,a6
200a2fc8:	8082                	ret
200a2fca:	478d                	li	a5,3
200a2fcc:	02fe0463          	beq	t3,a5,200a2ff4 <__divsf3+0xac>
200a2fd0:	4785                	li	a5,1
200a2fd2:	0efe1b63          	bne	t3,a5,200a30c8 <__divsf3+0x180>
200a2fd6:	882a                	mv	a6,a0
200a2fd8:	4781                	li	a5,0
200a2fda:	4701                	li	a4,0
200a2fdc:	01779513          	slli	a0,a5,0x17
200a2fe0:	8d59                	or	a0,a0,a4
200a2fe2:	087e                	slli	a6,a6,0x1f
200a2fe4:	01056533          	or	a0,a0,a6
200a2fe8:	8082                	ret
200a2fea:	478d                	li	a5,3
200a2fec:	852e                	mv	a0,a1
200a2fee:	88b6                	mv	a7,a3
200a2ff0:	0cfe9c63          	bne	t4,a5,200a30c8 <__divsf3+0x180>
200a2ff4:	0ff00793          	li	a5,255
200a2ff8:	00400737          	lui	a4,0x400
200a2ffc:	01779513          	slli	a0,a5,0x17
200a3000:	4801                	li	a6,0
200a3002:	8d59                	or	a0,a0,a4
200a3004:	087e                	slli	a6,a6,0x1f
200a3006:	01056533          	or	a0,a0,a6
200a300a:	8082                	ret
200a300c:	eac1                	bnez	a3,200a309c <__divsf3+0x154>
200a300e:	00176713          	ori	a4,a4,1
200a3012:	47b5                	li	a5,13
200a3014:	00b54833          	xor	a6,a0,a1
200a3018:	f8e7efe3          	bltu	a5,a4,200a2fb6 <__divsf3+0x6e>
200a301c:	dffa5697          	auipc	a3,0xdffa5
200a3020:	69c68693          	addi	a3,a3,1692 # 486b8 <w_conv+0x3a0>
200a3024:	20d74733          	sh2add	a4,a4,a3
200a3028:	431c                	lw	a5,0(a4)
200a302a:	97b6                	add	a5,a5,a3
200a302c:	8782                	jr	a5
200a302e:	04089a63          	bnez	a7,200a3082 <__divsf3+0x13a>
200a3032:	4711                	li	a4,4
200a3034:	4601                	li	a2,0
200a3036:	4e05                	li	t3,1
200a3038:	bf2d                	j	200a2f72 <__divsf3+0x2a>
200a303a:	02089f63          	bnez	a7,200a3078 <__divsf3+0x130>
200a303e:	4721                	li	a4,8
200a3040:	0ff00613          	li	a2,255
200a3044:	4e09                	li	t3,2
200a3046:	b735                	j	200a2f72 <__divsf3+0x2a>
200a3048:	e295                	bnez	a3,200a306c <__divsf3+0x124>
200a304a:	00276713          	ori	a4,a4,2
200a304e:	1775                	addi	a4,a4,-3 # 3ffffd <_data_lma+0x3b7695>
200a3050:	46ad                	li	a3,11
200a3052:	00b54833          	xor	a6,a0,a1
200a3056:	f8e6e1e3          	bltu	a3,a4,200a2fd8 <__divsf3+0x90>
200a305a:	dffa5697          	auipc	a3,0xdffa5
200a305e:	69668693          	addi	a3,a3,1686 # 486f0 <w_conv+0x3d8>
200a3062:	20d74733          	sh2add	a4,a4,a3
200a3066:	4318                	lw	a4,0(a4)
200a3068:	9736                	add	a4,a4,a3
200a306a:	8702                	jr	a4
200a306c:	00376713          	ori	a4,a4,3
200a3070:	0ff00793          	li	a5,255
200a3074:	4e8d                	li	t4,3
200a3076:	b70d                	j	200a2f98 <__divsf3+0x50>
200a3078:	4731                	li	a4,12
200a307a:	0ff00613          	li	a2,255
200a307e:	4e0d                	li	t3,3
200a3080:	bdcd                	j	200a2f72 <__divsf3+0x2a>
200a3082:	60089713          	clz	a4,a7
200a3086:	ffb70793          	addi	a5,a4,-5
200a308a:	00f898b3          	sll	a7,a7,a5
200a308e:	f8a00793          	li	a5,-118
200a3092:	40e78633          	sub	a2,a5,a4
200a3096:	4e01                	li	t3,0
200a3098:	4701                	li	a4,0
200a309a:	bde1                	j	200a2f72 <__divsf3+0x2a>
200a309c:	60069813          	clz	a6,a3
200a30a0:	ffb80793          	addi	a5,a6,-5
200a30a4:	00f696b3          	sll	a3,a3,a5
200a30a8:	f8a00793          	li	a5,-118
200a30ac:	410787b3          	sub	a5,a5,a6
200a30b0:	4e81                	li	t4,0
200a30b2:	b5dd                	j	200a2f98 <__divsf3+0x50>
200a30b4:	f0160613          	addi	a2,a2,-255 # 3ffff01 <_data_lma+0x3fb7599>
200a30b8:	4789                	li	a5,2
200a30ba:	f0fe18e3          	bne	t3,a5,200a2fca <__divsf3+0x82>
200a30be:	882a                	mv	a6,a0
200a30c0:	0ff00793          	li	a5,255
200a30c4:	4701                	li	a4,0
200a30c6:	bddd                	j	200a2fbc <__divsf3+0x74>
200a30c8:	882a                	mv	a6,a0
200a30ca:	07f60793          	addi	a5,a2,127
200a30ce:	02f05e63          	blez	a5,200a310a <__divsf3+0x1c2>
200a30d2:	0078f713          	andi	a4,a7,7
200a30d6:	c719                	beqz	a4,200a30e4 <__divsf3+0x19c>
200a30d8:	00f8f713          	andi	a4,a7,15
200a30dc:	4691                	li	a3,4
200a30de:	00d70363          	beq	a4,a3,200a30e4 <__divsf3+0x19c>
200a30e2:	0891                	addi	a7,a7,4
200a30e4:	08000737          	lui	a4,0x8000
200a30e8:	00e8f733          	and	a4,a7,a4
200a30ec:	c709                	beqz	a4,200a30f6 <__divsf3+0x1ae>
200a30ee:	08060793          	addi	a5,a2,128
200a30f2:	49b89893          	bclri	a7,a7,0x1b
200a30f6:	0fe00713          	li	a4,254
200a30fa:	eaf74ee3          	blt	a4,a5,200a2fb6 <__divsf3+0x6e>
200a30fe:	00689713          	slli	a4,a7,0x6
200a3102:	8325                	srli	a4,a4,0x9
200a3104:	0ff7f793          	zext.b	a5,a5
200a3108:	bd55                	j	200a2fbc <__divsf3+0x74>
200a310a:	4685                	li	a3,1
200a310c:	c799                	beqz	a5,200a311a <__divsf3+0x1d2>
200a310e:	8e9d                	sub	a3,a3,a5
200a3110:	45ed                	li	a1,27
200a3112:	4781                	li	a5,0
200a3114:	4701                	li	a4,0
200a3116:	ead5c3e3          	blt	a1,a3,200a2fbc <__divsf3+0x74>
200a311a:	09e60713          	addi	a4,a2,158
200a311e:	00e89733          	sll	a4,a7,a4
200a3122:	00e03733          	snez	a4,a4
200a3126:	00d8d7b3          	srl	a5,a7,a3
200a312a:	8fd9                	or	a5,a5,a4
200a312c:	0077f713          	andi	a4,a5,7
200a3130:	c719                	beqz	a4,200a313e <__divsf3+0x1f6>
200a3132:	00f7f713          	andi	a4,a5,15
200a3136:	4691                	li	a3,4
200a3138:	00d70363          	beq	a4,a3,200a313e <__divsf3+0x1f6>
200a313c:	0791                	addi	a5,a5,4
200a313e:	04000737          	lui	a4,0x4000
200a3142:	8f7d                	and	a4,a4,a5
200a3144:	cb55                	beqz	a4,200a31f8 <__divsf3+0x2b0>
200a3146:	4785                	li	a5,1
200a3148:	4701                	li	a4,0
200a314a:	bd8d                	j	200a2fbc <__divsf3+0x74>
200a314c:	6741                	lui	a4,0x10
200a314e:	00569313          	slli	t1,a3,0x5
200a3152:	177d                	addi	a4,a4,-1 # ffff <__stack_size+0xf7ff>
200a3154:	01035593          	srli	a1,t1,0x10
200a3158:	00e37733          	and	a4,t1,a4
200a315c:	06d8f863          	bgeu	a7,a3,200a31cc <__divsf3+0x284>
200a3160:	02b8d6b3          	divu	a3,a7,a1
200a3164:	87c6                	mv	a5,a7
200a3166:	167d                	addi	a2,a2,-1
200a3168:	4881                	li	a7,0
200a316a:	02e68533          	mul	a0,a3,a4
200a316e:	02b7f7b3          	remu	a5,a5,a1
200a3172:	07c2                	slli	a5,a5,0x10
200a3174:	0117e7b3          	or	a5,a5,a7
200a3178:	00a7f863          	bgeu	a5,a0,200a3188 <__divsf3+0x240>
200a317c:	979a                	add	a5,a5,t1
200a317e:	fff68893          	addi	a7,a3,-1
200a3182:	0667f663          	bgeu	a5,t1,200a31ee <__divsf3+0x2a6>
200a3186:	86c6                	mv	a3,a7
200a3188:	8f89                	sub	a5,a5,a0
200a318a:	02b7d533          	divu	a0,a5,a1
200a318e:	02b7f7b3          	remu	a5,a5,a1
200a3192:	02e50733          	mul	a4,a0,a4
200a3196:	07c2                	slli	a5,a5,0x10
200a3198:	02e7f263          	bgeu	a5,a4,200a31bc <__divsf3+0x274>
200a319c:	006785b3          	add	a1,a5,t1
200a31a0:	00f5b8b3          	sltu	a7,a1,a5
200a31a4:	fff50e13          	addi	t3,a0,-1
200a31a8:	87ae                	mv	a5,a1
200a31aa:	00089863          	bnez	a7,200a31ba <__divsf3+0x272>
200a31ae:	00e5f663          	bgeu	a1,a4,200a31ba <__divsf3+0x272>
200a31b2:	1579                	addi	a0,a0,-2
200a31b4:	006587b3          	add	a5,a1,t1
200a31b8:	a011                	j	200a31bc <__divsf3+0x274>
200a31ba:	8572                	mv	a0,t3
200a31bc:	06c2                	slli	a3,a3,0x10
200a31be:	8f99                	sub	a5,a5,a4
200a31c0:	8ec9                	or	a3,a3,a0
200a31c2:	00f037b3          	snez	a5,a5
200a31c6:	00f6e8b3          	or	a7,a3,a5
200a31ca:	b701                	j	200a30ca <__divsf3+0x182>
200a31cc:	0018d793          	srli	a5,a7,0x1
200a31d0:	02b7d6b3          	divu	a3,a5,a1
200a31d4:	08fe                	slli	a7,a7,0x1f
200a31d6:	0108d893          	srli	a7,a7,0x10
200a31da:	02e68533          	mul	a0,a3,a4
200a31de:	bf41                	j	200a316e <__divsf3+0x226>
200a31e0:	852e                	mv	a0,a1
200a31e2:	882a                	mv	a6,a0
200a31e4:	bbd5                	j	200a2fd8 <__divsf3+0x90>
200a31e6:	4801                	li	a6,0
200a31e8:	00400737          	lui	a4,0x400
200a31ec:	bbc1                	j	200a2fbc <__divsf3+0x74>
200a31ee:	f8a7fce3          	bgeu	a5,a0,200a3186 <__divsf3+0x23e>
200a31f2:	16f9                	addi	a3,a3,-2
200a31f4:	979a                	add	a5,a5,t1
200a31f6:	bf49                	j	200a3188 <__divsf3+0x240>
200a31f8:	079a                	slli	a5,a5,0x6
200a31fa:	0097d713          	srli	a4,a5,0x9
200a31fe:	4781                	li	a5,0
200a3200:	bb75                	j	200a2fbc <__divsf3+0x74>
200a3202:	852e                	mv	a0,a1
200a3204:	bd6d                	j	200a30be <__divsf3+0x176>

200a3206 <__gesf2>:
200a3206:	01755613          	srli	a2,a0,0x17
200a320a:	00800737          	lui	a4,0x800
200a320e:	177d                	addi	a4,a4,-1 # 7fffff <_data_lma+0x7b7697>
200a3210:	0175d693          	srli	a3,a1,0x17
200a3214:	0ff67613          	zext.b	a2,a2
200a3218:	0ff00813          	li	a6,255
200a321c:	00a778b3          	and	a7,a4,a0
200a3220:	01f55793          	srli	a5,a0,0x1f
200a3224:	8f6d                	and	a4,a4,a1
200a3226:	0ff6f513          	zext.b	a0,a3
200a322a:	81fd                	srli	a1,a1,0x1f
200a322c:	03060563          	beq	a2,a6,200a3256 <__gesf2+0x50>
200a3230:	01050a63          	beq	a0,a6,200a3244 <__gesf2+0x3e>
200a3234:	ea05                	bnez	a2,200a3264 <__gesf2+0x5e>
200a3236:	e909                	bnez	a0,200a3248 <__gesf2+0x42>
200a3238:	c339                	beqz	a4,200a327e <__gesf2+0x78>
200a323a:	04089e63          	bnez	a7,200a3296 <__gesf2+0x90>
200a323e:	c9a1                	beqz	a1,200a328e <__gesf2+0x88>
200a3240:	852e                	mv	a0,a1
200a3242:	8082                	ret
200a3244:	e739                	bnez	a4,200a3292 <__gesf2+0x8c>
200a3246:	e219                	bnez	a2,200a324c <__gesf2+0x46>
200a3248:	fe088be3          	beqz	a7,200a323e <__gesf2+0x38>
200a324c:	00b79963          	bne	a5,a1,200a325e <__gesf2+0x58>
200a3250:	cf9d                	beqz	a5,200a328e <__gesf2+0x88>
200a3252:	853e                	mv	a0,a5
200a3254:	8082                	ret
200a3256:	02089e63          	bnez	a7,200a3292 <__gesf2+0x8c>
200a325a:	02c50563          	beq	a0,a2,200a3284 <__gesf2+0x7e>
200a325e:	4505                	li	a0,1
200a3260:	e79d                	bnez	a5,200a328e <__gesf2+0x88>
200a3262:	8082                	ret
200a3264:	dd6d                	beqz	a0,200a325e <__gesf2+0x58>
200a3266:	feb79ce3          	bne	a5,a1,200a325e <__gesf2+0x58>
200a326a:	fec54ae3          	blt	a0,a2,200a325e <__gesf2+0x58>
200a326e:	fea641e3          	blt	a2,a0,200a3250 <__gesf2+0x4a>
200a3272:	ff1766e3          	bltu	a4,a7,200a325e <__gesf2+0x58>
200a3276:	4501                	li	a0,0
200a3278:	fce8ece3          	bltu	a7,a4,200a3250 <__gesf2+0x4a>
200a327c:	8082                	ret
200a327e:	fe0890e3          	bnez	a7,200a325e <__gesf2+0x58>
200a3282:	8082                	ret
200a3284:	e719                	bnez	a4,200a3292 <__gesf2+0x8c>
200a3286:	fcb79ce3          	bne	a5,a1,200a325e <__gesf2+0x58>
200a328a:	4501                	li	a0,0
200a328c:	8082                	ret
200a328e:	557d                	li	a0,-1
200a3290:	8082                	ret
200a3292:	5579                	li	a0,-2
200a3294:	8082                	ret
200a3296:	fcb78ee3          	beq	a5,a1,200a3272 <__gesf2+0x6c>
200a329a:	b7d1                	j	200a325e <__gesf2+0x58>

200a329c <__lesf2>:
200a329c:	01755613          	srli	a2,a0,0x17
200a32a0:	00800737          	lui	a4,0x800
200a32a4:	177d                	addi	a4,a4,-1 # 7fffff <_data_lma+0x7b7697>
200a32a6:	0175d693          	srli	a3,a1,0x17
200a32aa:	0ff67613          	zext.b	a2,a2
200a32ae:	0ff00813          	li	a6,255
200a32b2:	00a778b3          	and	a7,a4,a0
200a32b6:	01f55793          	srli	a5,a0,0x1f
200a32ba:	8f6d                	and	a4,a4,a1
200a32bc:	0ff6f513          	zext.b	a0,a3
200a32c0:	81fd                	srli	a1,a1,0x1f
200a32c2:	03060663          	beq	a2,a6,200a32ee <__lesf2+0x52>
200a32c6:	01050a63          	beq	a0,a6,200a32da <__lesf2+0x3e>
200a32ca:	ee05                	bnez	a2,200a3302 <__lesf2+0x66>
200a32cc:	e911                	bnez	a0,200a32e0 <__lesf2+0x44>
200a32ce:	cb29                	beqz	a4,200a3320 <__lesf2+0x84>
200a32d0:	04089f63          	bnez	a7,200a332e <__lesf2+0x92>
200a32d4:	c9b9                	beqz	a1,200a332a <__lesf2+0x8e>
200a32d6:	852e                	mv	a0,a1
200a32d8:	8082                	ret
200a32da:	4509                	li	a0,2
200a32dc:	eb01                	bnez	a4,200a32ec <__lesf2+0x50>
200a32de:	e219                	bnez	a2,200a32e4 <__lesf2+0x48>
200a32e0:	fe088ae3          	beqz	a7,200a32d4 <__lesf2+0x38>
200a32e4:	02b78b63          	beq	a5,a1,200a331a <__lesf2+0x7e>
200a32e8:	4505                	li	a0,1
200a32ea:	e3a1                	bnez	a5,200a332a <__lesf2+0x8e>
200a32ec:	8082                	ret
200a32ee:	02089c63          	bnez	a7,200a3326 <__lesf2+0x8a>
200a32f2:	fec51be3          	bne	a0,a2,200a32e8 <__lesf2+0x4c>
200a32f6:	4509                	li	a0,2
200a32f8:	fb75                	bnez	a4,200a32ec <__lesf2+0x50>
200a32fa:	feb797e3          	bne	a5,a1,200a32e8 <__lesf2+0x4c>
200a32fe:	4501                	li	a0,0
200a3300:	8082                	ret
200a3302:	d17d                	beqz	a0,200a32e8 <__lesf2+0x4c>
200a3304:	feb792e3          	bne	a5,a1,200a32e8 <__lesf2+0x4c>
200a3308:	fec540e3          	blt	a0,a2,200a32e8 <__lesf2+0x4c>
200a330c:	00a64763          	blt	a2,a0,200a331a <__lesf2+0x7e>
200a3310:	fd176ce3          	bltu	a4,a7,200a32e8 <__lesf2+0x4c>
200a3314:	4501                	li	a0,0
200a3316:	fce8fbe3          	bgeu	a7,a4,200a32ec <__lesf2+0x50>
200a331a:	cb81                	beqz	a5,200a332a <__lesf2+0x8e>
200a331c:	853e                	mv	a0,a5
200a331e:	8082                	ret
200a3320:	fc0894e3          	bnez	a7,200a32e8 <__lesf2+0x4c>
200a3324:	8082                	ret
200a3326:	4509                	li	a0,2
200a3328:	8082                	ret
200a332a:	557d                	li	a0,-1
200a332c:	8082                	ret
200a332e:	feb781e3          	beq	a5,a1,200a3310 <__lesf2+0x74>
200a3332:	bf5d                	j	200a32e8 <__lesf2+0x4c>

200a3334 <__mulsf3>:
200a3334:	01755793          	srli	a5,a0,0x17
200a3338:	00951713          	slli	a4,a0,0x9
200a333c:	0ff7f793          	zext.b	a5,a5
200a3340:	00975893          	srli	a7,a4,0x9
200a3344:	817d                	srli	a0,a0,0x1f
200a3346:	10078563          	beqz	a5,200a3450 <__mulsf3+0x11c>
200a334a:	0ff00713          	li	a4,255
200a334e:	10e78763          	beq	a5,a4,200a345c <__mulsf3+0x128>
200a3352:	088e                	slli	a7,a7,0x3
200a3354:	f8178693          	addi	a3,a5,-127
200a3358:	4701                	li	a4,0
200a335a:	4e81                	li	t4,0
200a335c:	29a89893          	bseti	a7,a7,0x1a
200a3360:	0175d793          	srli	a5,a1,0x17
200a3364:	00959813          	slli	a6,a1,0x9
200a3368:	0ff7f793          	zext.b	a5,a5
200a336c:	00985813          	srli	a6,a6,0x9
200a3370:	81fd                	srli	a1,a1,0x1f
200a3372:	c3f9                	beqz	a5,200a3438 <__mulsf3+0x104>
200a3374:	0ff00613          	li	a2,255
200a3378:	04c78863          	beq	a5,a2,200a33c8 <__mulsf3+0x94>
200a337c:	f8178793          	addi	a5,a5,-127
200a3380:	00d78e33          	add	t3,a5,a3
200a3384:	080e                	slli	a6,a6,0x3
200a3386:	47a9                	li	a5,10
200a3388:	4601                	li	a2,0
200a338a:	001e0693          	addi	a3,t3,1
200a338e:	29a81813          	bseti	a6,a6,0x1a
200a3392:	10e7c363          	blt	a5,a4,200a3498 <__mulsf3+0x164>
200a3396:	00b54333          	xor	t1,a0,a1
200a339a:	4509                	li	a0,2
200a339c:	8f1a                	mv	t5,t1
200a339e:	04e54463          	blt	a0,a4,200a33e6 <__mulsf3+0xb2>
200a33a2:	177d                	addi	a4,a4,-1
200a33a4:	4585                	li	a1,1
200a33a6:	12e5ee63          	bltu	a1,a4,200a34e2 <__mulsf3+0x1ae>
200a33aa:	0ca60063          	beq	a2,a0,200a346a <__mulsf3+0x136>
200a33ae:	4785                	li	a5,1
200a33b0:	837a                	mv	t1,t5
200a33b2:	04f61b63          	bne	a2,a5,200a3408 <__mulsf3+0xd4>
200a33b6:	4781                	li	a5,0
200a33b8:	4601                	li	a2,0
200a33ba:	01779513          	slli	a0,a5,0x17
200a33be:	8d51                	or	a0,a0,a2
200a33c0:	01f31793          	slli	a5,t1,0x1f
200a33c4:	8d5d                	or	a0,a0,a5
200a33c6:	8082                	ret
200a33c8:	0ff68e13          	addi	t3,a3,255
200a33cc:	0a080a63          	beqz	a6,200a3480 <__mulsf3+0x14c>
200a33d0:	00b54333          	xor	t1,a0,a1
200a33d4:	00376713          	ori	a4,a4,3
200a33d8:	4629                	li	a2,10
200a33da:	8f1a                	mv	t5,t1
200a33dc:	10068693          	addi	a3,a3,256
200a33e0:	20e64463          	blt	a2,a4,200a35e8 <__mulsf3+0x2b4>
200a33e4:	460d                	li	a2,3
200a33e6:	28e01733          	bset	a4,zero,a4
200a33ea:	53077513          	andi	a0,a4,1328
200a33ee:	cd19                	beqz	a0,200a340c <__mulsf3+0xd8>
200a33f0:	4789                	li	a5,2
200a33f2:	06fe8c63          	beq	t4,a5,200a346a <__mulsf3+0x136>
200a33f6:	478d                	li	a5,3
200a33f8:	02fe8463          	beq	t4,a5,200a3420 <__mulsf3+0xec>
200a33fc:	8676                	mv	a2,t4
200a33fe:	4785                	li	a5,1
200a3400:	8846                	mv	a6,a7
200a3402:	837a                	mv	t1,t5
200a3404:	faf609e3          	beq	a2,a5,200a33b6 <__mulsf3+0x82>
200a3408:	8e36                	mv	t3,a3
200a340a:	a2a9                	j	200a3554 <__mulsf3+0x220>
200a340c:	24077793          	andi	a5,a4,576
200a3410:	eb81                	bnez	a5,200a3420 <__mulsf3+0xec>
200a3412:	08877713          	andi	a4,a4,136
200a3416:	c771                	beqz	a4,200a34e2 <__mulsf3+0x1ae>
200a3418:	8f2e                	mv	t5,a1
200a341a:	88c2                	mv	a7,a6
200a341c:	8eb2                	mv	t4,a2
200a341e:	bfc9                	j	200a33f0 <__mulsf3+0xbc>
200a3420:	0ff00793          	li	a5,255
200a3424:	4301                	li	t1,0
200a3426:	00400637          	lui	a2,0x400
200a342a:	01779513          	slli	a0,a5,0x17
200a342e:	8d51                	or	a0,a0,a2
200a3430:	01f31793          	slli	a5,t1,0x1f
200a3434:	8d5d                	or	a0,a0,a5
200a3436:	8082                	ret
200a3438:	08081463          	bnez	a6,200a34c0 <__mulsf3+0x18c>
200a343c:	8e36                	mv	t3,a3
200a343e:	00176713          	ori	a4,a4,1
200a3442:	47a9                	li	a5,10
200a3444:	4605                	li	a2,1
200a3446:	001e0693          	addi	a3,t3,1
200a344a:	f4e7d6e3          	bge	a5,a4,200a3396 <__mulsf3+0x62>
200a344e:	a0a9                	j	200a3498 <__mulsf3+0x164>
200a3450:	04089b63          	bnez	a7,200a34a6 <__mulsf3+0x172>
200a3454:	4711                	li	a4,4
200a3456:	4681                	li	a3,0
200a3458:	4e85                	li	t4,1
200a345a:	b719                	j	200a3360 <__mulsf3+0x2c>
200a345c:	04089063          	bnez	a7,200a349c <__mulsf3+0x168>
200a3460:	4721                	li	a4,8
200a3462:	0ff00693          	li	a3,255
200a3466:	4e89                	li	t4,2
200a3468:	bde5                	j	200a3360 <__mulsf3+0x2c>
200a346a:	0ff00793          	li	a5,255
200a346e:	837a                	mv	t1,t5
200a3470:	4601                	li	a2,0
200a3472:	01779513          	slli	a0,a5,0x17
200a3476:	8d51                	or	a0,a0,a2
200a3478:	01f31793          	slli	a5,t1,0x1f
200a347c:	8d5d                	or	a0,a0,a5
200a347e:	8082                	ret
200a3480:	00276713          	ori	a4,a4,2
200a3484:	47a9                	li	a5,10
200a3486:	10068693          	addi	a3,a3,256
200a348a:	4339                	li	t1,14
200a348c:	4609                	li	a2,2
200a348e:	f0e7d4e3          	bge	a5,a4,200a3396 <__mulsf3+0x62>
200a3492:	47ad                	li	a5,11
200a3494:	f8f302e3          	beq	t1,a5,200a3418 <__mulsf3+0xe4>
200a3498:	8f2a                	mv	t5,a0
200a349a:	bf99                	j	200a33f0 <__mulsf3+0xbc>
200a349c:	4731                	li	a4,12
200a349e:	0ff00693          	li	a3,255
200a34a2:	4e8d                	li	t4,3
200a34a4:	bd75                	j	200a3360 <__mulsf3+0x2c>
200a34a6:	60089713          	clz	a4,a7
200a34aa:	ffb70793          	addi	a5,a4,-5
200a34ae:	00f898b3          	sll	a7,a7,a5
200a34b2:	f8a00793          	li	a5,-118
200a34b6:	40e786b3          	sub	a3,a5,a4
200a34ba:	4e81                	li	t4,0
200a34bc:	4701                	li	a4,0
200a34be:	b54d                	j	200a3360 <__mulsf3+0x2c>
200a34c0:	60081793          	clz	a5,a6
200a34c4:	ffb78613          	addi	a2,a5,-5
200a34c8:	40f687b3          	sub	a5,a3,a5
200a34cc:	f8a78e13          	addi	t3,a5,-118
200a34d0:	47a9                	li	a5,10
200a34d2:	00c81833          	sll	a6,a6,a2
200a34d6:	001e0693          	addi	a3,t3,1
200a34da:	4601                	li	a2,0
200a34dc:	eae7dde3          	bge	a5,a4,200a3396 <__mulsf3+0x62>
200a34e0:	bf65                	j	200a3498 <__mulsf3+0x164>
200a34e2:	6ec1                	lui	t4,0x10
200a34e4:	fffe8793          	addi	a5,t4,-1 # ffff <__stack_size+0xf7ff>
200a34e8:	0108d593          	srli	a1,a7,0x10
200a34ec:	01085513          	srli	a0,a6,0x10
200a34f0:	00f8f8b3          	and	a7,a7,a5
200a34f4:	00f877b3          	and	a5,a6,a5
200a34f8:	03178633          	mul	a2,a5,a7
200a34fc:	02f587b3          	mul	a5,a1,a5
200a3500:	01065713          	srli	a4,a2,0x10
200a3504:	031508b3          	mul	a7,a0,a7
200a3508:	98be                	add	a7,a7,a5
200a350a:	9746                	add	a4,a4,a7
200a350c:	02a585b3          	mul	a1,a1,a0
200a3510:	00f77363          	bgeu	a4,a5,200a3516 <__mulsf3+0x1e2>
200a3514:	95f6                	add	a1,a1,t4
200a3516:	6541                	lui	a0,0x10
200a3518:	157d                	addi	a0,a0,-1 # ffff <__stack_size+0xf7ff>
200a351a:	00a777b3          	and	a5,a4,a0
200a351e:	8e69                	and	a2,a2,a0
200a3520:	07c2                	slli	a5,a5,0x10
200a3522:	97b2                	add	a5,a5,a2
200a3524:	00679613          	slli	a2,a5,0x6
200a3528:	01075813          	srli	a6,a4,0x10
200a352c:	83e9                	srli	a5,a5,0x1a
200a352e:	00c03733          	snez	a4,a2
200a3532:	982e                	add	a6,a6,a1
200a3534:	8fd9                	or	a5,a5,a4
200a3536:	081a                	slli	a6,a6,0x6
200a3538:	00f86833          	or	a6,a6,a5
200a353c:	080007b7          	lui	a5,0x8000
200a3540:	00f877b3          	and	a5,a6,a5
200a3544:	cb81                	beqz	a5,200a3554 <__mulsf3+0x220>
200a3546:	00185793          	srli	a5,a6,0x1
200a354a:	00187813          	andi	a6,a6,1
200a354e:	0107e833          	or	a6,a5,a6
200a3552:	8e36                	mv	t3,a3
200a3554:	07fe0793          	addi	a5,t3,127
200a3558:	02f05e63          	blez	a5,200a3594 <__mulsf3+0x260>
200a355c:	00787713          	andi	a4,a6,7
200a3560:	c719                	beqz	a4,200a356e <__mulsf3+0x23a>
200a3562:	00f87713          	andi	a4,a6,15
200a3566:	4691                	li	a3,4
200a3568:	00d70363          	beq	a4,a3,200a356e <__mulsf3+0x23a>
200a356c:	0811                	addi	a6,a6,4
200a356e:	08000737          	lui	a4,0x8000
200a3572:	00e87733          	and	a4,a6,a4
200a3576:	c709                	beqz	a4,200a3580 <__mulsf3+0x24c>
200a3578:	080e0793          	addi	a5,t3,128
200a357c:	49b81813          	bclri	a6,a6,0x1b
200a3580:	0fe00713          	li	a4,254
200a3584:	04f74963          	blt	a4,a5,200a35d6 <__mulsf3+0x2a2>
200a3588:	00681613          	slli	a2,a6,0x6
200a358c:	8225                	srli	a2,a2,0x9
200a358e:	0ff7f793          	zext.b	a5,a5
200a3592:	b525                	j	200a33ba <__mulsf3+0x86>
200a3594:	4705                	li	a4,1
200a3596:	c799                	beqz	a5,200a35a4 <__mulsf3+0x270>
200a3598:	8f1d                	sub	a4,a4,a5
200a359a:	46ed                	li	a3,27
200a359c:	4781                	li	a5,0
200a359e:	4601                	li	a2,0
200a35a0:	e0e6cde3          	blt	a3,a4,200a33ba <__mulsf3+0x86>
200a35a4:	09ee0e13          	addi	t3,t3,158
200a35a8:	01c81e33          	sll	t3,a6,t3
200a35ac:	00e857b3          	srl	a5,a6,a4
200a35b0:	01c03733          	snez	a4,t3
200a35b4:	8fd9                	or	a5,a5,a4
200a35b6:	0077f713          	andi	a4,a5,7
200a35ba:	c719                	beqz	a4,200a35c8 <__mulsf3+0x294>
200a35bc:	00f7f713          	andi	a4,a5,15
200a35c0:	4691                	li	a3,4
200a35c2:	00d70363          	beq	a4,a3,200a35c8 <__mulsf3+0x294>
200a35c6:	0791                	addi	a5,a5,4 # 8000004 <_data_lma+0x7fb769c>
200a35c8:	04000737          	lui	a4,0x4000
200a35cc:	8f7d                	and	a4,a4,a5
200a35ce:	cb01                	beqz	a4,200a35de <__mulsf3+0x2aa>
200a35d0:	4785                	li	a5,1
200a35d2:	4601                	li	a2,0
200a35d4:	b3dd                	j	200a33ba <__mulsf3+0x86>
200a35d6:	0ff00793          	li	a5,255
200a35da:	4601                	li	a2,0
200a35dc:	bbf9                	j	200a33ba <__mulsf3+0x86>
200a35de:	079a                	slli	a5,a5,0x6
200a35e0:	0097d613          	srli	a2,a5,0x9
200a35e4:	4781                	li	a5,0
200a35e6:	bbd1                	j	200a33ba <__mulsf3+0x86>
200a35e8:	4e3d                	li	t3,15
200a35ea:	4301                	li	t1,0
200a35ec:	00400637          	lui	a2,0x400
200a35f0:	ddc705e3          	beq	a4,t3,200a33ba <__mulsf3+0x86>
200a35f4:	432d                	li	t1,11
200a35f6:	460d                	li	a2,3
200a35f8:	bd69                	j	200a3492 <__mulsf3+0x15e>

200a35fa <__subsf3>:
200a35fa:	008007b7          	lui	a5,0x800
200a35fe:	17fd                	addi	a5,a5,-1 # 7fffff <_data_lma+0x7b7697>
200a3600:	0175d613          	srli	a2,a1,0x17
200a3604:	00a7f733          	and	a4,a5,a0
200a3608:	01755693          	srli	a3,a0,0x17
200a360c:	01f55893          	srli	a7,a0,0x1f
200a3610:	8fed                	and	a5,a5,a1
200a3612:	0ff67613          	zext.b	a2,a2
200a3616:	0ff00813          	li	a6,255
200a361a:	0ff6f513          	zext.b	a0,a3
200a361e:	8346                	mv	t1,a7
200a3620:	070e                	slli	a4,a4,0x3
200a3622:	81fd                	srli	a1,a1,0x1f
200a3624:	00379693          	slli	a3,a5,0x3
200a3628:	05060263          	beq	a2,a6,200a366c <__subsf3+0x72>
200a362c:	0015c593          	xori	a1,a1,1
200a3630:	40c507b3          	sub	a5,a0,a2
200a3634:	00b88f63          	beq	a7,a1,200a3652 <__subsf3+0x58>
200a3638:	30f05863          	blez	a5,200a3948 <__subsf3+0x34e>
200a363c:	e635                	bnez	a2,200a36a8 <__subsf3+0xae>
200a363e:	14068c63          	beqz	a3,200a3796 <__subsf3+0x19c>
200a3642:	fff78613          	addi	a2,a5,-1
200a3646:	2a060263          	beqz	a2,200a38ea <__subsf3+0x2f0>
200a364a:	03078e63          	beq	a5,a6,200a3686 <__subsf3+0x8c>
200a364e:	87b2                	mv	a5,a2
200a3650:	a085                	j	200a36b0 <__subsf3+0xb6>
200a3652:	30f05663          	blez	a5,200a395e <__subsf3+0x364>
200a3656:	ca6d                	beqz	a2,200a3748 <__subsf3+0x14e>
200a3658:	03050763          	beq	a0,a6,200a3686 <__subsf3+0x8c>
200a365c:	29a69693          	bseti	a3,a3,0x1a
200a3660:	466d                	li	a2,27
200a3662:	14f65063          	bge	a2,a5,200a37a2 <__subsf3+0x1a8>
200a3666:	0705                	addi	a4,a4,1 # 4000001 <_data_lma+0x3fb7699>
200a3668:	87aa                	mv	a5,a0
200a366a:	a8ad                	j	200a36e4 <__subsf3+0xea>
200a366c:	f0150793          	addi	a5,a0,-255
200a3670:	e6cd                	bnez	a3,200a371a <__subsf3+0x120>
200a3672:	0015c593          	xori	a1,a1,1
200a3676:	0eb88263          	beq	a7,a1,200a375a <__subsf3+0x160>
200a367a:	18078e63          	beqz	a5,200a3816 <__subsf3+0x21c>
200a367e:	10050763          	beqz	a0,200a378c <__subsf3+0x192>
200a3682:	88ae                	mv	a7,a1
200a3684:	8736                	mv	a4,a3
200a3686:	830d                	srli	a4,a4,0x3
200a3688:	0018f313          	andi	t1,a7,1
200a368c:	0ff00513          	li	a0,255
200a3690:	cf3d                	beqz	a4,200a370e <__subsf3+0x114>
200a3692:	0ff00513          	li	a0,255
200a3696:	4301                	li	t1,0
200a3698:	00400737          	lui	a4,0x400
200a369c:	055e                	slli	a0,a0,0x17
200a369e:	8d59                	or	a0,a0,a4
200a36a0:	01f31793          	slli	a5,t1,0x1f
200a36a4:	8d5d                	or	a0,a0,a5
200a36a6:	8082                	ret
200a36a8:	fd050fe3          	beq	a0,a6,200a3686 <__subsf3+0x8c>
200a36ac:	29a69693          	bseti	a3,a3,0x1a
200a36b0:	45ed                	li	a1,27
200a36b2:	4605                	li	a2,1
200a36b4:	00f5cd63          	blt	a1,a5,200a36ce <__subsf3+0xd4>
200a36b8:	02000613          	li	a2,32
200a36bc:	8e1d                	sub	a2,a2,a5
200a36be:	00c69633          	sll	a2,a3,a2
200a36c2:	00f6d6b3          	srl	a3,a3,a5
200a36c6:	00c037b3          	snez	a5,a2
200a36ca:	00f6e633          	or	a2,a3,a5
200a36ce:	8f11                	sub	a4,a4,a2
200a36d0:	040007b7          	lui	a5,0x4000
200a36d4:	00f776b3          	and	a3,a4,a5
200a36d8:	10069363          	bnez	a3,200a37de <__subsf3+0x1e4>
200a36dc:	00777693          	andi	a3,a4,7
200a36e0:	87aa                	mv	a5,a0
200a36e2:	cad5                	beqz	a3,200a3796 <__subsf3+0x19c>
200a36e4:	00f77693          	andi	a3,a4,15
200a36e8:	4611                	li	a2,4
200a36ea:	00c68363          	beq	a3,a2,200a36f0 <__subsf3+0xf6>
200a36ee:	0711                	addi	a4,a4,4 # 400004 <_data_lma+0x3b769c>
200a36f0:	040006b7          	lui	a3,0x4000
200a36f4:	8ef9                	and	a3,a3,a4
200a36f6:	c2c5                	beqz	a3,200a3796 <__subsf3+0x19c>
200a36f8:	0785                	addi	a5,a5,1 # 4000001 <_data_lma+0x3fb7699>
200a36fa:	0ff00693          	li	a3,255
200a36fe:	0018f313          	andi	t1,a7,1
200a3702:	0cd78563          	beq	a5,a3,200a37cc <__subsf3+0x1d2>
200a3706:	071a                	slli	a4,a4,0x6
200a3708:	0ff7f513          	zext.b	a0,a5
200a370c:	8325                	srli	a4,a4,0x9
200a370e:	055e                	slli	a0,a0,0x17
200a3710:	8d59                	or	a0,a0,a4
200a3712:	01f31793          	slli	a5,t1,0x1f
200a3716:	8d5d                	or	a0,a0,a5
200a3718:	8082                	ret
200a371a:	f6b890e3          	bne	a7,a1,200a367a <__subsf3+0x80>
200a371e:	c3b1                	beqz	a5,200a3762 <__subsf3+0x168>
200a3720:	1c051363          	bnez	a0,200a38e6 <__subsf3+0x2ec>
200a3724:	0ff00793          	li	a5,255
200a3728:	c735                	beqz	a4,200a3794 <__subsf3+0x19a>
200a372a:	fff78593          	addi	a1,a5,-1
200a372e:	12058863          	beqz	a1,200a385e <__subsf3+0x264>
200a3732:	0ff00513          	li	a0,255
200a3736:	1aa78863          	beq	a5,a0,200a38e6 <__subsf3+0x2ec>
200a373a:	47ed                	li	a5,27
200a373c:	1ab7dd63          	bge	a5,a1,200a38f6 <__subsf3+0x2fc>
200a3740:	00168713          	addi	a4,a3,1 # 4000001 <_data_lma+0x3fb7699>
200a3744:	87b2                	mv	a5,a2
200a3746:	bf79                	j	200a36e4 <__subsf3+0xea>
200a3748:	c6b9                	beqz	a3,200a3796 <__subsf3+0x19c>
200a374a:	fff78613          	addi	a2,a5,-1
200a374e:	10060863          	beqz	a2,200a385e <__subsf3+0x264>
200a3752:	f3078ae3          	beq	a5,a6,200a3686 <__subsf3+0x8c>
200a3756:	87b2                	mv	a5,a2
200a3758:	b721                	j	200a3660 <__subsf3+0x66>
200a375a:	c781                	beqz	a5,200a3762 <__subsf3+0x168>
200a375c:	d561                	beqz	a0,200a3724 <__subsf3+0x12a>
200a375e:	4701                	li	a4,0
200a3760:	b71d                	j	200a3686 <__subsf3+0x8c>
200a3762:	00150793          	addi	a5,a0,1
200a3766:	0fe7f613          	andi	a2,a5,254
200a376a:	14061863          	bnez	a2,200a38ba <__subsf3+0x2c0>
200a376e:	16051b63          	bnez	a0,200a38e4 <__subsf3+0x2ea>
200a3772:	1a070963          	beqz	a4,200a3924 <__subsf3+0x32a>
200a3776:	1a069963          	bnez	a3,200a3928 <__subsf3+0x32e>
200a377a:	830d                	srli	a4,a4,0x3
200a377c:	4781                	li	a5,0
200a377e:	0726                	slli	a4,a4,0x9
200a3780:	8325                	srli	a4,a4,0x9
200a3782:	0ff7f513          	zext.b	a0,a5
200a3786:	0018f313          	andi	t1,a7,1
200a378a:	b751                	j	200a370e <__subsf3+0x114>
200a378c:	0ff00793          	li	a5,255
200a3790:	eb65                	bnez	a4,200a3880 <__subsf3+0x286>
200a3792:	88ae                	mv	a7,a1
200a3794:	8736                	mv	a4,a3
200a3796:	0ff00693          	li	a3,255
200a379a:	830d                	srli	a4,a4,0x3
200a379c:	eed786e3          	beq	a5,a3,200a3688 <__subsf3+0x8e>
200a37a0:	bff9                	j	200a377e <__subsf3+0x184>
200a37a2:	02000613          	li	a2,32
200a37a6:	8e1d                	sub	a2,a2,a5
200a37a8:	00c69633          	sll	a2,a3,a2
200a37ac:	00c03633          	snez	a2,a2
200a37b0:	00f6d6b3          	srl	a3,a3,a5
200a37b4:	8ed1                	or	a3,a3,a2
200a37b6:	9736                	add	a4,a4,a3
200a37b8:	040007b7          	lui	a5,0x4000
200a37bc:	8ff9                	and	a5,a5,a4
200a37be:	df99                	beqz	a5,200a36dc <__subsf3+0xe2>
200a37c0:	00150793          	addi	a5,a0,1
200a37c4:	0ff00693          	li	a3,255
200a37c8:	0ad79363          	bne	a5,a3,200a386e <__subsf3+0x274>
200a37cc:	0ff00513          	li	a0,255
200a37d0:	4701                	li	a4,0
200a37d2:	055e                	slli	a0,a0,0x17
200a37d4:	8d59                	or	a0,a0,a4
200a37d6:	01f31793          	slli	a5,t1,0x1f
200a37da:	8d5d                	or	a0,a0,a5
200a37dc:	8082                	ret
200a37de:	17fd                	addi	a5,a5,-1 # 3ffffff <_data_lma+0x3fb7697>
200a37e0:	00f77633          	and	a2,a4,a5
200a37e4:	60061793          	clz	a5,a2
200a37e8:	17ed                	addi	a5,a5,-5
200a37ea:	00f61633          	sll	a2,a2,a5
200a37ee:	04a7c863          	blt	a5,a0,200a383e <__subsf3+0x244>
200a37f2:	8f89                	sub	a5,a5,a0
200a37f4:	0785                	addi	a5,a5,1
200a37f6:	02000713          	li	a4,32
200a37fa:	8f1d                	sub	a4,a4,a5
200a37fc:	00e61733          	sll	a4,a2,a4
200a3800:	00e03733          	snez	a4,a4
200a3804:	00f65633          	srl	a2,a2,a5
200a3808:	8f51                	or	a4,a4,a2
200a380a:	4781                	li	a5,0
200a380c:	00777693          	andi	a3,a4,7
200a3810:	ec069ae3          	bnez	a3,200a36e4 <__subsf3+0xea>
200a3814:	bdf1                	j	200a36f0 <__subsf3+0xf6>
200a3816:	00150793          	addi	a5,a0,1
200a381a:	0fe7f793          	andi	a5,a5,254
200a381e:	e78d                	bnez	a5,200a3848 <__subsf3+0x24e>
200a3820:	e955                	bnez	a0,200a38d4 <__subsf3+0x2da>
200a3822:	cf6d                	beqz	a4,200a391c <__subsf3+0x322>
200a3824:	dab9                	beqz	a3,200a377a <__subsf3+0x180>
200a3826:	40d707b3          	sub	a5,a4,a3
200a382a:	04000637          	lui	a2,0x4000
200a382e:	8e7d                	and	a2,a2,a5
200a3830:	10060763          	beqz	a2,200a393e <__subsf3+0x344>
200a3834:	40e68733          	sub	a4,a3,a4
200a3838:	4781                	li	a5,0
200a383a:	88ae                	mv	a7,a1
200a383c:	bfc1                	j	200a380c <__subsf3+0x212>
200a383e:	40f507b3          	sub	a5,a0,a5
200a3842:	49a61713          	bclri	a4,a2,0x1a
200a3846:	b7d9                	j	200a380c <__subsf3+0x212>
200a3848:	40d70633          	sub	a2,a4,a3
200a384c:	040007b7          	lui	a5,0x4000
200a3850:	8ff1                	and	a5,a5,a2
200a3852:	e7c9                	bnez	a5,200a38dc <__subsf3+0x2e2>
200a3854:	fa41                	bnez	a2,200a37e4 <__subsf3+0x1ea>
200a3856:	4301                	li	t1,0
200a3858:	4501                	li	a0,0
200a385a:	4701                	li	a4,0
200a385c:	bd4d                	j	200a370e <__subsf3+0x114>
200a385e:	9736                	add	a4,a4,a3
200a3860:	040006b7          	lui	a3,0x4000
200a3864:	8ef9                	and	a3,a3,a4
200a3866:	4789                	li	a5,2
200a3868:	4505                	li	a0,1
200a386a:	e60689e3          	beqz	a3,200a36dc <__subsf3+0xe2>
200a386e:	7e000637          	lui	a2,0x7e000
200a3872:	00175693          	srli	a3,a4,0x1
200a3876:	167d                	addi	a2,a2,-1 # 7dffffff <_eusrstack+0x5defffff>
200a3878:	8b05                	andi	a4,a4,1
200a387a:	8ef1                	and	a3,a3,a2
200a387c:	8f55                	or	a4,a4,a3
200a387e:	b779                	j	200a380c <__subsf3+0x212>
200a3880:	fff78813          	addi	a6,a5,-1 # 3ffffff <_data_lma+0x3fb7697>
200a3884:	08080763          	beqz	a6,200a3912 <__subsf3+0x318>
200a3888:	0ff00513          	li	a0,255
200a388c:	88ae                	mv	a7,a1
200a388e:	04a78c63          	beq	a5,a0,200a38e6 <__subsf3+0x2ec>
200a3892:	45ed                	li	a1,27
200a3894:	4785                	li	a5,1
200a3896:	0105ce63          	blt	a1,a6,200a38b2 <__subsf3+0x2b8>
200a389a:	02000793          	li	a5,32
200a389e:	410787b3          	sub	a5,a5,a6
200a38a2:	00f717b3          	sll	a5,a4,a5
200a38a6:	01075833          	srl	a6,a4,a6
200a38aa:	00f037b3          	snez	a5,a5
200a38ae:	00f867b3          	or	a5,a6,a5
200a38b2:	40f68733          	sub	a4,a3,a5
200a38b6:	8532                	mv	a0,a2
200a38b8:	bd21                	j	200a36d0 <__subsf3+0xd6>
200a38ba:	0ff00613          	li	a2,255
200a38be:	f0c787e3          	beq	a5,a2,200a37cc <__subsf3+0x1d2>
200a38c2:	96ba                	add	a3,a3,a4
200a38c4:	0016d713          	srli	a4,a3,0x1
200a38c8:	00777613          	andi	a2,a4,7
200a38cc:	e0061ce3          	bnez	a2,200a36e4 <__subsf3+0xea>
200a38d0:	830d                	srli	a4,a4,0x3
200a38d2:	b575                	j	200a377e <__subsf3+0x184>
200a38d4:	ef11                	bnez	a4,200a38f0 <__subsf3+0x2f6>
200a38d6:	da068ee3          	beqz	a3,200a3692 <__subsf3+0x98>
200a38da:	b365                	j	200a3682 <__subsf3+0x88>
200a38dc:	40e68633          	sub	a2,a3,a4
200a38e0:	88ae                	mv	a7,a1
200a38e2:	b709                	j	200a37e4 <__subsf3+0x1ea>
200a38e4:	e711                	bnez	a4,200a38f0 <__subsf3+0x2f6>
200a38e6:	8736                	mv	a4,a3
200a38e8:	bb79                	j	200a3686 <__subsf3+0x8c>
200a38ea:	8f15                	sub	a4,a4,a3
200a38ec:	4505                	li	a0,1
200a38ee:	b3cd                	j	200a36d0 <__subsf3+0xd6>
200a38f0:	d8068be3          	beqz	a3,200a3686 <__subsf3+0x8c>
200a38f4:	bb79                	j	200a3692 <__subsf3+0x98>
200a38f6:	02000793          	li	a5,32
200a38fa:	8f8d                	sub	a5,a5,a1
200a38fc:	00f717b3          	sll	a5,a4,a5
200a3900:	00b755b3          	srl	a1,a4,a1
200a3904:	00f037b3          	snez	a5,a5
200a3908:	8ddd                	or	a1,a1,a5
200a390a:	00d58733          	add	a4,a1,a3
200a390e:	8532                	mv	a0,a2
200a3910:	b565                	j	200a37b8 <__subsf3+0x1be>
200a3912:	40e68733          	sub	a4,a3,a4
200a3916:	88ae                	mv	a7,a1
200a3918:	4505                	li	a0,1
200a391a:	bb5d                	j	200a36d0 <__subsf3+0xd6>
200a391c:	de8d                	beqz	a3,200a3856 <__subsf3+0x25c>
200a391e:	88ae                	mv	a7,a1
200a3920:	8736                	mv	a4,a3
200a3922:	bda1                	j	200a377a <__subsf3+0x180>
200a3924:	8736                	mv	a4,a3
200a3926:	bd91                	j	200a377a <__subsf3+0x180>
200a3928:	9736                	add	a4,a4,a3
200a392a:	04000637          	lui	a2,0x4000
200a392e:	8e79                	and	a2,a2,a4
200a3930:	4781                	li	a5,0
200a3932:	de59                	beqz	a2,200a38d0 <__subsf3+0x2d6>
200a3934:	49a71713          	bclri	a4,a4,0x1a
200a3938:	4785                	li	a5,1
200a393a:	830d                	srli	a4,a4,0x3
200a393c:	b589                	j	200a377e <__subsf3+0x184>
200a393e:	df81                	beqz	a5,200a3856 <__subsf3+0x25c>
200a3940:	873e                	mv	a4,a5
200a3942:	830d                	srli	a4,a4,0x3
200a3944:	4781                	li	a5,0
200a3946:	bd25                	j	200a377e <__subsf3+0x184>
200a3948:	ec0787e3          	beqz	a5,200a3816 <__subsf3+0x21c>
200a394c:	40a60833          	sub	a6,a2,a0
200a3950:	87c2                	mv	a5,a6
200a3952:	e2050fe3          	beqz	a0,200a3790 <__subsf3+0x196>
200a3956:	88ae                	mv	a7,a1
200a3958:	29a71713          	bseti	a4,a4,0x1a
200a395c:	bf1d                	j	200a3892 <__subsf3+0x298>
200a395e:	e00782e3          	beqz	a5,200a3762 <__subsf3+0x168>
200a3962:	40a605b3          	sub	a1,a2,a0
200a3966:	e119                	bnez	a0,200a396c <__subsf3+0x372>
200a3968:	87ae                	mv	a5,a1
200a396a:	bb7d                	j	200a3728 <__subsf3+0x12e>
200a396c:	29a71713          	bseti	a4,a4,0x1a
200a3970:	b3e9                	j	200a373a <__subsf3+0x140>

200a3972 <__unordsf2>:
200a3972:	01755693          	srli	a3,a0,0x17
200a3976:	00800737          	lui	a4,0x800
200a397a:	177d                	addi	a4,a4,-1 # 7fffff <_data_lma+0x7b7697>
200a397c:	0175d613          	srli	a2,a1,0x17
200a3980:	0ff6f693          	zext.b	a3,a3
200a3984:	0ff00813          	li	a6,255
200a3988:	00a777b3          	and	a5,a4,a0
200a398c:	0ff67613          	zext.b	a2,a2
200a3990:	8f6d                	and	a4,a4,a1
200a3992:	01068b63          	beq	a3,a6,200a39a8 <__unordsf2+0x36>
200a3996:	0ff00793          	li	a5,255
200a399a:	4501                	li	a0,0
200a399c:	00f60363          	beq	a2,a5,200a39a2 <__unordsf2+0x30>
200a39a0:	8082                	ret
200a39a2:	00e03533          	snez	a0,a4
200a39a6:	8082                	ret
200a39a8:	4505                	li	a0,1
200a39aa:	d7f5                	beqz	a5,200a3996 <__unordsf2+0x24>
200a39ac:	8082                	ret

200a39ae <__fixsfsi>:
200a39ae:	01755713          	srli	a4,a0,0x17
200a39b2:	00951793          	slli	a5,a0,0x9
200a39b6:	0ff77713          	zext.b	a4,a4
200a39ba:	07e00613          	li	a2,126
200a39be:	0097d693          	srli	a3,a5,0x9
200a39c2:	01f55793          	srli	a5,a0,0x1f
200a39c6:	00e65b63          	bge	a2,a4,200a39dc <__fixsfsi+0x2e>
200a39ca:	09d00613          	li	a2,157
200a39ce:	00e65963          	bge	a2,a4,200a39e0 <__fixsfsi+0x32>
200a39d2:	80000537          	lui	a0,0x80000
200a39d6:	157d                	addi	a0,a0,-1 # 7fffffff <_eusrstack+0x5fefffff>
200a39d8:	953e                	add	a0,a0,a5
200a39da:	8082                	ret
200a39dc:	4501                	li	a0,0
200a39de:	8082                	ret
200a39e0:	09500613          	li	a2,149
200a39e4:	29769693          	bseti	a3,a3,0x17
200a39e8:	00e64d63          	blt	a2,a4,200a3a02 <__fixsfsi+0x54>
200a39ec:	09600613          	li	a2,150
200a39f0:	40e60733          	sub	a4,a2,a4
200a39f4:	00e6d6b3          	srl	a3,a3,a4
200a39f8:	40d00533          	neg	a0,a3
200a39fc:	f3ed                	bnez	a5,200a39de <__fixsfsi+0x30>
200a39fe:	8536                	mv	a0,a3
200a3a00:	8082                	ret
200a3a02:	f6a70713          	addi	a4,a4,-150
200a3a06:	00e696b3          	sll	a3,a3,a4
200a3a0a:	b7fd                	j	200a39f8 <__fixsfsi+0x4a>

200a3a0c <__fixunssfsi>:
200a3a0c:	01755713          	srli	a4,a0,0x17
200a3a10:	00951793          	slli	a5,a0,0x9
200a3a14:	0ff77713          	zext.b	a4,a4
200a3a18:	07e00613          	li	a2,126
200a3a1c:	0097d693          	srli	a3,a5,0x9
200a3a20:	01f55793          	srli	a5,a0,0x1f
200a3a24:	4501                	li	a0,0
200a3a26:	00e65363          	bge	a2,a4,200a3a2c <__fixunssfsi+0x20>
200a3a2a:	c391                	beqz	a5,200a3a2e <__fixunssfsi+0x22>
200a3a2c:	8082                	ret
200a3a2e:	09e00793          	li	a5,158
200a3a32:	557d                	li	a0,-1
200a3a34:	fee7cce3          	blt	a5,a4,200a3a2c <__fixunssfsi+0x20>
200a3a38:	09500613          	li	a2,149
200a3a3c:	29769793          	bseti	a5,a3,0x17
200a3a40:	00e65763          	bge	a2,a4,200a3a4e <__fixunssfsi+0x42>
200a3a44:	f6a70713          	addi	a4,a4,-150
200a3a48:	00e79533          	sll	a0,a5,a4
200a3a4c:	8082                	ret
200a3a4e:	09600513          	li	a0,150
200a3a52:	8d19                	sub	a0,a0,a4
200a3a54:	00a7d533          	srl	a0,a5,a0
200a3a58:	8082                	ret

200a3a5a <__floatsisf>:
200a3a5a:	cd1d                	beqz	a0,200a3a98 <__floatsisf+0x3e>
200a3a5c:	40a006b3          	neg	a3,a0
200a3a60:	09e00793          	li	a5,158
200a3a64:	0ad566b3          	max	a3,a0,a3
200a3a68:	09600613          	li	a2,150
200a3a6c:	60069593          	clz	a1,a3
200a3a70:	8f8d                	sub	a5,a5,a1
200a3a72:	01f55713          	srli	a4,a0,0x1f
200a3a76:	02f64963          	blt	a2,a5,200a3aa8 <__floatsisf+0x4e>
200a3a7a:	4621                	li	a2,8
200a3a7c:	08c58a63          	beq	a1,a2,200a3b10 <__floatsisf+0xb6>
200a3a80:	15e1                	addi	a1,a1,-8
200a3a82:	00b696b3          	sll	a3,a3,a1
200a3a86:	0ff7f513          	zext.b	a0,a5
200a3a8a:	06a6                	slli	a3,a3,0x9
200a3a8c:	82a5                	srli	a3,a3,0x9
200a3a8e:	055e                	slli	a0,a0,0x17
200a3a90:	8d55                	or	a0,a0,a3
200a3a92:	077e                	slli	a4,a4,0x1f
200a3a94:	8d59                	or	a0,a0,a4
200a3a96:	8082                	ret
200a3a98:	4701                	li	a4,0
200a3a9a:	4501                	li	a0,0
200a3a9c:	4681                	li	a3,0
200a3a9e:	055e                	slli	a0,a0,0x17
200a3aa0:	8d55                	or	a0,a0,a3
200a3aa2:	077e                	slli	a4,a4,0x1f
200a3aa4:	8d59                	or	a0,a0,a4
200a3aa6:	8082                	ret
200a3aa8:	09900613          	li	a2,153
200a3aac:	04f64663          	blt	a2,a5,200a3af8 <__floatsisf+0x9e>
200a3ab0:	4615                	li	a2,5
200a3ab2:	ffb58513          	addi	a0,a1,-5
200a3ab6:	00c58463          	beq	a1,a2,200a3abe <__floatsisf+0x64>
200a3aba:	00a696b3          	sll	a3,a3,a0
200a3abe:	0076f513          	andi	a0,a3,7
200a3ac2:	49a69613          	bclri	a2,a3,0x1a
200a3ac6:	cd19                	beqz	a0,200a3ae4 <__floatsisf+0x8a>
200a3ac8:	8abd                	andi	a3,a3,15
200a3aca:	4511                	li	a0,4
200a3acc:	00a68c63          	beq	a3,a0,200a3ae4 <__floatsisf+0x8a>
200a3ad0:	0611                	addi	a2,a2,4 # 4000004 <_data_lma+0x3fb769c>
200a3ad2:	040006b7          	lui	a3,0x4000
200a3ad6:	8ef1                	and	a3,a3,a2
200a3ad8:	c691                	beqz	a3,200a3ae4 <__floatsisf+0x8a>
200a3ada:	09f00793          	li	a5,159
200a3ade:	8f8d                	sub	a5,a5,a1
200a3ae0:	49a61613          	bclri	a2,a2,0x1a
200a3ae4:	00661693          	slli	a3,a2,0x6
200a3ae8:	0ff7f513          	zext.b	a0,a5
200a3aec:	82a5                	srli	a3,a3,0x9
200a3aee:	055e                	slli	a0,a0,0x17
200a3af0:	8d55                	or	a0,a0,a3
200a3af2:	077e                	slli	a4,a4,0x1f
200a3af4:	8d59                	or	a0,a0,a4
200a3af6:	8082                	ret
200a3af8:	01b58613          	addi	a2,a1,27
200a3afc:	4515                	li	a0,5
200a3afe:	00c69633          	sll	a2,a3,a2
200a3b02:	8d0d                	sub	a0,a0,a1
200a3b04:	00a6d6b3          	srl	a3,a3,a0
200a3b08:	00c03633          	snez	a2,a2
200a3b0c:	8ed1                	or	a3,a3,a2
200a3b0e:	bf45                	j	200a3abe <__floatsisf+0x64>
200a3b10:	06a6                	slli	a3,a3,0x9
200a3b12:	82a5                	srli	a3,a3,0x9
200a3b14:	09600513          	li	a0,150
200a3b18:	b759                	j	200a3a9e <__floatsisf+0x44>

200a3b1a <__errno>:
200a3b1a:	8581a503          	lw	a0,-1960(gp) # 200c0438 <_impure_ptr>
200a3b1e:	8082                	ret

200a3b20 <iprintf>:
200a3b20:	715d                	addi	sp,sp,-80
200a3b22:	d422                	sw	s0,40(sp)
200a3b24:	d606                	sw	ra,44(sp)
200a3b26:	842a                	mv	s0,a0
200a3b28:	da2e                	sw	a1,52(sp)
200a3b2a:	dc32                	sw	a2,56(sp)
200a3b2c:	de36                	sw	a3,60(sp)
200a3b2e:	c0ba                	sw	a4,64(sp)
200a3b30:	c2be                	sw	a5,68(sp)
200a3b32:	c4c2                	sw	a6,72(sp)
200a3b34:	c6c6                	sw	a7,76(sp)
200a3b36:	8581a503          	lw	a0,-1960(gp) # 200c0438 <_impure_ptr>
200a3b3a:	c511                	beqz	a0,200a3b46 <iprintf+0x26>
200a3b3c:	4d1c                	lw	a5,24(a0)
200a3b3e:	e781                	bnez	a5,200a3b46 <iprintf+0x26>
200a3b40:	c62a                	sw	a0,12(sp)
200a3b42:	20d5                	jal	200a3c26 <__sinit>
200a3b44:	4532                	lw	a0,12(sp)
200a3b46:	450c                	lw	a1,8(a0)
200a3b48:	1854                	addi	a3,sp,52
200a3b4a:	8622                	mv	a2,s0
200a3b4c:	ce36                	sw	a3,28(sp)
200a3b4e:	2905                	jal	200a3f7e <_vfiprintf_r>
200a3b50:	50b2                	lw	ra,44(sp)
200a3b52:	5422                	lw	s0,40(sp)
200a3b54:	6161                	addi	sp,sp,80
200a3b56:	8082                	ret

200a3b58 <std>:
200a3b58:	1141                	addi	sp,sp,-16
200a3b5a:	c422                	sw	s0,8(sp)
200a3b5c:	c606                	sw	ra,12(sp)
200a3b5e:	842a                	mv	s0,a0
200a3b60:	a54e                	sh	a1,12(a0)
200a3b62:	a572                	sh	a2,14(a0)
200a3b64:	00052023          	sw	zero,0(a0)
200a3b68:	00052223          	sw	zero,4(a0)
200a3b6c:	00052423          	sw	zero,8(a0)
200a3b70:	06052223          	sw	zero,100(a0)
200a3b74:	00052823          	sw	zero,16(a0)
200a3b78:	00052a23          	sw	zero,20(a0)
200a3b7c:	00052c23          	sw	zero,24(a0)
200a3b80:	4621                	li	a2,8
200a3b82:	4581                	li	a1,0
200a3b84:	05c50513          	addi	a0,a0,92
200a3b88:	f2cfc0ef          	jal	ra,200a02b4 <memset>
200a3b8c:	00000797          	auipc	a5,0x0
200a3b90:	6d478793          	addi	a5,a5,1748 # 200a4260 <__sread>
200a3b94:	d05c                	sw	a5,36(s0)
200a3b96:	00000797          	auipc	a5,0x0
200a3b9a:	6f678793          	addi	a5,a5,1782 # 200a428c <__swrite>
200a3b9e:	d41c                	sw	a5,40(s0)
200a3ba0:	00000797          	auipc	a5,0x0
200a3ba4:	73278793          	addi	a5,a5,1842 # 200a42d2 <__sseek>
200a3ba8:	d45c                	sw	a5,44(s0)
200a3baa:	00000797          	auipc	a5,0x0
200a3bae:	75678793          	addi	a5,a5,1878 # 200a4300 <__sclose>
200a3bb2:	40b2                	lw	ra,12(sp)
200a3bb4:	d000                	sw	s0,32(s0)
200a3bb6:	d81c                	sw	a5,48(s0)
200a3bb8:	4422                	lw	s0,8(sp)
200a3bba:	0141                	addi	sp,sp,16
200a3bbc:	8082                	ret

200a3bbe <_cleanup_r>:
200a3bbe:	00001597          	auipc	a1,0x1
200a3bc2:	a7c58593          	addi	a1,a1,-1412 # 200a463a <_fflush_r>
200a3bc6:	a249                	j	200a3d48 <_fwalk_reent>

200a3bc8 <__sfmoreglue>:
200a3bc8:	1141                	addi	sp,sp,-16
200a3bca:	c226                	sw	s1,4(sp)
200a3bcc:	06800793          	li	a5,104
200a3bd0:	fff58493          	addi	s1,a1,-1
200a3bd4:	02f484b3          	mul	s1,s1,a5
200a3bd8:	c04a                	sw	s2,0(sp)
200a3bda:	892e                	mv	s2,a1
200a3bdc:	c422                	sw	s0,8(sp)
200a3bde:	c606                	sw	ra,12(sp)
200a3be0:	07448593          	addi	a1,s1,116
200a3be4:	241d                	jal	200a3e0a <_malloc_r>
200a3be6:	842a                	mv	s0,a0
200a3be8:	cd01                	beqz	a0,200a3c00 <__sfmoreglue+0x38>
200a3bea:	00052023          	sw	zero,0(a0)
200a3bee:	01252223          	sw	s2,4(a0)
200a3bf2:	0531                	addi	a0,a0,12
200a3bf4:	c408                	sw	a0,8(s0)
200a3bf6:	06848613          	addi	a2,s1,104
200a3bfa:	4581                	li	a1,0
200a3bfc:	eb8fc0ef          	jal	ra,200a02b4 <memset>
200a3c00:	40b2                	lw	ra,12(sp)
200a3c02:	8522                	mv	a0,s0
200a3c04:	4422                	lw	s0,8(sp)
200a3c06:	4492                	lw	s1,4(sp)
200a3c08:	4902                	lw	s2,0(sp)
200a3c0a:	0141                	addi	sp,sp,16
200a3c0c:	8082                	ret

200a3c0e <__sfp_lock_acquire>:
200a3c0e:	92818513          	addi	a0,gp,-1752 # 200c0508 <__lock___sfp_recursive_mutex>
200a3c12:	a245                	j	200a3db2 <__retarget_lock_acquire_recursive>

200a3c14 <__sfp_lock_release>:
200a3c14:	92818513          	addi	a0,gp,-1752 # 200c0508 <__lock___sfp_recursive_mutex>
200a3c18:	aa71                	j	200a3db4 <__retarget_lock_release_recursive>

200a3c1a <__sinit_lock_acquire>:
200a3c1a:	92c18513          	addi	a0,gp,-1748 # 200c050c <__lock___sinit_recursive_mutex>
200a3c1e:	aa51                	j	200a3db2 <__retarget_lock_acquire_recursive>

200a3c20 <__sinit_lock_release>:
200a3c20:	92c18513          	addi	a0,gp,-1748 # 200c050c <__lock___sinit_recursive_mutex>
200a3c24:	aa41                	j	200a3db4 <__retarget_lock_release_recursive>

200a3c26 <__sinit>:
200a3c26:	1141                	addi	sp,sp,-16
200a3c28:	c422                	sw	s0,8(sp)
200a3c2a:	c606                	sw	ra,12(sp)
200a3c2c:	842a                	mv	s0,a0
200a3c2e:	fedff0ef          	jal	ra,200a3c1a <__sinit_lock_acquire>
200a3c32:	4c1c                	lw	a5,24(s0)
200a3c34:	c791                	beqz	a5,200a3c40 <__sinit+0x1a>
200a3c36:	4422                	lw	s0,8(sp)
200a3c38:	40b2                	lw	ra,12(sp)
200a3c3a:	0141                	addi	sp,sp,16
200a3c3c:	fe5ff06f          	j	200a3c20 <__sinit_lock_release>
200a3c40:	00000797          	auipc	a5,0x0
200a3c44:	f7e78793          	addi	a5,a5,-130 # 200a3bbe <_cleanup_r>
200a3c48:	d41c                	sw	a5,40(s0)
200a3c4a:	04042423          	sw	zero,72(s0)
200a3c4e:	04042623          	sw	zero,76(s0)
200a3c52:	04042823          	sw	zero,80(s0)
200a3c56:	8d01a783          	lw	a5,-1840(gp) # 200c04b0 <_global_impure_ptr>
200a3c5a:	00879463          	bne	a5,s0,200a3c62 <__sinit+0x3c>
200a3c5e:	4785                	li	a5,1
200a3c60:	cc1c                	sw	a5,24(s0)
200a3c62:	8522                	mv	a0,s0
200a3c64:	2815                	jal	200a3c98 <__sfp>
200a3c66:	c048                	sw	a0,4(s0)
200a3c68:	8522                	mv	a0,s0
200a3c6a:	203d                	jal	200a3c98 <__sfp>
200a3c6c:	c408                	sw	a0,8(s0)
200a3c6e:	8522                	mv	a0,s0
200a3c70:	2025                	jal	200a3c98 <__sfp>
200a3c72:	c448                	sw	a0,12(s0)
200a3c74:	4048                	lw	a0,4(s0)
200a3c76:	4601                	li	a2,0
200a3c78:	4591                	li	a1,4
200a3c7a:	edfff0ef          	jal	ra,200a3b58 <std>
200a3c7e:	4408                	lw	a0,8(s0)
200a3c80:	4605                	li	a2,1
200a3c82:	45a5                	li	a1,9
200a3c84:	ed5ff0ef          	jal	ra,200a3b58 <std>
200a3c88:	4448                	lw	a0,12(s0)
200a3c8a:	4609                	li	a2,2
200a3c8c:	45c9                	li	a1,18
200a3c8e:	ecbff0ef          	jal	ra,200a3b58 <std>
200a3c92:	4785                	li	a5,1
200a3c94:	cc1c                	sw	a5,24(s0)
200a3c96:	b745                	j	200a3c36 <__sinit+0x10>

200a3c98 <__sfp>:
200a3c98:	1141                	addi	sp,sp,-16
200a3c9a:	c226                	sw	s1,4(sp)
200a3c9c:	c04a                	sw	s2,0(sp)
200a3c9e:	c606                	sw	ra,12(sp)
200a3ca0:	c422                	sw	s0,8(sp)
200a3ca2:	892a                	mv	s2,a0
200a3ca4:	f6bff0ef          	jal	ra,200a3c0e <__sfp_lock_acquire>
200a3ca8:	8d01a483          	lw	s1,-1840(gp) # 200c04b0 <_global_impure_ptr>
200a3cac:	4c9c                	lw	a5,24(s1)
200a3cae:	e781                	bnez	a5,200a3cb6 <__sfp+0x1e>
200a3cb0:	8526                	mv	a0,s1
200a3cb2:	f75ff0ef          	jal	ra,200a3c26 <__sinit>
200a3cb6:	04848493          	addi	s1,s1,72
200a3cba:	4480                	lw	s0,8(s1)
200a3cbc:	40dc                	lw	a5,4(s1)
200a3cbe:	17fd                	addi	a5,a5,-1
200a3cc0:	0007d663          	bgez	a5,200a3ccc <__sfp+0x34>
200a3cc4:	409c                	lw	a5,0(s1)
200a3cc6:	c7a5                	beqz	a5,200a3d2e <__sfp+0x96>
200a3cc8:	4084                	lw	s1,0(s1)
200a3cca:	bfc5                	j	200a3cba <__sfp+0x22>
200a3ccc:	00c41703          	lh	a4,12(s0)
200a3cd0:	ef21                	bnez	a4,200a3d28 <__sfp+0x90>
200a3cd2:	77c1                	lui	a5,0xffff0
200a3cd4:	0785                	addi	a5,a5,1 # ffff0001 <_eusrstack+0xdfef0001>
200a3cd6:	c45c                	sw	a5,12(s0)
200a3cd8:	05840513          	addi	a0,s0,88
200a3cdc:	06042223          	sw	zero,100(s0)
200a3ce0:	28c1                	jal	200a3db0 <__retarget_lock_init_recursive>
200a3ce2:	f33ff0ef          	jal	ra,200a3c14 <__sfp_lock_release>
200a3ce6:	4621                	li	a2,8
200a3ce8:	00042023          	sw	zero,0(s0)
200a3cec:	00042423          	sw	zero,8(s0)
200a3cf0:	00042223          	sw	zero,4(s0)
200a3cf4:	00042823          	sw	zero,16(s0)
200a3cf8:	00042a23          	sw	zero,20(s0)
200a3cfc:	00042c23          	sw	zero,24(s0)
200a3d00:	4581                	li	a1,0
200a3d02:	05c40513          	addi	a0,s0,92
200a3d06:	daefc0ef          	jal	ra,200a02b4 <memset>
200a3d0a:	02042a23          	sw	zero,52(s0)
200a3d0e:	02042c23          	sw	zero,56(s0)
200a3d12:	04042423          	sw	zero,72(s0)
200a3d16:	04042623          	sw	zero,76(s0)
200a3d1a:	40b2                	lw	ra,12(sp)
200a3d1c:	8522                	mv	a0,s0
200a3d1e:	4422                	lw	s0,8(sp)
200a3d20:	4492                	lw	s1,4(sp)
200a3d22:	4902                	lw	s2,0(sp)
200a3d24:	0141                	addi	sp,sp,16
200a3d26:	8082                	ret
200a3d28:	06840413          	addi	s0,s0,104
200a3d2c:	bf49                	j	200a3cbe <__sfp+0x26>
200a3d2e:	4591                	li	a1,4
200a3d30:	854a                	mv	a0,s2
200a3d32:	e97ff0ef          	jal	ra,200a3bc8 <__sfmoreglue>
200a3d36:	c088                	sw	a0,0(s1)
200a3d38:	842a                	mv	s0,a0
200a3d3a:	f559                	bnez	a0,200a3cc8 <__sfp+0x30>
200a3d3c:	ed9ff0ef          	jal	ra,200a3c14 <__sfp_lock_release>
200a3d40:	47b1                	li	a5,12
200a3d42:	00f92023          	sw	a5,0(s2)
200a3d46:	bfd1                	j	200a3d1a <__sfp+0x82>

200a3d48 <_fwalk_reent>:
200a3d48:	7179                	addi	sp,sp,-48
200a3d4a:	d422                	sw	s0,40(sp)
200a3d4c:	d04a                	sw	s2,32(sp)
200a3d4e:	ce4e                	sw	s3,28(sp)
200a3d50:	cc52                	sw	s4,24(sp)
200a3d52:	c85a                	sw	s6,16(sp)
200a3d54:	c65e                	sw	s7,12(sp)
200a3d56:	d606                	sw	ra,44(sp)
200a3d58:	d226                	sw	s1,36(sp)
200a3d5a:	ca56                	sw	s5,20(sp)
200a3d5c:	892a                	mv	s2,a0
200a3d5e:	8a2e                	mv	s4,a1
200a3d60:	04850413          	addi	s0,a0,72
200a3d64:	4981                	li	s3,0
200a3d66:	4b05                	li	s6,1
200a3d68:	5bfd                	li	s7,-1
200a3d6a:	4404                	lw	s1,8(s0)
200a3d6c:	00442a83          	lw	s5,4(s0)
200a3d70:	1afd                	addi	s5,s5,-1
200a3d72:	020ad063          	bgez	s5,200a3d92 <_fwalk_reent+0x4a>
200a3d76:	4000                	lw	s0,0(s0)
200a3d78:	f86d                	bnez	s0,200a3d6a <_fwalk_reent+0x22>
200a3d7a:	50b2                	lw	ra,44(sp)
200a3d7c:	5422                	lw	s0,40(sp)
200a3d7e:	5492                	lw	s1,36(sp)
200a3d80:	5902                	lw	s2,32(sp)
200a3d82:	4a62                	lw	s4,24(sp)
200a3d84:	4ad2                	lw	s5,20(sp)
200a3d86:	4b42                	lw	s6,16(sp)
200a3d88:	4bb2                	lw	s7,12(sp)
200a3d8a:	854e                	mv	a0,s3
200a3d8c:	49f2                	lw	s3,28(sp)
200a3d8e:	6145                	addi	sp,sp,48
200a3d90:	8082                	ret
200a3d92:	24de                	lhu	a5,12(s1)
200a3d94:	00fb7b63          	bgeu	s6,a5,200a3daa <_fwalk_reent+0x62>
200a3d98:	00e49783          	lh	a5,14(s1)
200a3d9c:	01778763          	beq	a5,s7,200a3daa <_fwalk_reent+0x62>
200a3da0:	85a6                	mv	a1,s1
200a3da2:	854a                	mv	a0,s2
200a3da4:	9a02                	jalr	s4
200a3da6:	00a9e9b3          	or	s3,s3,a0
200a3daa:	06848493          	addi	s1,s1,104
200a3dae:	b7c9                	j	200a3d70 <_fwalk_reent+0x28>

200a3db0 <__retarget_lock_init_recursive>:
200a3db0:	8082                	ret

200a3db2 <__retarget_lock_acquire_recursive>:
200a3db2:	8082                	ret

200a3db4 <__retarget_lock_release_recursive>:
200a3db4:	8082                	ret

200a3db6 <sbrk_aligned>:
200a3db6:	1141                	addi	sp,sp,-16
200a3db8:	c04a                	sw	s2,0(sp)
200a3dba:	93018913          	addi	s2,gp,-1744 # 200c0510 <__malloc_sbrk_start>
200a3dbe:	00092783          	lw	a5,0(s2)
200a3dc2:	c422                	sw	s0,8(sp)
200a3dc4:	c226                	sw	s1,4(sp)
200a3dc6:	c606                	sw	ra,12(sp)
200a3dc8:	84aa                	mv	s1,a0
200a3dca:	842e                	mv	s0,a1
200a3dcc:	e789                	bnez	a5,200a3dd6 <sbrk_aligned+0x20>
200a3dce:	4581                	li	a1,0
200a3dd0:	21a5                	jal	200a4238 <_sbrk_r>
200a3dd2:	00a92023          	sw	a0,0(s2)
200a3dd6:	85a2                	mv	a1,s0
200a3dd8:	8526                	mv	a0,s1
200a3dda:	29b9                	jal	200a4238 <_sbrk_r>
200a3ddc:	597d                	li	s2,-1
200a3dde:	01251a63          	bne	a0,s2,200a3df2 <sbrk_aligned+0x3c>
200a3de2:	547d                	li	s0,-1
200a3de4:	40b2                	lw	ra,12(sp)
200a3de6:	8522                	mv	a0,s0
200a3de8:	4422                	lw	s0,8(sp)
200a3dea:	4492                	lw	s1,4(sp)
200a3dec:	4902                	lw	s2,0(sp)
200a3dee:	0141                	addi	sp,sp,16
200a3df0:	8082                	ret
200a3df2:	00350413          	addi	s0,a0,3
200a3df6:	9871                	andi	s0,s0,-4
200a3df8:	fe8506e3          	beq	a0,s0,200a3de4 <sbrk_aligned+0x2e>
200a3dfc:	40a405b3          	sub	a1,s0,a0
200a3e00:	8526                	mv	a0,s1
200a3e02:	291d                	jal	200a4238 <_sbrk_r>
200a3e04:	ff2510e3          	bne	a0,s2,200a3de4 <sbrk_aligned+0x2e>
200a3e08:	bfe9                	j	200a3de2 <sbrk_aligned+0x2c>

200a3e0a <_malloc_r>:
200a3e0a:	1101                	addi	sp,sp,-32
200a3e0c:	ca26                	sw	s1,20(sp)
200a3e0e:	00358493          	addi	s1,a1,3
200a3e12:	98f1                	andi	s1,s1,-4
200a3e14:	c84a                	sw	s2,16(sp)
200a3e16:	04a1                	addi	s1,s1,8
200a3e18:	47b1                	li	a5,12
200a3e1a:	ce06                	sw	ra,28(sp)
200a3e1c:	cc22                	sw	s0,24(sp)
200a3e1e:	c64e                	sw	s3,12(sp)
200a3e20:	892a                	mv	s2,a0
200a3e22:	0af4f4b3          	maxu	s1,s1,a5
200a3e26:	0004c463          	bltz	s1,200a3e2e <_malloc_r+0x24>
200a3e2a:	00b4fd63          	bgeu	s1,a1,200a3e44 <_malloc_r+0x3a>
200a3e2e:	47b1                	li	a5,12
200a3e30:	00f92023          	sw	a5,0(s2)
200a3e34:	4501                	li	a0,0
200a3e36:	40f2                	lw	ra,28(sp)
200a3e38:	4462                	lw	s0,24(sp)
200a3e3a:	44d2                	lw	s1,20(sp)
200a3e3c:	4942                	lw	s2,16(sp)
200a3e3e:	49b2                	lw	s3,12(sp)
200a3e40:	6105                	addi	sp,sp,32
200a3e42:	8082                	ret
200a3e44:	1b5000ef          	jal	ra,200a47f8 <__malloc_lock>
200a3e48:	93418993          	addi	s3,gp,-1740 # 200c0514 <__malloc_free_list>
200a3e4c:	0009a783          	lw	a5,0(s3)
200a3e50:	843e                	mv	s0,a5
200a3e52:	e821                	bnez	s0,200a3ea2 <_malloc_r+0x98>
200a3e54:	85a6                	mv	a1,s1
200a3e56:	854a                	mv	a0,s2
200a3e58:	f5fff0ef          	jal	ra,200a3db6 <sbrk_aligned>
200a3e5c:	57fd                	li	a5,-1
200a3e5e:	842a                	mv	s0,a0
200a3e60:	0af51963          	bne	a0,a5,200a3f12 <_malloc_r+0x108>
200a3e64:	0009a403          	lw	s0,0(s3)
200a3e68:	87a2                	mv	a5,s0
200a3e6a:	ebd1                	bnez	a5,200a3efe <_malloc_r+0xf4>
200a3e6c:	00042983          	lw	s3,0(s0)
200a3e70:	4581                	li	a1,0
200a3e72:	854a                	mv	a0,s2
200a3e74:	99a2                	add	s3,s3,s0
200a3e76:	26c9                	jal	200a4238 <_sbrk_r>
200a3e78:	08a99663          	bne	s3,a0,200a3f04 <_malloc_r+0xfa>
200a3e7c:	401c                	lw	a5,0(s0)
200a3e7e:	048d                	addi	s1,s1,3
200a3e80:	854a                	mv	a0,s2
200a3e82:	8c9d                	sub	s1,s1,a5
200a3e84:	98f1                	andi	s1,s1,-4
200a3e86:	47b1                	li	a5,12
200a3e88:	04a1                	addi	s1,s1,8
200a3e8a:	0af4f4b3          	maxu	s1,s1,a5
200a3e8e:	85a6                	mv	a1,s1
200a3e90:	f27ff0ef          	jal	ra,200a3db6 <sbrk_aligned>
200a3e94:	57fd                	li	a5,-1
200a3e96:	06f50763          	beq	a0,a5,200a3f04 <_malloc_r+0xfa>
200a3e9a:	401c                	lw	a5,0(s0)
200a3e9c:	97a6                	add	a5,a5,s1
200a3e9e:	c01c                	sw	a5,0(s0)
200a3ea0:	a015                	j	200a3ec4 <_malloc_r+0xba>
200a3ea2:	4014                	lw	a3,0(s0)
200a3ea4:	8e85                	sub	a3,a3,s1
200a3ea6:	0406c963          	bltz	a3,200a3ef8 <_malloc_r+0xee>
200a3eaa:	472d                	li	a4,11
200a3eac:	02d77e63          	bgeu	a4,a3,200a3ee8 <_malloc_r+0xde>
200a3eb0:	c004                	sw	s1,0(s0)
200a3eb2:	00940733          	add	a4,s0,s1
200a3eb6:	02879763          	bne	a5,s0,200a3ee4 <_malloc_r+0xda>
200a3eba:	00e9a023          	sw	a4,0(s3)
200a3ebe:	405c                	lw	a5,4(s0)
200a3ec0:	c314                	sw	a3,0(a4)
200a3ec2:	c35c                	sw	a5,4(a4)
200a3ec4:	854a                	mv	a0,s2
200a3ec6:	13b000ef          	jal	ra,200a4800 <__malloc_unlock>
200a3eca:	00b40513          	addi	a0,s0,11
200a3ece:	00440793          	addi	a5,s0,4
200a3ed2:	9961                	andi	a0,a0,-8
200a3ed4:	40f50733          	sub	a4,a0,a5
200a3ed8:	f4f50fe3          	beq	a0,a5,200a3e36 <_malloc_r+0x2c>
200a3edc:	943a                	add	s0,s0,a4
200a3ede:	8f89                	sub	a5,a5,a0
200a3ee0:	c01c                	sw	a5,0(s0)
200a3ee2:	bf91                	j	200a3e36 <_malloc_r+0x2c>
200a3ee4:	c3d8                	sw	a4,4(a5)
200a3ee6:	bfe1                	j	200a3ebe <_malloc_r+0xb4>
200a3ee8:	4058                	lw	a4,4(s0)
200a3eea:	00879563          	bne	a5,s0,200a3ef4 <_malloc_r+0xea>
200a3eee:	00e9a023          	sw	a4,0(s3)
200a3ef2:	bfc9                	j	200a3ec4 <_malloc_r+0xba>
200a3ef4:	c3d8                	sw	a4,4(a5)
200a3ef6:	b7f9                	j	200a3ec4 <_malloc_r+0xba>
200a3ef8:	87a2                	mv	a5,s0
200a3efa:	4040                	lw	s0,4(s0)
200a3efc:	bf99                	j	200a3e52 <_malloc_r+0x48>
200a3efe:	843e                	mv	s0,a5
200a3f00:	43dc                	lw	a5,4(a5)
200a3f02:	b7a5                	j	200a3e6a <_malloc_r+0x60>
200a3f04:	47b1                	li	a5,12
200a3f06:	00f92023          	sw	a5,0(s2)
200a3f0a:	854a                	mv	a0,s2
200a3f0c:	0f5000ef          	jal	ra,200a4800 <__malloc_unlock>
200a3f10:	b715                	j	200a3e34 <_malloc_r+0x2a>
200a3f12:	c104                	sw	s1,0(a0)
200a3f14:	bf45                	j	200a3ec4 <_malloc_r+0xba>

200a3f16 <__sfputc_r>:
200a3f16:	461c                	lw	a5,8(a2)
200a3f18:	17fd                	addi	a5,a5,-1
200a3f1a:	c61c                	sw	a5,8(a2)
200a3f1c:	0007d963          	bgez	a5,200a3f2e <__sfputc_r+0x18>
200a3f20:	4e18                	lw	a4,24(a2)
200a3f22:	00e7c563          	blt	a5,a4,200a3f2c <__sfputc_r+0x16>
200a3f26:	47a9                	li	a5,10
200a3f28:	00f59363          	bne	a1,a5,200a3f2e <__sfputc_r+0x18>
200a3f2c:	aee9                	j	200a4306 <__swbuf_r>
200a3f2e:	421c                	lw	a5,0(a2)
200a3f30:	852e                	mv	a0,a1
200a3f32:	00178713          	addi	a4,a5,1
200a3f36:	c218                	sw	a4,0(a2)
200a3f38:	a38c                	sb	a1,0(a5)
200a3f3a:	8082                	ret

200a3f3c <__sfputs_r>:
200a3f3c:	1101                	addi	sp,sp,-32
200a3f3e:	cc22                	sw	s0,24(sp)
200a3f40:	ca26                	sw	s1,20(sp)
200a3f42:	c84a                	sw	s2,16(sp)
200a3f44:	c64e                	sw	s3,12(sp)
200a3f46:	c452                	sw	s4,8(sp)
200a3f48:	ce06                	sw	ra,28(sp)
200a3f4a:	892a                	mv	s2,a0
200a3f4c:	89ae                	mv	s3,a1
200a3f4e:	8432                	mv	s0,a2
200a3f50:	00d604b3          	add	s1,a2,a3
200a3f54:	5a7d                	li	s4,-1
200a3f56:	00941463          	bne	s0,s1,200a3f5e <__sfputs_r+0x22>
200a3f5a:	4501                	li	a0,0
200a3f5c:	a809                	j	200a3f6e <__sfputs_r+0x32>
200a3f5e:	200c                	lbu	a1,0(s0)
200a3f60:	864e                	mv	a2,s3
200a3f62:	854a                	mv	a0,s2
200a3f64:	fb3ff0ef          	jal	ra,200a3f16 <__sfputc_r>
200a3f68:	0405                	addi	s0,s0,1
200a3f6a:	ff4516e3          	bne	a0,s4,200a3f56 <__sfputs_r+0x1a>
200a3f6e:	40f2                	lw	ra,28(sp)
200a3f70:	4462                	lw	s0,24(sp)
200a3f72:	44d2                	lw	s1,20(sp)
200a3f74:	4942                	lw	s2,16(sp)
200a3f76:	49b2                	lw	s3,12(sp)
200a3f78:	4a22                	lw	s4,8(sp)
200a3f7a:	6105                	addi	sp,sp,32
200a3f7c:	8082                	ret

200a3f7e <_vfiprintf_r>:
200a3f7e:	7135                	addi	sp,sp,-160
200a3f80:	cd22                	sw	s0,152(sp)
200a3f82:	cb26                	sw	s1,148(sp)
200a3f84:	c94a                	sw	s2,144(sp)
200a3f86:	c74e                	sw	s3,140(sp)
200a3f88:	cf06                	sw	ra,156(sp)
200a3f8a:	c552                	sw	s4,136(sp)
200a3f8c:	c356                	sw	s5,132(sp)
200a3f8e:	c15a                	sw	s6,128(sp)
200a3f90:	dede                	sw	s7,124(sp)
200a3f92:	dce2                	sw	s8,120(sp)
200a3f94:	89aa                	mv	s3,a0
200a3f96:	842e                	mv	s0,a1
200a3f98:	8932                	mv	s2,a2
200a3f9a:	84b6                	mv	s1,a3
200a3f9c:	c509                	beqz	a0,200a3fa6 <_vfiprintf_r+0x28>
200a3f9e:	4d1c                	lw	a5,24(a0)
200a3fa0:	e399                	bnez	a5,200a3fa6 <_vfiprintf_r+0x28>
200a3fa2:	c85ff0ef          	jal	ra,200a3c26 <__sinit>
200a3fa6:	dffa5797          	auipc	a5,0xdffa5
200a3faa:	8ba78793          	addi	a5,a5,-1862 # 48860 <__sf_fake_stdin>
200a3fae:	04f41763          	bne	s0,a5,200a3ffc <_vfiprintf_r+0x7e>
200a3fb2:	0049a403          	lw	s0,4(s3)
200a3fb6:	507c                	lw	a5,100(s0)
200a3fb8:	8b85                	andi	a5,a5,1
200a3fba:	eb81                	bnez	a5,200a3fca <_vfiprintf_r+0x4c>
200a3fbc:	245e                	lhu	a5,12(s0)
200a3fbe:	2007f793          	andi	a5,a5,512
200a3fc2:	e781                	bnez	a5,200a3fca <_vfiprintf_r+0x4c>
200a3fc4:	4c28                	lw	a0,88(s0)
200a3fc6:	dedff0ef          	jal	ra,200a3db2 <__retarget_lock_acquire_recursive>
200a3fca:	245e                	lhu	a5,12(s0)
200a3fcc:	8ba1                	andi	a5,a5,8
200a3fce:	c399                	beqz	a5,200a3fd4 <_vfiprintf_r+0x56>
200a3fd0:	481c                	lw	a5,16(s0)
200a3fd2:	efb9                	bnez	a5,200a4030 <_vfiprintf_r+0xb2>
200a3fd4:	85a2                	mv	a1,s0
200a3fd6:	854e                	mv	a0,s3
200a3fd8:	2921                	jal	200a43f0 <__swsetup_r>
200a3fda:	c939                	beqz	a0,200a4030 <_vfiprintf_r+0xb2>
200a3fdc:	507c                	lw	a5,100(s0)
200a3fde:	8b85                	andi	a5,a5,1
200a3fe0:	c3a1                	beqz	a5,200a4020 <_vfiprintf_r+0xa2>
200a3fe2:	557d                	li	a0,-1
200a3fe4:	40fa                	lw	ra,156(sp)
200a3fe6:	446a                	lw	s0,152(sp)
200a3fe8:	44da                	lw	s1,148(sp)
200a3fea:	494a                	lw	s2,144(sp)
200a3fec:	49ba                	lw	s3,140(sp)
200a3fee:	4a2a                	lw	s4,136(sp)
200a3ff0:	4a9a                	lw	s5,132(sp)
200a3ff2:	4b0a                	lw	s6,128(sp)
200a3ff4:	5bf6                	lw	s7,124(sp)
200a3ff6:	5c66                	lw	s8,120(sp)
200a3ff8:	610d                	addi	sp,sp,160
200a3ffa:	8082                	ret
200a3ffc:	dffa5797          	auipc	a5,0xdffa5
200a4000:	84478793          	addi	a5,a5,-1980 # 48840 <__sf_fake_stdout>
200a4004:	00f41563          	bne	s0,a5,200a400e <_vfiprintf_r+0x90>
200a4008:	0089a403          	lw	s0,8(s3)
200a400c:	b76d                	j	200a3fb6 <_vfiprintf_r+0x38>
200a400e:	dffa5797          	auipc	a5,0xdffa5
200a4012:	81278793          	addi	a5,a5,-2030 # 48820 <__sf_fake_stderr>
200a4016:	faf410e3          	bne	s0,a5,200a3fb6 <_vfiprintf_r+0x38>
200a401a:	00c9a403          	lw	s0,12(s3)
200a401e:	bf61                	j	200a3fb6 <_vfiprintf_r+0x38>
200a4020:	245e                	lhu	a5,12(s0)
200a4022:	2007f793          	andi	a5,a5,512
200a4026:	ffd5                	bnez	a5,200a3fe2 <_vfiprintf_r+0x64>
200a4028:	4c28                	lw	a0,88(s0)
200a402a:	d8bff0ef          	jal	ra,200a3db4 <__retarget_lock_release_recursive>
200a402e:	bf55                	j	200a3fe2 <_vfiprintf_r+0x64>
200a4030:	02000793          	li	a5,32
200a4034:	02f104a3          	sb	a5,41(sp)
200a4038:	03000793          	li	a5,48
200a403c:	d202                	sw	zero,36(sp)
200a403e:	02f10523          	sb	a5,42(sp)
200a4042:	c626                	sw	s1,12(sp)
200a4044:	02500b93          	li	s7,37
200a4048:	dffa5a97          	auipc	s5,0xdffa5
200a404c:	838a8a93          	addi	s5,s5,-1992 # 48880 <__sf_fake_stdin+0x20>
200a4050:	4b29                	li	s6,10
200a4052:	84ca                	mv	s1,s2
200a4054:	209c                	lbu	a5,0(s1)
200a4056:	c399                	beqz	a5,200a405c <_vfiprintf_r+0xde>
200a4058:	09779b63          	bne	a5,s7,200a40ee <_vfiprintf_r+0x170>
200a405c:	41248c33          	sub	s8,s1,s2
200a4060:	01248e63          	beq	s1,s2,200a407c <_vfiprintf_r+0xfe>
200a4064:	86e2                	mv	a3,s8
200a4066:	864a                	mv	a2,s2
200a4068:	85a2                	mv	a1,s0
200a406a:	854e                	mv	a0,s3
200a406c:	ed1ff0ef          	jal	ra,200a3f3c <__sfputs_r>
200a4070:	57fd                	li	a5,-1
200a4072:	18f50763          	beq	a0,a5,200a4200 <_vfiprintf_r+0x282>
200a4076:	5792                	lw	a5,36(sp)
200a4078:	97e2                	add	a5,a5,s8
200a407a:	d23e                	sw	a5,36(sp)
200a407c:	209c                	lbu	a5,0(s1)
200a407e:	18078163          	beqz	a5,200a4200 <_vfiprintf_r+0x282>
200a4082:	57fd                	li	a5,-1
200a4084:	00148913          	addi	s2,s1,1
200a4088:	c802                	sw	zero,16(sp)
200a408a:	ce02                	sw	zero,28(sp)
200a408c:	ca3e                	sw	a5,20(sp)
200a408e:	cc02                	sw	zero,24(sp)
200a4090:	040109a3          	sb	zero,83(sp)
200a4094:	d482                	sw	zero,104(sp)
200a4096:	00094583          	lbu	a1,0(s2)
200a409a:	4615                	li	a2,5
200a409c:	8556                	mv	a0,s5
200a409e:	742000ef          	jal	ra,200a47e0 <memchr>
200a40a2:	47c2                	lw	a5,16(sp)
200a40a4:	00190493          	addi	s1,s2,1
200a40a8:	e529                	bnez	a0,200a40f2 <_vfiprintf_r+0x174>
200a40aa:	0107f713          	andi	a4,a5,16
200a40ae:	c709                	beqz	a4,200a40b8 <_vfiprintf_r+0x13a>
200a40b0:	02000713          	li	a4,32
200a40b4:	04e109a3          	sb	a4,83(sp)
200a40b8:	0087f713          	andi	a4,a5,8
200a40bc:	c709                	beqz	a4,200a40c6 <_vfiprintf_r+0x148>
200a40be:	02b00713          	li	a4,43
200a40c2:	04e109a3          	sb	a4,83(sp)
200a40c6:	00094683          	lbu	a3,0(s2)
200a40ca:	02a00713          	li	a4,42
200a40ce:	02e68963          	beq	a3,a4,200a4100 <_vfiprintf_r+0x182>
200a40d2:	47f2                	lw	a5,28(sp)
200a40d4:	84ca                	mv	s1,s2
200a40d6:	4681                	li	a3,0
200a40d8:	4625                	li	a2,9
200a40da:	2098                	lbu	a4,0(s1)
200a40dc:	00148593          	addi	a1,s1,1
200a40e0:	fd070713          	addi	a4,a4,-48
200a40e4:	06e67263          	bgeu	a2,a4,200a4148 <_vfiprintf_r+0x1ca>
200a40e8:	c685                	beqz	a3,200a4110 <_vfiprintf_r+0x192>
200a40ea:	ce3e                	sw	a5,28(sp)
200a40ec:	a015                	j	200a4110 <_vfiprintf_r+0x192>
200a40ee:	0485                	addi	s1,s1,1
200a40f0:	b795                	j	200a4054 <_vfiprintf_r+0xd6>
200a40f2:	41550533          	sub	a0,a0,s5
200a40f6:	28a797b3          	bset	a5,a5,a0
200a40fa:	8926                	mv	s2,s1
200a40fc:	c83e                	sw	a5,16(sp)
200a40fe:	bf61                	j	200a4096 <_vfiprintf_r+0x118>
200a4100:	4732                	lw	a4,12(sp)
200a4102:	00470693          	addi	a3,a4,4
200a4106:	4318                	lw	a4,0(a4)
200a4108:	c636                	sw	a3,12(sp)
200a410a:	02074863          	bltz	a4,200a413a <_vfiprintf_r+0x1bc>
200a410e:	ce3a                	sw	a4,28(sp)
200a4110:	2098                	lbu	a4,0(s1)
200a4112:	02e00793          	li	a5,46
200a4116:	04f71c63          	bne	a4,a5,200a416e <_vfiprintf_r+0x1f0>
200a411a:	3098                	lbu	a4,1(s1)
200a411c:	02a00793          	li	a5,42
200a4120:	02f71a63          	bne	a4,a5,200a4154 <_vfiprintf_r+0x1d6>
200a4124:	47b2                	lw	a5,12(sp)
200a4126:	0489                	addi	s1,s1,2
200a4128:	00478713          	addi	a4,a5,4
200a412c:	439c                	lw	a5,0(a5)
200a412e:	c63a                	sw	a4,12(sp)
200a4130:	577d                	li	a4,-1
200a4132:	0ae7e7b3          	max	a5,a5,a4
200a4136:	ca3e                	sw	a5,20(sp)
200a4138:	a81d                	j	200a416e <_vfiprintf_r+0x1f0>
200a413a:	40e00733          	neg	a4,a4
200a413e:	0027e793          	ori	a5,a5,2
200a4142:	ce3a                	sw	a4,28(sp)
200a4144:	c83e                	sw	a5,16(sp)
200a4146:	b7e9                	j	200a4110 <_vfiprintf_r+0x192>
200a4148:	036787b3          	mul	a5,a5,s6
200a414c:	84ae                	mv	s1,a1
200a414e:	4685                	li	a3,1
200a4150:	97ba                	add	a5,a5,a4
200a4152:	b761                	j	200a40da <_vfiprintf_r+0x15c>
200a4154:	0485                	addi	s1,s1,1
200a4156:	ca02                	sw	zero,20(sp)
200a4158:	4681                	li	a3,0
200a415a:	4781                	li	a5,0
200a415c:	4625                	li	a2,9
200a415e:	2098                	lbu	a4,0(s1)
200a4160:	00148593          	addi	a1,s1,1
200a4164:	fd070713          	addi	a4,a4,-48
200a4168:	06e67263          	bgeu	a2,a4,200a41cc <_vfiprintf_r+0x24e>
200a416c:	f6e9                	bnez	a3,200a4136 <_vfiprintf_r+0x1b8>
200a416e:	208c                	lbu	a1,0(s1)
200a4170:	460d                	li	a2,3
200a4172:	dffa4517          	auipc	a0,0xdffa4
200a4176:	71650513          	addi	a0,a0,1814 # 48888 <__sf_fake_stdin+0x28>
200a417a:	259d                	jal	200a47e0 <memchr>
200a417c:	cd11                	beqz	a0,200a4198 <_vfiprintf_r+0x21a>
200a417e:	dffa4797          	auipc	a5,0xdffa4
200a4182:	70a78793          	addi	a5,a5,1802 # 48888 <__sf_fake_stdin+0x28>
200a4186:	8d1d                	sub	a0,a0,a5
200a4188:	47c2                	lw	a5,16(sp)
200a418a:	04000713          	li	a4,64
200a418e:	00a71733          	sll	a4,a4,a0
200a4192:	8fd9                	or	a5,a5,a4
200a4194:	0485                	addi	s1,s1,1
200a4196:	c83e                	sw	a5,16(sp)
200a4198:	208c                	lbu	a1,0(s1)
200a419a:	4619                	li	a2,6
200a419c:	dffa4517          	auipc	a0,0xdffa4
200a41a0:	6f050513          	addi	a0,a0,1776 # 4888c <__sf_fake_stdin+0x2c>
200a41a4:	00148913          	addi	s2,s1,1
200a41a8:	02b10423          	sb	a1,40(sp)
200a41ac:	2d15                	jal	200a47e0 <memchr>
200a41ae:	c935                	beqz	a0,200a4222 <_vfiprintf_r+0x2a4>
200a41b0:	00000793          	li	a5,0
200a41b4:	e795                	bnez	a5,200a41e0 <_vfiprintf_r+0x262>
200a41b6:	4742                	lw	a4,16(sp)
200a41b8:	47b2                	lw	a5,12(sp)
200a41ba:	10077713          	andi	a4,a4,256
200a41be:	cf09                	beqz	a4,200a41d8 <_vfiprintf_r+0x25a>
200a41c0:	0791                	addi	a5,a5,4
200a41c2:	c63e                	sw	a5,12(sp)
200a41c4:	5792                	lw	a5,36(sp)
200a41c6:	97d2                	add	a5,a5,s4
200a41c8:	d23e                	sw	a5,36(sp)
200a41ca:	b561                	j	200a4052 <_vfiprintf_r+0xd4>
200a41cc:	036787b3          	mul	a5,a5,s6
200a41d0:	84ae                	mv	s1,a1
200a41d2:	4685                	li	a3,1
200a41d4:	97ba                	add	a5,a5,a4
200a41d6:	b761                	j	200a415e <_vfiprintf_r+0x1e0>
200a41d8:	079d                	addi	a5,a5,7
200a41da:	9be1                	andi	a5,a5,-8
200a41dc:	07a1                	addi	a5,a5,8
200a41de:	b7d5                	j	200a41c2 <_vfiprintf_r+0x244>
200a41e0:	0078                	addi	a4,sp,12
200a41e2:	00000697          	auipc	a3,0x0
200a41e6:	d5a68693          	addi	a3,a3,-678 # 200a3f3c <__sfputs_r>
200a41ea:	8622                	mv	a2,s0
200a41ec:	080c                	addi	a1,sp,16
200a41ee:	854e                	mv	a0,s3
200a41f0:	00000097          	auipc	ra,0x0
200a41f4:	000000e7          	jalr	zero # 0 <__stack_size-0x800>
200a41f8:	57fd                	li	a5,-1
200a41fa:	8a2a                	mv	s4,a0
200a41fc:	fcf514e3          	bne	a0,a5,200a41c4 <_vfiprintf_r+0x246>
200a4200:	507c                	lw	a5,100(s0)
200a4202:	8b85                	andi	a5,a5,1
200a4204:	eb81                	bnez	a5,200a4214 <_vfiprintf_r+0x296>
200a4206:	245e                	lhu	a5,12(s0)
200a4208:	2007f793          	andi	a5,a5,512
200a420c:	e781                	bnez	a5,200a4214 <_vfiprintf_r+0x296>
200a420e:	4c28                	lw	a0,88(s0)
200a4210:	ba5ff0ef          	jal	ra,200a3db4 <__retarget_lock_release_recursive>
200a4214:	245e                	lhu	a5,12(s0)
200a4216:	0407f793          	andi	a5,a5,64
200a421a:	dc0794e3          	bnez	a5,200a3fe2 <_vfiprintf_r+0x64>
200a421e:	5512                	lw	a0,36(sp)
200a4220:	b3d1                	j	200a3fe4 <_vfiprintf_r+0x66>
200a4222:	0078                	addi	a4,sp,12
200a4224:	00000697          	auipc	a3,0x0
200a4228:	d1868693          	addi	a3,a3,-744 # 200a3f3c <__sfputs_r>
200a422c:	8622                	mv	a2,s0
200a422e:	080c                	addi	a1,sp,16
200a4230:	854e                	mv	a0,s3
200a4232:	782000ef          	jal	ra,200a49b4 <_printf_i>
200a4236:	b7c9                	j	200a41f8 <_vfiprintf_r+0x27a>

200a4238 <_sbrk_r>:
200a4238:	1141                	addi	sp,sp,-16
200a423a:	c422                	sw	s0,8(sp)
200a423c:	842a                	mv	s0,a0
200a423e:	852e                	mv	a0,a1
200a4240:	9201ac23          	sw	zero,-1736(gp) # 200c0518 <errno>
200a4244:	c606                	sw	ra,12(sp)
200a4246:	fddfc0ef          	jal	ra,200a1222 <_sbrk>
200a424a:	57fd                	li	a5,-1
200a424c:	00f51663          	bne	a0,a5,200a4258 <_sbrk_r+0x20>
200a4250:	9381a783          	lw	a5,-1736(gp) # 200c0518 <errno>
200a4254:	c391                	beqz	a5,200a4258 <_sbrk_r+0x20>
200a4256:	c01c                	sw	a5,0(s0)
200a4258:	40b2                	lw	ra,12(sp)
200a425a:	4422                	lw	s0,8(sp)
200a425c:	0141                	addi	sp,sp,16
200a425e:	8082                	ret

200a4260 <__sread>:
200a4260:	1141                	addi	sp,sp,-16
200a4262:	c422                	sw	s0,8(sp)
200a4264:	842e                	mv	s0,a1
200a4266:	00e59583          	lh	a1,14(a1)
200a426a:	c606                	sw	ra,12(sp)
200a426c:	1c5000ef          	jal	ra,200a4c30 <_read_r>
200a4270:	00054963          	bltz	a0,200a4282 <__sread+0x22>
200a4274:	487c                	lw	a5,84(s0)
200a4276:	97aa                	add	a5,a5,a0
200a4278:	c87c                	sw	a5,84(s0)
200a427a:	40b2                	lw	ra,12(sp)
200a427c:	4422                	lw	s0,8(sp)
200a427e:	0141                	addi	sp,sp,16
200a4280:	8082                	ret
200a4282:	245e                	lhu	a5,12(s0)
200a4284:	48c79793          	bclri	a5,a5,0xc
200a4288:	a45e                	sh	a5,12(s0)
200a428a:	bfc5                	j	200a427a <__sread+0x1a>

200a428c <__swrite>:
200a428c:	25de                	lhu	a5,12(a1)
200a428e:	1101                	addi	sp,sp,-32
200a4290:	cc22                	sw	s0,24(sp)
200a4292:	ca26                	sw	s1,20(sp)
200a4294:	c84a                	sw	s2,16(sp)
200a4296:	c64e                	sw	s3,12(sp)
200a4298:	ce06                	sw	ra,28(sp)
200a429a:	1007f793          	andi	a5,a5,256
200a429e:	84aa                	mv	s1,a0
200a42a0:	842e                	mv	s0,a1
200a42a2:	8932                	mv	s2,a2
200a42a4:	89b6                	mv	s3,a3
200a42a6:	c791                	beqz	a5,200a42b2 <__swrite+0x26>
200a42a8:	00e59583          	lh	a1,14(a1)
200a42ac:	4689                	li	a3,2
200a42ae:	4601                	li	a2,0
200a42b0:	2921                	jal	200a46c8 <_lseek_r>
200a42b2:	245e                	lhu	a5,12(s0)
200a42b4:	00e41583          	lh	a1,14(s0)
200a42b8:	40f2                	lw	ra,28(sp)
200a42ba:	48c79793          	bclri	a5,a5,0xc
200a42be:	a45e                	sh	a5,12(s0)
200a42c0:	4462                	lw	s0,24(sp)
200a42c2:	86ce                	mv	a3,s3
200a42c4:	864a                	mv	a2,s2
200a42c6:	49b2                	lw	s3,12(sp)
200a42c8:	4942                	lw	s2,16(sp)
200a42ca:	8526                	mv	a0,s1
200a42cc:	44d2                	lw	s1,20(sp)
200a42ce:	6105                	addi	sp,sp,32
200a42d0:	a8d5                	j	200a43c4 <_write_r>

200a42d2 <__sseek>:
200a42d2:	1141                	addi	sp,sp,-16
200a42d4:	c422                	sw	s0,8(sp)
200a42d6:	842e                	mv	s0,a1
200a42d8:	00e59583          	lh	a1,14(a1)
200a42dc:	c606                	sw	ra,12(sp)
200a42de:	26ed                	jal	200a46c8 <_lseek_r>
200a42e0:	577d                	li	a4,-1
200a42e2:	245e                	lhu	a5,12(s0)
200a42e4:	00e51963          	bne	a0,a4,200a42f6 <__sseek+0x24>
200a42e8:	48c79793          	bclri	a5,a5,0xc
200a42ec:	a45e                	sh	a5,12(s0)
200a42ee:	40b2                	lw	ra,12(sp)
200a42f0:	4422                	lw	s0,8(sp)
200a42f2:	0141                	addi	sp,sp,16
200a42f4:	8082                	ret
200a42f6:	28c79793          	bseti	a5,a5,0xc
200a42fa:	c868                	sw	a0,84(s0)
200a42fc:	a45e                	sh	a5,12(s0)
200a42fe:	bfc5                	j	200a42ee <__sseek+0x1c>

200a4300 <__sclose>:
200a4300:	00e59583          	lh	a1,14(a1)
200a4304:	aaf1                	j	200a44e0 <_close_r>

200a4306 <__swbuf_r>:
200a4306:	1101                	addi	sp,sp,-32
200a4308:	cc22                	sw	s0,24(sp)
200a430a:	ca26                	sw	s1,20(sp)
200a430c:	c84a                	sw	s2,16(sp)
200a430e:	ce06                	sw	ra,28(sp)
200a4310:	c64e                	sw	s3,12(sp)
200a4312:	84aa                	mv	s1,a0
200a4314:	892e                	mv	s2,a1
200a4316:	8432                	mv	s0,a2
200a4318:	c509                	beqz	a0,200a4322 <__swbuf_r+0x1c>
200a431a:	4d1c                	lw	a5,24(a0)
200a431c:	e399                	bnez	a5,200a4322 <__swbuf_r+0x1c>
200a431e:	909ff0ef          	jal	ra,200a3c26 <__sinit>
200a4322:	dffa4797          	auipc	a5,0xdffa4
200a4326:	53e78793          	addi	a5,a5,1342 # 48860 <__sf_fake_stdin>
200a432a:	02f41763          	bne	s0,a5,200a4358 <__swbuf_r+0x52>
200a432e:	40c0                	lw	s0,4(s1)
200a4330:	4c1c                	lw	a5,24(s0)
200a4332:	c41c                	sw	a5,8(s0)
200a4334:	245e                	lhu	a5,12(s0)
200a4336:	8ba1                	andi	a5,a5,8
200a4338:	c399                	beqz	a5,200a433e <__swbuf_r+0x38>
200a433a:	481c                	lw	a5,16(s0)
200a433c:	ef95                	bnez	a5,200a4378 <__swbuf_r+0x72>
200a433e:	85a2                	mv	a1,s0
200a4340:	8526                	mv	a0,s1
200a4342:	207d                	jal	200a43f0 <__swsetup_r>
200a4344:	c915                	beqz	a0,200a4378 <__swbuf_r+0x72>
200a4346:	597d                	li	s2,-1
200a4348:	40f2                	lw	ra,28(sp)
200a434a:	4462                	lw	s0,24(sp)
200a434c:	44d2                	lw	s1,20(sp)
200a434e:	49b2                	lw	s3,12(sp)
200a4350:	854a                	mv	a0,s2
200a4352:	4942                	lw	s2,16(sp)
200a4354:	6105                	addi	sp,sp,32
200a4356:	8082                	ret
200a4358:	dffa4797          	auipc	a5,0xdffa4
200a435c:	4e878793          	addi	a5,a5,1256 # 48840 <__sf_fake_stdout>
200a4360:	00f41463          	bne	s0,a5,200a4368 <__swbuf_r+0x62>
200a4364:	4480                	lw	s0,8(s1)
200a4366:	b7e9                	j	200a4330 <__swbuf_r+0x2a>
200a4368:	dffa4797          	auipc	a5,0xdffa4
200a436c:	4b878793          	addi	a5,a5,1208 # 48820 <__sf_fake_stderr>
200a4370:	fcf410e3          	bne	s0,a5,200a4330 <__swbuf_r+0x2a>
200a4374:	44c0                	lw	s0,12(s1)
200a4376:	bf6d                	j	200a4330 <__swbuf_r+0x2a>
200a4378:	481c                	lw	a5,16(s0)
200a437a:	4008                	lw	a0,0(s0)
200a437c:	0ff97993          	zext.b	s3,s2
200a4380:	0ff97913          	zext.b	s2,s2
200a4384:	8d1d                	sub	a0,a0,a5
200a4386:	485c                	lw	a5,20(s0)
200a4388:	00f54663          	blt	a0,a5,200a4394 <__swbuf_r+0x8e>
200a438c:	85a2                	mv	a1,s0
200a438e:	8526                	mv	a0,s1
200a4390:	246d                	jal	200a463a <_fflush_r>
200a4392:	f955                	bnez	a0,200a4346 <__swbuf_r+0x40>
200a4394:	441c                	lw	a5,8(s0)
200a4396:	0505                	addi	a0,a0,1
200a4398:	17fd                	addi	a5,a5,-1
200a439a:	c41c                	sw	a5,8(s0)
200a439c:	401c                	lw	a5,0(s0)
200a439e:	00178713          	addi	a4,a5,1
200a43a2:	c018                	sw	a4,0(s0)
200a43a4:	01378023          	sb	s3,0(a5)
200a43a8:	485c                	lw	a5,20(s0)
200a43aa:	00a78863          	beq	a5,a0,200a43ba <__swbuf_r+0xb4>
200a43ae:	245e                	lhu	a5,12(s0)
200a43b0:	8b85                	andi	a5,a5,1
200a43b2:	dbd9                	beqz	a5,200a4348 <__swbuf_r+0x42>
200a43b4:	47a9                	li	a5,10
200a43b6:	f8f919e3          	bne	s2,a5,200a4348 <__swbuf_r+0x42>
200a43ba:	85a2                	mv	a1,s0
200a43bc:	8526                	mv	a0,s1
200a43be:	2cb5                	jal	200a463a <_fflush_r>
200a43c0:	d541                	beqz	a0,200a4348 <__swbuf_r+0x42>
200a43c2:	b751                	j	200a4346 <__swbuf_r+0x40>

200a43c4 <_write_r>:
200a43c4:	1141                	addi	sp,sp,-16
200a43c6:	c422                	sw	s0,8(sp)
200a43c8:	842a                	mv	s0,a0
200a43ca:	852e                	mv	a0,a1
200a43cc:	85b2                	mv	a1,a2
200a43ce:	8636                	mv	a2,a3
200a43d0:	9201ac23          	sw	zero,-1736(gp) # 200c0518 <errno>
200a43d4:	c606                	sw	ra,12(sp)
200a43d6:	e17fc0ef          	jal	ra,200a11ec <_write>
200a43da:	57fd                	li	a5,-1
200a43dc:	00f51663          	bne	a0,a5,200a43e8 <_write_r+0x24>
200a43e0:	9381a783          	lw	a5,-1736(gp) # 200c0518 <errno>
200a43e4:	c391                	beqz	a5,200a43e8 <_write_r+0x24>
200a43e6:	c01c                	sw	a5,0(s0)
200a43e8:	40b2                	lw	ra,12(sp)
200a43ea:	4422                	lw	s0,8(sp)
200a43ec:	0141                	addi	sp,sp,16
200a43ee:	8082                	ret

200a43f0 <__swsetup_r>:
200a43f0:	1141                	addi	sp,sp,-16
200a43f2:	c422                	sw	s0,8(sp)
200a43f4:	c226                	sw	s1,4(sp)
200a43f6:	c04a                	sw	s2,0(sp)
200a43f8:	c606                	sw	ra,12(sp)
200a43fa:	8581a483          	lw	s1,-1960(gp) # 200c0438 <_impure_ptr>
200a43fe:	892a                	mv	s2,a0
200a4400:	842e                	mv	s0,a1
200a4402:	c491                	beqz	s1,200a440e <__swsetup_r+0x1e>
200a4404:	4c9c                	lw	a5,24(s1)
200a4406:	e781                	bnez	a5,200a440e <__swsetup_r+0x1e>
200a4408:	8526                	mv	a0,s1
200a440a:	81dff0ef          	jal	ra,200a3c26 <__sinit>
200a440e:	dffa4797          	auipc	a5,0xdffa4
200a4412:	45278793          	addi	a5,a5,1106 # 48860 <__sf_fake_stdin>
200a4416:	02f41363          	bne	s0,a5,200a443c <__swsetup_r+0x4c>
200a441a:	40c0                	lw	s0,4(s1)
200a441c:	00c41783          	lh	a5,12(s0)
200a4420:	0087f713          	andi	a4,a5,8
200a4424:	e725                	bnez	a4,200a448c <__swsetup_r+0x9c>
200a4426:	0107f713          	andi	a4,a5,16
200a442a:	eb0d                	bnez	a4,200a445c <__swsetup_r+0x6c>
200a442c:	4725                	li	a4,9
200a442e:	00e92023          	sw	a4,0(s2)
200a4432:	0407e793          	ori	a5,a5,64
200a4436:	a45e                	sh	a5,12(s0)
200a4438:	557d                	li	a0,-1
200a443a:	a071                	j	200a44c6 <__swsetup_r+0xd6>
200a443c:	dffa4797          	auipc	a5,0xdffa4
200a4440:	40478793          	addi	a5,a5,1028 # 48840 <__sf_fake_stdout>
200a4444:	00f41463          	bne	s0,a5,200a444c <__swsetup_r+0x5c>
200a4448:	4480                	lw	s0,8(s1)
200a444a:	bfc9                	j	200a441c <__swsetup_r+0x2c>
200a444c:	dffa4797          	auipc	a5,0xdffa4
200a4450:	3d478793          	addi	a5,a5,980 # 48820 <__sf_fake_stderr>
200a4454:	fcf414e3          	bne	s0,a5,200a441c <__swsetup_r+0x2c>
200a4458:	44c0                	lw	s0,12(s1)
200a445a:	b7c9                	j	200a441c <__swsetup_r+0x2c>
200a445c:	8b91                	andi	a5,a5,4
200a445e:	c39d                	beqz	a5,200a4484 <__swsetup_r+0x94>
200a4460:	584c                	lw	a1,52(s0)
200a4462:	c989                	beqz	a1,200a4474 <__swsetup_r+0x84>
200a4464:	04440793          	addi	a5,s0,68
200a4468:	00f58463          	beq	a1,a5,200a4470 <__swsetup_r+0x80>
200a446c:	854a                	mv	a0,s2
200a446e:	2e69                	jal	200a4808 <_free_r>
200a4470:	02042a23          	sw	zero,52(s0)
200a4474:	245e                	lhu	a5,12(s0)
200a4476:	00042223          	sw	zero,4(s0)
200a447a:	fdb7f793          	andi	a5,a5,-37
200a447e:	a45e                	sh	a5,12(s0)
200a4480:	481c                	lw	a5,16(s0)
200a4482:	c01c                	sw	a5,0(s0)
200a4484:	245e                	lhu	a5,12(s0)
200a4486:	0087e793          	ori	a5,a5,8
200a448a:	a45e                	sh	a5,12(s0)
200a448c:	481c                	lw	a5,16(s0)
200a448e:	eb99                	bnez	a5,200a44a4 <__swsetup_r+0xb4>
200a4490:	245e                	lhu	a5,12(s0)
200a4492:	20000713          	li	a4,512
200a4496:	2807f793          	andi	a5,a5,640
200a449a:	00e78563          	beq	a5,a4,200a44a4 <__swsetup_r+0xb4>
200a449e:	85a2                	mv	a1,s0
200a44a0:	854a                	mv	a0,s2
200a44a2:	2465                	jal	200a474a <__smakebuf_r>
200a44a4:	00c41783          	lh	a5,12(s0)
200a44a8:	0017f713          	andi	a4,a5,1
200a44ac:	c31d                	beqz	a4,200a44d2 <__swsetup_r+0xe2>
200a44ae:	4858                	lw	a4,20(s0)
200a44b0:	00042423          	sw	zero,8(s0)
200a44b4:	40e00733          	neg	a4,a4
200a44b8:	cc18                	sw	a4,24(s0)
200a44ba:	4818                	lw	a4,16(s0)
200a44bc:	4501                	li	a0,0
200a44be:	e701                	bnez	a4,200a44c6 <__swsetup_r+0xd6>
200a44c0:	0807f713          	andi	a4,a5,128
200a44c4:	f73d                	bnez	a4,200a4432 <__swsetup_r+0x42>
200a44c6:	40b2                	lw	ra,12(sp)
200a44c8:	4422                	lw	s0,8(sp)
200a44ca:	4492                	lw	s1,4(sp)
200a44cc:	4902                	lw	s2,0(sp)
200a44ce:	0141                	addi	sp,sp,16
200a44d0:	8082                	ret
200a44d2:	0027f713          	andi	a4,a5,2
200a44d6:	4681                	li	a3,0
200a44d8:	e311                	bnez	a4,200a44dc <__swsetup_r+0xec>
200a44da:	4854                	lw	a3,20(s0)
200a44dc:	c414                	sw	a3,8(s0)
200a44de:	bff1                	j	200a44ba <__swsetup_r+0xca>

200a44e0 <_close_r>:
200a44e0:	1141                	addi	sp,sp,-16
200a44e2:	c422                	sw	s0,8(sp)
200a44e4:	842a                	mv	s0,a0
200a44e6:	852e                	mv	a0,a1
200a44e8:	9201ac23          	sw	zero,-1736(gp) # 200c0518 <errno>
200a44ec:	c606                	sw	ra,12(sp)
200a44ee:	7ba000ef          	jal	ra,200a4ca8 <_close>
200a44f2:	57fd                	li	a5,-1
200a44f4:	00f51663          	bne	a0,a5,200a4500 <_close_r+0x20>
200a44f8:	9381a783          	lw	a5,-1736(gp) # 200c0518 <errno>
200a44fc:	c391                	beqz	a5,200a4500 <_close_r+0x20>
200a44fe:	c01c                	sw	a5,0(s0)
200a4500:	40b2                	lw	ra,12(sp)
200a4502:	4422                	lw	s0,8(sp)
200a4504:	0141                	addi	sp,sp,16
200a4506:	8082                	ret

200a4508 <__sflush_r>:
200a4508:	00c59783          	lh	a5,12(a1)
200a450c:	1101                	addi	sp,sp,-32
200a450e:	cc22                	sw	s0,24(sp)
200a4510:	ca26                	sw	s1,20(sp)
200a4512:	ce06                	sw	ra,28(sp)
200a4514:	c84a                	sw	s2,16(sp)
200a4516:	c64e                	sw	s3,12(sp)
200a4518:	0087f713          	andi	a4,a5,8
200a451c:	84aa                	mv	s1,a0
200a451e:	842e                	mv	s0,a1
200a4520:	e379                	bnez	a4,200a45e6 <__sflush_r+0xde>
200a4522:	41d8                	lw	a4,4(a1)
200a4524:	00e04563          	bgtz	a4,200a452e <__sflush_r+0x26>
200a4528:	41b8                	lw	a4,64(a1)
200a452a:	08e05663          	blez	a4,200a45b6 <__sflush_r+0xae>
200a452e:	5458                	lw	a4,44(s0)
200a4530:	c359                	beqz	a4,200a45b6 <__sflush_r+0xae>
200a4532:	0004a903          	lw	s2,0(s1)
200a4536:	0004a023          	sw	zero,0(s1)
200a453a:	500c                	lw	a1,32(s0)
200a453c:	48c7d793          	bexti	a5,a5,0xc
200a4540:	cba9                	beqz	a5,200a4592 <__sflush_r+0x8a>
200a4542:	4870                	lw	a2,84(s0)
200a4544:	245e                	lhu	a5,12(s0)
200a4546:	8b91                	andi	a5,a5,4
200a4548:	c799                	beqz	a5,200a4556 <__sflush_r+0x4e>
200a454a:	405c                	lw	a5,4(s0)
200a454c:	8e1d                	sub	a2,a2,a5
200a454e:	585c                	lw	a5,52(s0)
200a4550:	c399                	beqz	a5,200a4556 <__sflush_r+0x4e>
200a4552:	403c                	lw	a5,64(s0)
200a4554:	8e1d                	sub	a2,a2,a5
200a4556:	545c                	lw	a5,44(s0)
200a4558:	500c                	lw	a1,32(s0)
200a455a:	4681                	li	a3,0
200a455c:	8526                	mv	a0,s1
200a455e:	9782                	jalr	a5
200a4560:	57fd                	li	a5,-1
200a4562:	04f50c63          	beq	a0,a5,200a45ba <__sflush_r+0xb2>
200a4566:	481c                	lw	a5,16(s0)
200a4568:	6705                	lui	a4,0x1
200a456a:	00042223          	sw	zero,4(s0)
200a456e:	c01c                	sw	a5,0(s0)
200a4570:	245e                	lhu	a5,12(s0)
200a4572:	8ff9                	and	a5,a5,a4
200a4574:	c391                	beqz	a5,200a4578 <__sflush_r+0x70>
200a4576:	c868                	sw	a0,84(s0)
200a4578:	584c                	lw	a1,52(s0)
200a457a:	0124a023          	sw	s2,0(s1)
200a457e:	cd85                	beqz	a1,200a45b6 <__sflush_r+0xae>
200a4580:	04440793          	addi	a5,s0,68
200a4584:	00f58463          	beq	a1,a5,200a458c <__sflush_r+0x84>
200a4588:	8526                	mv	a0,s1
200a458a:	2cbd                	jal	200a4808 <_free_r>
200a458c:	02042a23          	sw	zero,52(s0)
200a4590:	a01d                	j	200a45b6 <__sflush_r+0xae>
200a4592:	4601                	li	a2,0
200a4594:	4685                	li	a3,1
200a4596:	8526                	mv	a0,s1
200a4598:	9702                	jalr	a4
200a459a:	57fd                	li	a5,-1
200a459c:	862a                	mv	a2,a0
200a459e:	faf513e3          	bne	a0,a5,200a4544 <__sflush_r+0x3c>
200a45a2:	409c                	lw	a5,0(s1)
200a45a4:	d3c5                	beqz	a5,200a4544 <__sflush_r+0x3c>
200a45a6:	4775                	li	a4,29
200a45a8:	00e78563          	beq	a5,a4,200a45b2 <__sflush_r+0xaa>
200a45ac:	4759                	li	a4,22
200a45ae:	06e79563          	bne	a5,a4,200a4618 <__sflush_r+0x110>
200a45b2:	0124a023          	sw	s2,0(s1)
200a45b6:	4501                	li	a0,0
200a45b8:	a0b5                	j	200a4624 <__sflush_r+0x11c>
200a45ba:	4098                	lw	a4,0(s1)
200a45bc:	00c41783          	lh	a5,12(s0)
200a45c0:	cf01                	beqz	a4,200a45d8 <__sflush_r+0xd0>
200a45c2:	46f5                	li	a3,29
200a45c4:	00d70563          	beq	a4,a3,200a45ce <__sflush_r+0xc6>
200a45c8:	46d9                	li	a3,22
200a45ca:	04d71963          	bne	a4,a3,200a461c <__sflush_r+0x114>
200a45ce:	481c                	lw	a5,16(s0)
200a45d0:	00042223          	sw	zero,4(s0)
200a45d4:	c01c                	sw	a5,0(s0)
200a45d6:	b74d                	j	200a4578 <__sflush_r+0x70>
200a45d8:	4818                	lw	a4,16(s0)
200a45da:	00042223          	sw	zero,4(s0)
200a45de:	48c7d793          	bexti	a5,a5,0xc
200a45e2:	c018                	sw	a4,0(s0)
200a45e4:	bf41                	j	200a4574 <__sflush_r+0x6c>
200a45e6:	0105a983          	lw	s3,16(a1)
200a45ea:	fc0986e3          	beqz	s3,200a45b6 <__sflush_r+0xae>
200a45ee:	0005a903          	lw	s2,0(a1)
200a45f2:	8b8d                	andi	a5,a5,3
200a45f4:	0135a023          	sw	s3,0(a1)
200a45f8:	41390933          	sub	s2,s2,s3
200a45fc:	4701                	li	a4,0
200a45fe:	e391                	bnez	a5,200a4602 <__sflush_r+0xfa>
200a4600:	49d8                	lw	a4,20(a1)
200a4602:	c418                	sw	a4,8(s0)
200a4604:	fb2059e3          	blez	s2,200a45b6 <__sflush_r+0xae>
200a4608:	541c                	lw	a5,40(s0)
200a460a:	500c                	lw	a1,32(s0)
200a460c:	86ca                	mv	a3,s2
200a460e:	864e                	mv	a2,s3
200a4610:	8526                	mv	a0,s1
200a4612:	9782                	jalr	a5
200a4614:	00a04f63          	bgtz	a0,200a4632 <__sflush_r+0x12a>
200a4618:	00c41783          	lh	a5,12(s0)
200a461c:	0407e793          	ori	a5,a5,64
200a4620:	a45e                	sh	a5,12(s0)
200a4622:	557d                	li	a0,-1
200a4624:	40f2                	lw	ra,28(sp)
200a4626:	4462                	lw	s0,24(sp)
200a4628:	44d2                	lw	s1,20(sp)
200a462a:	4942                	lw	s2,16(sp)
200a462c:	49b2                	lw	s3,12(sp)
200a462e:	6105                	addi	sp,sp,32
200a4630:	8082                	ret
200a4632:	99aa                	add	s3,s3,a0
200a4634:	40a90933          	sub	s2,s2,a0
200a4638:	b7f1                	j	200a4604 <__sflush_r+0xfc>

200a463a <_fflush_r>:
200a463a:	499c                	lw	a5,16(a1)
200a463c:	1141                	addi	sp,sp,-16
200a463e:	c606                	sw	ra,12(sp)
200a4640:	c422                	sw	s0,8(sp)
200a4642:	c226                	sw	s1,4(sp)
200a4644:	eb81                	bnez	a5,200a4654 <_fflush_r+0x1a>
200a4646:	4481                	li	s1,0
200a4648:	40b2                	lw	ra,12(sp)
200a464a:	4422                	lw	s0,8(sp)
200a464c:	8526                	mv	a0,s1
200a464e:	4492                	lw	s1,4(sp)
200a4650:	0141                	addi	sp,sp,16
200a4652:	8082                	ret
200a4654:	84aa                	mv	s1,a0
200a4656:	842e                	mv	s0,a1
200a4658:	c509                	beqz	a0,200a4662 <_fflush_r+0x28>
200a465a:	4d1c                	lw	a5,24(a0)
200a465c:	e399                	bnez	a5,200a4662 <_fflush_r+0x28>
200a465e:	dc8ff0ef          	jal	ra,200a3c26 <__sinit>
200a4662:	dffa4797          	auipc	a5,0xdffa4
200a4666:	1fe78793          	addi	a5,a5,510 # 48860 <__sf_fake_stdin>
200a466a:	02f41f63          	bne	s0,a5,200a46a8 <_fflush_r+0x6e>
200a466e:	40c0                	lw	s0,4(s1)
200a4670:	00c41783          	lh	a5,12(s0)
200a4674:	dbe9                	beqz	a5,200a4646 <_fflush_r+0xc>
200a4676:	5078                	lw	a4,100(s0)
200a4678:	8b05                	andi	a4,a4,1
200a467a:	e719                	bnez	a4,200a4688 <_fflush_r+0x4e>
200a467c:	2007f793          	andi	a5,a5,512
200a4680:	e781                	bnez	a5,200a4688 <_fflush_r+0x4e>
200a4682:	4c28                	lw	a0,88(s0)
200a4684:	f2eff0ef          	jal	ra,200a3db2 <__retarget_lock_acquire_recursive>
200a4688:	8526                	mv	a0,s1
200a468a:	85a2                	mv	a1,s0
200a468c:	e7dff0ef          	jal	ra,200a4508 <__sflush_r>
200a4690:	507c                	lw	a5,100(s0)
200a4692:	84aa                	mv	s1,a0
200a4694:	8b85                	andi	a5,a5,1
200a4696:	fbcd                	bnez	a5,200a4648 <_fflush_r+0xe>
200a4698:	245e                	lhu	a5,12(s0)
200a469a:	2007f793          	andi	a5,a5,512
200a469e:	f7cd                	bnez	a5,200a4648 <_fflush_r+0xe>
200a46a0:	4c28                	lw	a0,88(s0)
200a46a2:	f12ff0ef          	jal	ra,200a3db4 <__retarget_lock_release_recursive>
200a46a6:	b74d                	j	200a4648 <_fflush_r+0xe>
200a46a8:	dffa4797          	auipc	a5,0xdffa4
200a46ac:	19878793          	addi	a5,a5,408 # 48840 <__sf_fake_stdout>
200a46b0:	00f41463          	bne	s0,a5,200a46b8 <_fflush_r+0x7e>
200a46b4:	4480                	lw	s0,8(s1)
200a46b6:	bf6d                	j	200a4670 <_fflush_r+0x36>
200a46b8:	dffa4797          	auipc	a5,0xdffa4
200a46bc:	16878793          	addi	a5,a5,360 # 48820 <__sf_fake_stderr>
200a46c0:	faf418e3          	bne	s0,a5,200a4670 <_fflush_r+0x36>
200a46c4:	44c0                	lw	s0,12(s1)
200a46c6:	b76d                	j	200a4670 <_fflush_r+0x36>

200a46c8 <_lseek_r>:
200a46c8:	1141                	addi	sp,sp,-16
200a46ca:	c422                	sw	s0,8(sp)
200a46cc:	842a                	mv	s0,a0
200a46ce:	852e                	mv	a0,a1
200a46d0:	85b2                	mv	a1,a2
200a46d2:	8636                	mv	a2,a3
200a46d4:	9201ac23          	sw	zero,-1736(gp) # 200c0518 <errno>
200a46d8:	c606                	sw	ra,12(sp)
200a46da:	2bcd                	jal	200a4ccc <_lseek>
200a46dc:	57fd                	li	a5,-1
200a46de:	00f51663          	bne	a0,a5,200a46ea <_lseek_r+0x22>
200a46e2:	9381a783          	lw	a5,-1736(gp) # 200c0518 <errno>
200a46e6:	c391                	beqz	a5,200a46ea <_lseek_r+0x22>
200a46e8:	c01c                	sw	a5,0(s0)
200a46ea:	40b2                	lw	ra,12(sp)
200a46ec:	4422                	lw	s0,8(sp)
200a46ee:	0141                	addi	sp,sp,16
200a46f0:	8082                	ret

200a46f2 <__swhatbuf_r>:
200a46f2:	7159                	addi	sp,sp,-112
200a46f4:	d4a2                	sw	s0,104(sp)
200a46f6:	842e                	mv	s0,a1
200a46f8:	00e59583          	lh	a1,14(a1)
200a46fc:	d2a6                	sw	s1,100(sp)
200a46fe:	d0ca                	sw	s2,96(sp)
200a4700:	d686                	sw	ra,108(sp)
200a4702:	84b2                	mv	s1,a2
200a4704:	8936                	mv	s2,a3
200a4706:	0205d263          	bgez	a1,200a472a <__swhatbuf_r+0x38>
200a470a:	245e                	lhu	a5,12(s0)
200a470c:	0807f793          	andi	a5,a5,128
200a4710:	eb8d                	bnez	a5,200a4742 <__swhatbuf_r+0x50>
200a4712:	40000713          	li	a4,1024
200a4716:	50b6                	lw	ra,108(sp)
200a4718:	5426                	lw	s0,104(sp)
200a471a:	00f92023          	sw	a5,0(s2)
200a471e:	c098                	sw	a4,0(s1)
200a4720:	5906                	lw	s2,96(sp)
200a4722:	5496                	lw	s1,100(sp)
200a4724:	4501                	li	a0,0
200a4726:	6165                	addi	sp,sp,112
200a4728:	8082                	ret
200a472a:	0030                	addi	a2,sp,8
200a472c:	233d                	jal	200a4c5a <_fstat_r>
200a472e:	fc054ee3          	bltz	a0,200a470a <__swhatbuf_r+0x18>
200a4732:	4732                	lw	a4,12(sp)
200a4734:	67bd                	lui	a5,0xf
200a4736:	8ff9                	and	a5,a5,a4
200a4738:	7779                	lui	a4,0xffffe
200a473a:	97ba                	add	a5,a5,a4
200a473c:	0017b793          	seqz	a5,a5
200a4740:	bfc9                	j	200a4712 <__swhatbuf_r+0x20>
200a4742:	4781                	li	a5,0
200a4744:	04000713          	li	a4,64
200a4748:	b7f9                	j	200a4716 <__swhatbuf_r+0x24>

200a474a <__smakebuf_r>:
200a474a:	25de                	lhu	a5,12(a1)
200a474c:	7179                	addi	sp,sp,-48
200a474e:	d422                	sw	s0,40(sp)
200a4750:	d606                	sw	ra,44(sp)
200a4752:	d226                	sw	s1,36(sp)
200a4754:	d04a                	sw	s2,32(sp)
200a4756:	ce4e                	sw	s3,28(sp)
200a4758:	8b89                	andi	a5,a5,2
200a475a:	842e                	mv	s0,a1
200a475c:	cf91                	beqz	a5,200a4778 <__smakebuf_r+0x2e>
200a475e:	04740793          	addi	a5,s0,71
200a4762:	c01c                	sw	a5,0(s0)
200a4764:	c81c                	sw	a5,16(s0)
200a4766:	4785                	li	a5,1
200a4768:	c85c                	sw	a5,20(s0)
200a476a:	50b2                	lw	ra,44(sp)
200a476c:	5422                	lw	s0,40(sp)
200a476e:	5492                	lw	s1,36(sp)
200a4770:	5902                	lw	s2,32(sp)
200a4772:	49f2                	lw	s3,28(sp)
200a4774:	6145                	addi	sp,sp,48
200a4776:	8082                	ret
200a4778:	0074                	addi	a3,sp,12
200a477a:	0030                	addi	a2,sp,8
200a477c:	84aa                	mv	s1,a0
200a477e:	f75ff0ef          	jal	ra,200a46f2 <__swhatbuf_r>
200a4782:	49a2                	lw	s3,8(sp)
200a4784:	892a                	mv	s2,a0
200a4786:	8526                	mv	a0,s1
200a4788:	85ce                	mv	a1,s3
200a478a:	e80ff0ef          	jal	ra,200a3e0a <_malloc_r>
200a478e:	e919                	bnez	a0,200a47a4 <__smakebuf_r+0x5a>
200a4790:	00c41783          	lh	a5,12(s0)
200a4794:	2007f713          	andi	a4,a5,512
200a4798:	fb69                	bnez	a4,200a476a <__smakebuf_r+0x20>
200a479a:	9bf1                	andi	a5,a5,-4
200a479c:	0027e793          	ori	a5,a5,2
200a47a0:	a45e                	sh	a5,12(s0)
200a47a2:	bf75                	j	200a475e <__smakebuf_r+0x14>
200a47a4:	fffff797          	auipc	a5,0xfffff
200a47a8:	41a78793          	addi	a5,a5,1050 # 200a3bbe <_cleanup_r>
200a47ac:	d49c                	sw	a5,40(s1)
200a47ae:	245e                	lhu	a5,12(s0)
200a47b0:	c008                	sw	a0,0(s0)
200a47b2:	c808                	sw	a0,16(s0)
200a47b4:	0807e793          	ori	a5,a5,128
200a47b8:	a45e                	sh	a5,12(s0)
200a47ba:	47b2                	lw	a5,12(sp)
200a47bc:	01342a23          	sw	s3,20(s0)
200a47c0:	cb99                	beqz	a5,200a47d6 <__smakebuf_r+0x8c>
200a47c2:	00e41583          	lh	a1,14(s0)
200a47c6:	8526                	mv	a0,s1
200a47c8:	296d                	jal	200a4c82 <_isatty_r>
200a47ca:	c511                	beqz	a0,200a47d6 <__smakebuf_r+0x8c>
200a47cc:	245e                	lhu	a5,12(s0)
200a47ce:	9bf1                	andi	a5,a5,-4
200a47d0:	0017e793          	ori	a5,a5,1
200a47d4:	a45e                	sh	a5,12(s0)
200a47d6:	245e                	lhu	a5,12(s0)
200a47d8:	0127e533          	or	a0,a5,s2
200a47dc:	a44a                	sh	a0,12(s0)
200a47de:	b771                	j	200a476a <__smakebuf_r+0x20>

200a47e0 <memchr>:
200a47e0:	0ff5f593          	zext.b	a1,a1
200a47e4:	962a                	add	a2,a2,a0
200a47e6:	00c51463          	bne	a0,a2,200a47ee <memchr+0xe>
200a47ea:	4501                	li	a0,0
200a47ec:	8082                	ret
200a47ee:	211c                	lbu	a5,0(a0)
200a47f0:	feb78ee3          	beq	a5,a1,200a47ec <memchr+0xc>
200a47f4:	0505                	addi	a0,a0,1
200a47f6:	bfc5                	j	200a47e6 <memchr+0x6>

200a47f8 <__malloc_lock>:
200a47f8:	92418513          	addi	a0,gp,-1756 # 200c0504 <__lock___malloc_recursive_mutex>
200a47fc:	db6ff06f          	j	200a3db2 <__retarget_lock_acquire_recursive>

200a4800 <__malloc_unlock>:
200a4800:	92418513          	addi	a0,gp,-1756 # 200c0504 <__lock___malloc_recursive_mutex>
200a4804:	db0ff06f          	j	200a3db4 <__retarget_lock_release_recursive>

200a4808 <_free_r>:
200a4808:	c1c5                	beqz	a1,200a48a8 <_free_r+0xa0>
200a480a:	ffc5a783          	lw	a5,-4(a1)
200a480e:	1101                	addi	sp,sp,-32
200a4810:	cc22                	sw	s0,24(sp)
200a4812:	ce06                	sw	ra,28(sp)
200a4814:	ffc58413          	addi	s0,a1,-4
200a4818:	0007d363          	bgez	a5,200a481e <_free_r+0x16>
200a481c:	943e                	add	s0,s0,a5
200a481e:	c62a                	sw	a0,12(sp)
200a4820:	fd9ff0ef          	jal	ra,200a47f8 <__malloc_lock>
200a4824:	93418713          	addi	a4,gp,-1740 # 200c0514 <__malloc_free_list>
200a4828:	431c                	lw	a5,0(a4)
200a482a:	4532                	lw	a0,12(sp)
200a482c:	eb89                	bnez	a5,200a483e <_free_r+0x36>
200a482e:	00042223          	sw	zero,4(s0)
200a4832:	c300                	sw	s0,0(a4)
200a4834:	4462                	lw	s0,24(sp)
200a4836:	40f2                	lw	ra,28(sp)
200a4838:	6105                	addi	sp,sp,32
200a483a:	fc7ff06f          	j	200a4800 <__malloc_unlock>
200a483e:	00f47d63          	bgeu	s0,a5,200a4858 <_free_r+0x50>
200a4842:	4010                	lw	a2,0(s0)
200a4844:	00c406b3          	add	a3,s0,a2
200a4848:	00d79663          	bne	a5,a3,200a4854 <_free_r+0x4c>
200a484c:	4394                	lw	a3,0(a5)
200a484e:	43dc                	lw	a5,4(a5)
200a4850:	96b2                	add	a3,a3,a2
200a4852:	c014                	sw	a3,0(s0)
200a4854:	c05c                	sw	a5,4(s0)
200a4856:	bff1                	j	200a4832 <_free_r+0x2a>
200a4858:	873e                	mv	a4,a5
200a485a:	43dc                	lw	a5,4(a5)
200a485c:	c399                	beqz	a5,200a4862 <_free_r+0x5a>
200a485e:	fef47de3          	bgeu	s0,a5,200a4858 <_free_r+0x50>
200a4862:	4314                	lw	a3,0(a4)
200a4864:	00d70633          	add	a2,a4,a3
200a4868:	00861f63          	bne	a2,s0,200a4886 <_free_r+0x7e>
200a486c:	4010                	lw	a2,0(s0)
200a486e:	96b2                	add	a3,a3,a2
200a4870:	c314                	sw	a3,0(a4)
200a4872:	00d70633          	add	a2,a4,a3
200a4876:	fac79fe3          	bne	a5,a2,200a4834 <_free_r+0x2c>
200a487a:	4390                	lw	a2,0(a5)
200a487c:	43dc                	lw	a5,4(a5)
200a487e:	96b2                	add	a3,a3,a2
200a4880:	c314                	sw	a3,0(a4)
200a4882:	c35c                	sw	a5,4(a4)
200a4884:	bf45                	j	200a4834 <_free_r+0x2c>
200a4886:	00c47563          	bgeu	s0,a2,200a4890 <_free_r+0x88>
200a488a:	47b1                	li	a5,12
200a488c:	c11c                	sw	a5,0(a0)
200a488e:	b75d                	j	200a4834 <_free_r+0x2c>
200a4890:	4010                	lw	a2,0(s0)
200a4892:	00c406b3          	add	a3,s0,a2
200a4896:	00d79663          	bne	a5,a3,200a48a2 <_free_r+0x9a>
200a489a:	4394                	lw	a3,0(a5)
200a489c:	43dc                	lw	a5,4(a5)
200a489e:	96b2                	add	a3,a3,a2
200a48a0:	c014                	sw	a3,0(s0)
200a48a2:	c05c                	sw	a5,4(s0)
200a48a4:	c340                	sw	s0,4(a4)
200a48a6:	b779                	j	200a4834 <_free_r+0x2c>
200a48a8:	8082                	ret

200a48aa <_printf_common>:
200a48aa:	7179                	addi	sp,sp,-48
200a48ac:	ca56                	sw	s5,20(sp)
200a48ae:	499c                	lw	a5,16(a1)
200a48b0:	8aba                	mv	s5,a4
200a48b2:	4598                	lw	a4,8(a1)
200a48b4:	d422                	sw	s0,40(sp)
200a48b6:	d04a                	sw	s2,32(sp)
200a48b8:	ce4e                	sw	s3,28(sp)
200a48ba:	cc52                	sw	s4,24(sp)
200a48bc:	d606                	sw	ra,44(sp)
200a48be:	d226                	sw	s1,36(sp)
200a48c0:	c85a                	sw	s6,16(sp)
200a48c2:	c65e                	sw	s7,12(sp)
200a48c4:	0ae7e7b3          	max	a5,a5,a4
200a48c8:	c21c                	sw	a5,0(a2)
200a48ca:	0435c703          	lbu	a4,67(a1)
200a48ce:	89aa                	mv	s3,a0
200a48d0:	842e                	mv	s0,a1
200a48d2:	8932                	mv	s2,a2
200a48d4:	8a36                	mv	s4,a3
200a48d6:	c319                	beqz	a4,200a48dc <_printf_common+0x32>
200a48d8:	0785                	addi	a5,a5,1
200a48da:	c21c                	sw	a5,0(a2)
200a48dc:	401c                	lw	a5,0(s0)
200a48de:	0207f793          	andi	a5,a5,32
200a48e2:	c791                	beqz	a5,200a48ee <_printf_common+0x44>
200a48e4:	00092783          	lw	a5,0(s2)
200a48e8:	0789                	addi	a5,a5,2
200a48ea:	00f92023          	sw	a5,0(s2)
200a48ee:	4004                	lw	s1,0(s0)
200a48f0:	8899                	andi	s1,s1,6
200a48f2:	e891                	bnez	s1,200a4906 <_printf_common+0x5c>
200a48f4:	01940b13          	addi	s6,s0,25
200a48f8:	5bfd                	li	s7,-1
200a48fa:	445c                	lw	a5,12(s0)
200a48fc:	00092703          	lw	a4,0(s2)
200a4900:	8f99                	sub	a5,a5,a4
200a4902:	04f4cc63          	blt	s1,a5,200a495a <_printf_common+0xb0>
200a4906:	04344783          	lbu	a5,67(s0)
200a490a:	00f036b3          	snez	a3,a5
200a490e:	401c                	lw	a5,0(s0)
200a4910:	0207f793          	andi	a5,a5,32
200a4914:	eba5                	bnez	a5,200a4984 <_printf_common+0xda>
200a4916:	04340613          	addi	a2,s0,67
200a491a:	85d2                	mv	a1,s4
200a491c:	854e                	mv	a0,s3
200a491e:	9a82                	jalr	s5
200a4920:	57fd                	li	a5,-1
200a4922:	04f50363          	beq	a0,a5,200a4968 <_printf_common+0xbe>
200a4926:	401c                	lw	a5,0(s0)
200a4928:	4711                	li	a4,4
200a492a:	4481                	li	s1,0
200a492c:	8b99                	andi	a5,a5,6
200a492e:	00e79963          	bne	a5,a4,200a4940 <_printf_common+0x96>
200a4932:	00092783          	lw	a5,0(s2)
200a4936:	4444                	lw	s1,12(s0)
200a4938:	8c9d                	sub	s1,s1,a5
200a493a:	4781                	li	a5,0
200a493c:	0af4e4b3          	max	s1,s1,a5
200a4940:	441c                	lw	a5,8(s0)
200a4942:	4818                	lw	a4,16(s0)
200a4944:	00f75463          	bge	a4,a5,200a494c <_printf_common+0xa2>
200a4948:	8f99                	sub	a5,a5,a4
200a494a:	94be                	add	s1,s1,a5
200a494c:	4901                	li	s2,0
200a494e:	0469                	addi	s0,s0,26
200a4950:	5b7d                	li	s6,-1
200a4952:	05249863          	bne	s1,s2,200a49a2 <_printf_common+0xf8>
200a4956:	4501                	li	a0,0
200a4958:	a809                	j	200a496a <_printf_common+0xc0>
200a495a:	4685                	li	a3,1
200a495c:	865a                	mv	a2,s6
200a495e:	85d2                	mv	a1,s4
200a4960:	854e                	mv	a0,s3
200a4962:	9a82                	jalr	s5
200a4964:	01751e63          	bne	a0,s7,200a4980 <_printf_common+0xd6>
200a4968:	557d                	li	a0,-1
200a496a:	50b2                	lw	ra,44(sp)
200a496c:	5422                	lw	s0,40(sp)
200a496e:	5492                	lw	s1,36(sp)
200a4970:	5902                	lw	s2,32(sp)
200a4972:	49f2                	lw	s3,28(sp)
200a4974:	4a62                	lw	s4,24(sp)
200a4976:	4ad2                	lw	s5,20(sp)
200a4978:	4b42                	lw	s6,16(sp)
200a497a:	4bb2                	lw	s7,12(sp)
200a497c:	6145                	addi	sp,sp,48
200a497e:	8082                	ret
200a4980:	0485                	addi	s1,s1,1
200a4982:	bfa5                	j	200a48fa <_printf_common+0x50>
200a4984:	00d40733          	add	a4,s0,a3
200a4988:	03000613          	li	a2,48
200a498c:	04c701a3          	sb	a2,67(a4) # ffffe043 <_eusrstack+0xdfefe043>
200a4990:	04544703          	lbu	a4,69(s0)
200a4994:	00168793          	addi	a5,a3,1
200a4998:	97a2                	add	a5,a5,s0
200a499a:	0689                	addi	a3,a3,2
200a499c:	04e781a3          	sb	a4,67(a5)
200a49a0:	bf9d                	j	200a4916 <_printf_common+0x6c>
200a49a2:	4685                	li	a3,1
200a49a4:	8622                	mv	a2,s0
200a49a6:	85d2                	mv	a1,s4
200a49a8:	854e                	mv	a0,s3
200a49aa:	9a82                	jalr	s5
200a49ac:	fb650ee3          	beq	a0,s6,200a4968 <_printf_common+0xbe>
200a49b0:	0905                	addi	s2,s2,1
200a49b2:	b745                	j	200a4952 <_printf_common+0xa8>

200a49b4 <_printf_i>:
200a49b4:	7179                	addi	sp,sp,-48
200a49b6:	d422                	sw	s0,40(sp)
200a49b8:	d04a                	sw	s2,32(sp)
200a49ba:	ce4e                	sw	s3,28(sp)
200a49bc:	cc52                	sw	s4,24(sp)
200a49be:	d606                	sw	ra,44(sp)
200a49c0:	d226                	sw	s1,36(sp)
200a49c2:	ca56                	sw	s5,20(sp)
200a49c4:	c85a                	sw	s6,16(sp)
200a49c6:	0185c803          	lbu	a6,24(a1)
200a49ca:	07800793          	li	a5,120
200a49ce:	892a                	mv	s2,a0
200a49d0:	842e                	mv	s0,a1
200a49d2:	89b2                	mv	s3,a2
200a49d4:	8a36                	mv	s4,a3
200a49d6:	0307e263          	bltu	a5,a6,200a49fa <_printf_i+0x46>
200a49da:	06200793          	li	a5,98
200a49de:	04358693          	addi	a3,a1,67
200a49e2:	0307e163          	bltu	a5,a6,200a4a04 <_printf_i+0x50>
200a49e6:	1c080c63          	beqz	a6,200a4bbe <_printf_i+0x20a>
200a49ea:	05800793          	li	a5,88
200a49ee:	dffa4617          	auipc	a2,0xdffa4
200a49f2:	ea660613          	addi	a2,a2,-346 # 48894 <__sf_fake_stdin+0x34>
200a49f6:	14f80863          	beq	a6,a5,200a4b46 <_printf_i+0x192>
200a49fa:	04240493          	addi	s1,s0,66
200a49fe:	05040123          	sb	a6,66(s0)
200a4a02:	a815                	j	200a4a36 <_printf_i+0x82>
200a4a04:	f9d80793          	addi	a5,a6,-99
200a4a08:	0ff7f793          	zext.b	a5,a5
200a4a0c:	4655                	li	a2,21
200a4a0e:	fef666e3          	bltu	a2,a5,200a49fa <_printf_i+0x46>
200a4a12:	dffa4617          	auipc	a2,0xdffa4
200a4a16:	eaa60613          	addi	a2,a2,-342 # 488bc <__sf_fake_stdin+0x5c>
200a4a1a:	20c7c7b3          	sh2add	a5,a5,a2
200a4a1e:	439c                	lw	a5,0(a5)
200a4a20:	97b2                	add	a5,a5,a2
200a4a22:	8782                	jr	a5
200a4a24:	431c                	lw	a5,0(a4)
200a4a26:	04258493          	addi	s1,a1,66
200a4a2a:	00478693          	addi	a3,a5,4
200a4a2e:	439c                	lw	a5,0(a5)
200a4a30:	c314                	sw	a3,0(a4)
200a4a32:	04f58123          	sb	a5,66(a1)
200a4a36:	4785                	li	a5,1
200a4a38:	a275                	j	200a4be4 <_printf_i+0x230>
200a4a3a:	4190                	lw	a2,0(a1)
200a4a3c:	431c                	lw	a5,0(a4)
200a4a3e:	08067513          	andi	a0,a2,128
200a4a42:	00478593          	addi	a1,a5,4
200a4a46:	c129                	beqz	a0,200a4a88 <_printf_i+0xd4>
200a4a48:	439c                	lw	a5,0(a5)
200a4a4a:	c30c                	sw	a1,0(a4)
200a4a4c:	4058                	lw	a4,4(s0)
200a4a4e:	1207df63          	bgez	a5,200a4b8c <_printf_i+0x1d8>
200a4a52:	02d00593          	li	a1,45
200a4a56:	04b401a3          	sb	a1,67(s0)
200a4a5a:	c418                	sw	a4,8(s0)
200a4a5c:	02075e63          	bgez	a4,200a4a98 <_printf_i+0xe4>
200a4a60:	40f007b3          	neg	a5,a5
200a4a64:	dffa4617          	auipc	a2,0xdffa4
200a4a68:	e3060613          	addi	a2,a2,-464 # 48894 <__sf_fake_stdin+0x34>
200a4a6c:	4829                	li	a6,10
200a4a6e:	84b6                	mv	s1,a3
200a4a70:	0307f733          	remu	a4,a5,a6
200a4a74:	14fd                	addi	s1,s1,-1
200a4a76:	9732                	add	a4,a4,a2
200a4a78:	2318                	lbu	a4,0(a4)
200a4a7a:	a098                	sb	a4,0(s1)
200a4a7c:	873e                	mv	a4,a5
200a4a7e:	0307d7b3          	divu	a5,a5,a6
200a4a82:	ff0777e3          	bgeu	a4,a6,200a4a70 <_printf_i+0xbc>
200a4a86:	a085                	j	200a4ae6 <_printf_i+0x132>
200a4a88:	439c                	lw	a5,0(a5)
200a4a8a:	04067513          	andi	a0,a2,64
200a4a8e:	c30c                	sw	a1,0(a4)
200a4a90:	dd55                	beqz	a0,200a4a4c <_printf_i+0x98>
200a4a92:	60579793          	sext.h	a5,a5
200a4a96:	bf5d                	j	200a4a4c <_printf_i+0x98>
200a4a98:	9a6d                	andi	a2,a2,-5
200a4a9a:	c010                	sw	a2,0(s0)
200a4a9c:	b7d1                	j	200a4a60 <_printf_i+0xac>
200a4a9e:	4190                	lw	a2,0(a1)
200a4aa0:	431c                	lw	a5,0(a4)
200a4aa2:	08067513          	andi	a0,a2,128
200a4aa6:	00478593          	addi	a1,a5,4
200a4aaa:	c501                	beqz	a0,200a4ab2 <_printf_i+0xfe>
200a4aac:	c30c                	sw	a1,0(a4)
200a4aae:	439c                	lw	a5,0(a5)
200a4ab0:	a031                	j	200a4abc <_printf_i+0x108>
200a4ab2:	04067613          	andi	a2,a2,64
200a4ab6:	c30c                	sw	a1,0(a4)
200a4ab8:	da7d                	beqz	a2,200a4aae <_printf_i+0xfa>
200a4aba:	239e                	lhu	a5,0(a5)
200a4abc:	06f00713          	li	a4,111
200a4ac0:	dffa4617          	auipc	a2,0xdffa4
200a4ac4:	dd460613          	addi	a2,a2,-556 # 48894 <__sf_fake_stdin+0x34>
200a4ac8:	0ce81063          	bne	a6,a4,200a4b88 <_printf_i+0x1d4>
200a4acc:	4821                	li	a6,8
200a4ace:	040401a3          	sb	zero,67(s0)
200a4ad2:	4058                	lw	a4,4(s0)
200a4ad4:	c418                	sw	a4,8(s0)
200a4ad6:	f8074ce3          	bltz	a4,200a4a6e <_printf_i+0xba>
200a4ada:	400c                	lw	a1,0(s0)
200a4adc:	99ed                	andi	a1,a1,-5
200a4ade:	c00c                	sw	a1,0(s0)
200a4ae0:	f7d9                	bnez	a5,200a4a6e <_printf_i+0xba>
200a4ae2:	84b6                	mv	s1,a3
200a4ae4:	f749                	bnez	a4,200a4a6e <_printf_i+0xba>
200a4ae6:	47a1                	li	a5,8
200a4ae8:	00f81e63          	bne	a6,a5,200a4b04 <_printf_i+0x150>
200a4aec:	401c                	lw	a5,0(s0)
200a4aee:	8b85                	andi	a5,a5,1
200a4af0:	cb91                	beqz	a5,200a4b04 <_printf_i+0x150>
200a4af2:	4058                	lw	a4,4(s0)
200a4af4:	481c                	lw	a5,16(s0)
200a4af6:	00e7c763          	blt	a5,a4,200a4b04 <_printf_i+0x150>
200a4afa:	03000793          	li	a5,48
200a4afe:	fef48fa3          	sb	a5,-1(s1)
200a4b02:	14fd                	addi	s1,s1,-1
200a4b04:	8e85                	sub	a3,a3,s1
200a4b06:	c814                	sw	a3,16(s0)
200a4b08:	8752                	mv	a4,s4
200a4b0a:	86ce                	mv	a3,s3
200a4b0c:	0070                	addi	a2,sp,12
200a4b0e:	85a2                	mv	a1,s0
200a4b10:	854a                	mv	a0,s2
200a4b12:	d99ff0ef          	jal	ra,200a48aa <_printf_common>
200a4b16:	5afd                	li	s5,-1
200a4b18:	0d551a63          	bne	a0,s5,200a4bec <_printf_i+0x238>
200a4b1c:	557d                	li	a0,-1
200a4b1e:	50b2                	lw	ra,44(sp)
200a4b20:	5422                	lw	s0,40(sp)
200a4b22:	5492                	lw	s1,36(sp)
200a4b24:	5902                	lw	s2,32(sp)
200a4b26:	49f2                	lw	s3,28(sp)
200a4b28:	4a62                	lw	s4,24(sp)
200a4b2a:	4ad2                	lw	s5,20(sp)
200a4b2c:	4b42                	lw	s6,16(sp)
200a4b2e:	6145                	addi	sp,sp,48
200a4b30:	8082                	ret
200a4b32:	419c                	lw	a5,0(a1)
200a4b34:	0207e793          	ori	a5,a5,32
200a4b38:	c19c                	sw	a5,0(a1)
200a4b3a:	07800813          	li	a6,120
200a4b3e:	dffa4617          	auipc	a2,0xdffa4
200a4b42:	d6a60613          	addi	a2,a2,-662 # 488a8 <__sf_fake_stdin+0x48>
200a4b46:	050402a3          	sb	a6,69(s0)
200a4b4a:	400c                	lw	a1,0(s0)
200a4b4c:	431c                	lw	a5,0(a4)
200a4b4e:	0805f813          	andi	a6,a1,128
200a4b52:	00478513          	addi	a0,a5,4
200a4b56:	00080563          	beqz	a6,200a4b60 <_printf_i+0x1ac>
200a4b5a:	c308                	sw	a0,0(a4)
200a4b5c:	439c                	lw	a5,0(a5)
200a4b5e:	a039                	j	200a4b6c <_printf_i+0x1b8>
200a4b60:	0405f813          	andi	a6,a1,64
200a4b64:	c308                	sw	a0,0(a4)
200a4b66:	fe080be3          	beqz	a6,200a4b5c <_printf_i+0x1a8>
200a4b6a:	239e                	lhu	a5,0(a5)
200a4b6c:	0015f713          	andi	a4,a1,1
200a4b70:	c701                	beqz	a4,200a4b78 <_printf_i+0x1c4>
200a4b72:	0205e593          	ori	a1,a1,32
200a4b76:	c00c                	sw	a1,0(s0)
200a4b78:	c399                	beqz	a5,200a4b7e <_printf_i+0x1ca>
200a4b7a:	4841                	li	a6,16
200a4b7c:	bf89                	j	200a4ace <_printf_i+0x11a>
200a4b7e:	4018                	lw	a4,0(s0)
200a4b80:	fdf77713          	andi	a4,a4,-33
200a4b84:	c018                	sw	a4,0(s0)
200a4b86:	bfd5                	j	200a4b7a <_printf_i+0x1c6>
200a4b88:	4829                	li	a6,10
200a4b8a:	b791                	j	200a4ace <_printf_i+0x11a>
200a4b8c:	dffa4617          	auipc	a2,0xdffa4
200a4b90:	d0860613          	addi	a2,a2,-760 # 48894 <__sf_fake_stdin+0x34>
200a4b94:	4829                	li	a6,10
200a4b96:	bf35                	j	200a4ad2 <_printf_i+0x11e>
200a4b98:	4190                	lw	a2,0(a1)
200a4b9a:	431c                	lw	a5,0(a4)
200a4b9c:	49cc                	lw	a1,20(a1)
200a4b9e:	08067813          	andi	a6,a2,128
200a4ba2:	00478513          	addi	a0,a5,4
200a4ba6:	00080663          	beqz	a6,200a4bb2 <_printf_i+0x1fe>
200a4baa:	c308                	sw	a0,0(a4)
200a4bac:	439c                	lw	a5,0(a5)
200a4bae:	c38c                	sw	a1,0(a5)
200a4bb0:	a039                	j	200a4bbe <_printf_i+0x20a>
200a4bb2:	c308                	sw	a0,0(a4)
200a4bb4:	04067613          	andi	a2,a2,64
200a4bb8:	439c                	lw	a5,0(a5)
200a4bba:	da75                	beqz	a2,200a4bae <_printf_i+0x1fa>
200a4bbc:	a38e                	sh	a1,0(a5)
200a4bbe:	00042823          	sw	zero,16(s0)
200a4bc2:	84b6                	mv	s1,a3
200a4bc4:	b791                	j	200a4b08 <_printf_i+0x154>
200a4bc6:	431c                	lw	a5,0(a4)
200a4bc8:	41d0                	lw	a2,4(a1)
200a4bca:	4581                	li	a1,0
200a4bcc:	00478693          	addi	a3,a5,4
200a4bd0:	c314                	sw	a3,0(a4)
200a4bd2:	4384                	lw	s1,0(a5)
200a4bd4:	8526                	mv	a0,s1
200a4bd6:	c0bff0ef          	jal	ra,200a47e0 <memchr>
200a4bda:	c501                	beqz	a0,200a4be2 <_printf_i+0x22e>
200a4bdc:	409507b3          	sub	a5,a0,s1
200a4be0:	c05c                	sw	a5,4(s0)
200a4be2:	405c                	lw	a5,4(s0)
200a4be4:	c81c                	sw	a5,16(s0)
200a4be6:	040401a3          	sb	zero,67(s0)
200a4bea:	bf39                	j	200a4b08 <_printf_i+0x154>
200a4bec:	4814                	lw	a3,16(s0)
200a4bee:	8626                	mv	a2,s1
200a4bf0:	85ce                	mv	a1,s3
200a4bf2:	854a                	mv	a0,s2
200a4bf4:	9a02                	jalr	s4
200a4bf6:	f35503e3          	beq	a0,s5,200a4b1c <_printf_i+0x168>
200a4bfa:	401c                	lw	a5,0(s0)
200a4bfc:	8b89                	andi	a5,a5,2
200a4bfe:	e785                	bnez	a5,200a4c26 <_printf_i+0x272>
200a4c00:	4448                	lw	a0,12(s0)
200a4c02:	47b2                	lw	a5,12(sp)
200a4c04:	0af56533          	max	a0,a0,a5
200a4c08:	bf19                	j	200a4b1e <_printf_i+0x16a>
200a4c0a:	4685                	li	a3,1
200a4c0c:	8656                	mv	a2,s5
200a4c0e:	85ce                	mv	a1,s3
200a4c10:	854a                	mv	a0,s2
200a4c12:	9a02                	jalr	s4
200a4c14:	f16504e3          	beq	a0,s6,200a4b1c <_printf_i+0x168>
200a4c18:	0485                	addi	s1,s1,1
200a4c1a:	445c                	lw	a5,12(s0)
200a4c1c:	4732                	lw	a4,12(sp)
200a4c1e:	8f99                	sub	a5,a5,a4
200a4c20:	fef4c5e3          	blt	s1,a5,200a4c0a <_printf_i+0x256>
200a4c24:	bff1                	j	200a4c00 <_printf_i+0x24c>
200a4c26:	4481                	li	s1,0
200a4c28:	01940a93          	addi	s5,s0,25
200a4c2c:	5b7d                	li	s6,-1
200a4c2e:	b7f5                	j	200a4c1a <_printf_i+0x266>

200a4c30 <_read_r>:
200a4c30:	1141                	addi	sp,sp,-16
200a4c32:	c422                	sw	s0,8(sp)
200a4c34:	842a                	mv	s0,a0
200a4c36:	852e                	mv	a0,a1
200a4c38:	85b2                	mv	a1,a2
200a4c3a:	8636                	mv	a2,a3
200a4c3c:	9201ac23          	sw	zero,-1736(gp) # 200c0518 <errno>
200a4c40:	c606                	sw	ra,12(sp)
200a4c42:	2859                	jal	200a4cd8 <_read>
200a4c44:	57fd                	li	a5,-1
200a4c46:	00f51663          	bne	a0,a5,200a4c52 <_read_r+0x22>
200a4c4a:	9381a783          	lw	a5,-1736(gp) # 200c0518 <errno>
200a4c4e:	c391                	beqz	a5,200a4c52 <_read_r+0x22>
200a4c50:	c01c                	sw	a5,0(s0)
200a4c52:	40b2                	lw	ra,12(sp)
200a4c54:	4422                	lw	s0,8(sp)
200a4c56:	0141                	addi	sp,sp,16
200a4c58:	8082                	ret

200a4c5a <_fstat_r>:
200a4c5a:	1141                	addi	sp,sp,-16
200a4c5c:	c422                	sw	s0,8(sp)
200a4c5e:	842a                	mv	s0,a0
200a4c60:	852e                	mv	a0,a1
200a4c62:	85b2                	mv	a1,a2
200a4c64:	9201ac23          	sw	zero,-1736(gp) # 200c0518 <errno>
200a4c68:	c606                	sw	ra,12(sp)
200a4c6a:	20a9                	jal	200a4cb4 <_fstat>
200a4c6c:	57fd                	li	a5,-1
200a4c6e:	00f51663          	bne	a0,a5,200a4c7a <_fstat_r+0x20>
200a4c72:	9381a783          	lw	a5,-1736(gp) # 200c0518 <errno>
200a4c76:	c391                	beqz	a5,200a4c7a <_fstat_r+0x20>
200a4c78:	c01c                	sw	a5,0(s0)
200a4c7a:	40b2                	lw	ra,12(sp)
200a4c7c:	4422                	lw	s0,8(sp)
200a4c7e:	0141                	addi	sp,sp,16
200a4c80:	8082                	ret

200a4c82 <_isatty_r>:
200a4c82:	1141                	addi	sp,sp,-16
200a4c84:	c422                	sw	s0,8(sp)
200a4c86:	842a                	mv	s0,a0
200a4c88:	852e                	mv	a0,a1
200a4c8a:	9201ac23          	sw	zero,-1736(gp) # 200c0518 <errno>
200a4c8e:	c606                	sw	ra,12(sp)
200a4c90:	2805                	jal	200a4cc0 <_isatty>
200a4c92:	57fd                	li	a5,-1
200a4c94:	00f51663          	bne	a0,a5,200a4ca0 <_isatty_r+0x1e>
200a4c98:	9381a783          	lw	a5,-1736(gp) # 200c0518 <errno>
200a4c9c:	c391                	beqz	a5,200a4ca0 <_isatty_r+0x1e>
200a4c9e:	c01c                	sw	a5,0(s0)
200a4ca0:	40b2                	lw	ra,12(sp)
200a4ca2:	4422                	lw	s0,8(sp)
200a4ca4:	0141                	addi	sp,sp,16
200a4ca6:	8082                	ret

200a4ca8 <_close>:
200a4ca8:	05800793          	li	a5,88
200a4cac:	92f1ac23          	sw	a5,-1736(gp) # 200c0518 <errno>
200a4cb0:	557d                	li	a0,-1
200a4cb2:	8082                	ret

200a4cb4 <_fstat>:
200a4cb4:	05800793          	li	a5,88
200a4cb8:	92f1ac23          	sw	a5,-1736(gp) # 200c0518 <errno>
200a4cbc:	557d                	li	a0,-1
200a4cbe:	8082                	ret

200a4cc0 <_isatty>:
200a4cc0:	05800793          	li	a5,88
200a4cc4:	92f1ac23          	sw	a5,-1736(gp) # 200c0518 <errno>
200a4cc8:	4501                	li	a0,0
200a4cca:	8082                	ret

200a4ccc <_lseek>:
200a4ccc:	05800793          	li	a5,88
200a4cd0:	92f1ac23          	sw	a5,-1736(gp) # 200c0518 <errno>
200a4cd4:	557d                	li	a0,-1
200a4cd6:	8082                	ret

200a4cd8 <_read>:
200a4cd8:	05800793          	li	a5,88
200a4cdc:	92f1ac23          	sw	a5,-1736(gp) # 200c0518 <errno>
200a4ce0:	557d                	li	a0,-1
200a4ce2:	8082                	ret

Disassembly of section .text:

00048914 <handle_reset>:
   48914:	20078197          	auipc	gp,0x20078
   48918:	2cc18193          	addi	gp,gp,716 # 200c0be0 <__global_pointer$>
   4891c:	200b7117          	auipc	sp,0x200b7
   48920:	6e410113          	addi	sp,sp,1764 # 20100000 <_eusrstack>
   48924:	400226b7          	lui	a3,0x40022
   48928:	4298                	lw	a4,0(a3)
   4892a:	478d                	li	a5,3
   4892c:	8fd9                	or	a5,a5,a4
   4892e:	c29c                	sw	a5,0(a3)
   48930:	ffff7517          	auipc	a0,0xffff7
   48934:	6d850513          	addi	a0,a0,1752 # 40008 <_einit>
   48938:	20078597          	auipc	a1,0x20078
   4893c:	8c858593          	addi	a1,a1,-1848 # 200c0200 <_loadcode_vma_start>
   48940:	20078617          	auipc	a2,0x20078
   48944:	99860613          	addi	a2,a2,-1640 # 200c02d8 <_loadcode_vma_end>
   48948:	00c5fa63          	bgeu	a1,a2,4895c <handle_reset+0x48>
   4894c:	00052283          	lw	t0,0(a0)
   48950:	0055a023          	sw	t0,0(a1)
   48954:	0511                	addi	a0,a0,4
   48956:	0591                	addi	a1,a1,4
   48958:	fec5eae3          	bltu	a1,a2,4894c <handle_reset+0x38>
   4895c:	c298                	sw	a4,0(a3)
   4895e:	20078097          	auipc	ra,0x20078
   48962:	8a2080e7          	jalr	-1886(ra) # 200c0200 <_loadcode_vma_start>
	...
