
DVP_UART_V3F.elf:     file format elf32-littleriscv
DVP_UART_V3F.elf
architecture: riscv:rv32, flags 0x00000112:
EXEC_P, HAS_SYMS, D_PAGED
start address 0x00000000

Program Header:
0x70000003 off    0x00024ce8 vaddr 0x00000000 paddr 0x00000000 align 2**0
         filesz 0x00000056 memsz 0x00000000 flags r--
    LOAD off    0x00001000 vaddr 0x00000000 paddr 0x00000000 align 2**12
         filesz 0x00000008 memsz 0x00000008 flags r-x
    LOAD off    0x00002000 vaddr 0x20120000 paddr 0x00000008 align 2**12
         filesz 0x000000e4 memsz 0x000000e4 flags r-x
    LOAD off    0x00003000 vaddr 0x20100000 paddr 0x000000ec align 2**12
         filesz 0x000031a4 memsz 0x000031a4 flags r-x
    LOAD off    0x00006290 vaddr 0x00003290 paddr 0x00003290 align 2**12
         filesz 0x0000051c memsz 0x0000051c flags r-x
    LOAD off    0x00007100 vaddr 0x20120100 paddr 0x000037ac align 2**12
         filesz 0x0000012c memsz 0x00000164 flags rw-
    LOAD off    0x00000800 vaddr 0x2017f800 paddr 0x2017f800 align 2**12
         filesz 0x00000000 memsz 0x00000800 flags rw-

Sections:
Idx Name          Size      VMA       LMA       File off  Algn
  0 .init         00000008  00000000  00000000  00001000  2**2
                  CONTENTS, ALLOC, LOAD, READONLY, CODE
  1 .loadcodelalign 00000000  00000008  00000008  0000722c  2**0
                  CONTENTS
  2 .loadcode     000000e4  20120000  00000008  00002000  2**1
                  CONTENTS, ALLOC, LOAD, READONLY, CODE
  3 .highcodelalign 00000000  000000ec  000000ec  0000722c  2**0
                  CONTENTS
  4 .highcode     000031a4  20100000  000000ec  00003000  2**1
                  CONTENTS, ALLOC, LOAD, READONLY, CODE
  5 .rodata_flash 00000498  00003290  00003290  00006290  2**2
                  CONTENTS, ALLOC, LOAD, READONLY, DATA
  6 .text         00000084  00003728  00003728  00006728  2**1
                  CONTENTS, ALLOC, LOAD, READONLY, CODE
  7 .highcodelalign1 00000000  000037ac  000037ac  0000722c  2**0
                  CONTENTS
  8 .fini         00000000  201031a4  201031a4  0000722c  2**0
                  CONTENTS, ALLOC, LOAD, CODE
  9 .dtors        00000000  201031a4  201031a4  0000722c  2**0
                  CONTENTS
 10 .dalign       00000000  20120100  20120100  0000722c  2**0
                  CONTENTS
 11 .dlalign      00000000  000037ac  000037ac  0000722c  2**0
                  CONTENTS
 12 .data         0000012c  20120100  000037ac  00007100  2**5
                  CONTENTS, ALLOC, LOAD, DATA
 13 .bss          00000038  2012022c  000038d8  0000722c  2**2
                  ALLOC
 14 .stack        00000800  2017f800  2017f800  00007800  2**0
                  ALLOC
 15 .debug_info   00008f73  00000000  00000000  0000722c  2**0
                  CONTENTS, READONLY, DEBUGGING, OCTETS
 16 .debug_abbrev 000023f1  00000000  00000000  0001019f  2**0
                  CONTENTS, READONLY, DEBUGGING, OCTETS
 17 .debug_loclists 000030ac  00000000  00000000  00012590  2**0
                  CONTENTS, READONLY, DEBUGGING, OCTETS
 18 .debug_aranges 000009a8  00000000  00000000  00015640  2**3
                  CONTENTS, READONLY, DEBUGGING, OCTETS
 19 .debug_rnglists 00000b20  00000000  00000000  00015fe8  2**0
                  CONTENTS, READONLY, DEBUGGING, OCTETS
 20 .debug_line   0000ab7d  00000000  00000000  00016b08  2**0
                  CONTENTS, READONLY, DEBUGGING, OCTETS
 21 .debug_str    00002d58  00000000  00000000  00021685  2**0
                  CONTENTS, READONLY, DEBUGGING, OCTETS
 22 .debug_line_str 000008da  00000000  00000000  000243dd  2**0
                  CONTENTS, READONLY, DEBUGGING, OCTETS
 23 .comment      00000031  00000000  00000000  00024cb7  2**0
                  CONTENTS, READONLY
 24 .riscv.attributes 00000056  00000000  00000000  00024ce8  2**0
                  CONTENTS, READONLY
 25 .debug_frame  000014c4  00000000  00000000  00024d40  2**2
                  CONTENTS, READONLY, DEBUGGING, OCTETS
SYMBOL TABLE:
00000000 l    d  .init	00000000 .init
00000008 l    d  .loadcodelalign	00000000 .loadcodelalign
20120000 l    d  .loadcode	00000000 .loadcode
000000ec l    d  .highcodelalign	00000000 .highcodelalign
20100000 l    d  .highcode	00000000 .highcode
00003290 l    d  .rodata_flash	00000000 .rodata_flash
00003728 l    d  .text	00000000 .text
000037ac l    d  .highcodelalign1	00000000 .highcodelalign1
201031a4 l    d  .fini	00000000 .fini
201031a4 l    d  .dtors	00000000 .dtors
20120100 l    d  .dalign	00000000 .dalign
000037ac l    d  .dlalign	00000000 .dlalign
20120100 l    d  .data	00000000 .data
2012022c l    d  .bss	00000000 .bss
2017f800 l    d  .stack	00000000 .stack
00000000 l    d  .debug_info	00000000 .debug_info
00000000 l    d  .debug_abbrev	00000000 .debug_abbrev
00000000 l    d  .debug_loclists	00000000 .debug_loclists
00000000 l    d  .debug_aranges	00000000 .debug_aranges
00000000 l    d  .debug_rnglists	00000000 .debug_rnglists
00000000 l    d  .debug_line	00000000 .debug_line
00000000 l    d  .debug_str	00000000 .debug_str
00000000 l    d  .debug_line_str	00000000 .debug_line_str
00000000 l    d  .comment	00000000 .comment
00000000 l    d  .riscv.attributes	00000000 .riscv.attributes
00000000 l    d  .debug_frame	00000000 .debug_frame
00000000 l    df *ABS*	00000000 startup_ch32h417_v3f.o
20100000 l       .highcode	00000000 _vector_base
20120000 l       .loadcode	00000000 _load_base
0000379a l       .text	00000000 BP
00000000 l    df *ABS*	00000000 save-restore.o
00000000 l    df *ABS*	00000000 lib_a-memset.o
00000000 l    df *ABS*	00000000 ch32h417_it.c
201002c4 l     F .highcode	00000028 dbg_putc
201002ec l     F .highcode	00000014 dbg_puts
20100300 l     F .highcode	00000032 dbg_hex
00000000 l    df *ABS*	00000000 main.c
00000000 l    df *ABS*	00000000 system_ch32h417.c
20120120 l     O .data	00000020 PLLMULTB
20120110 l     O .data	00000010 HBPrescTB
201201e0 l     O .data	00000004 FPRETB
20120100 l     O .data	00000010 SERDESPLLMULTB
00000000 l    df *ABS*	00000000 ch32h417_dvp.c
00000000 l    df *ABS*	00000000 ch32h417_flash.c
00000000 l    df *ABS*	00000000 ch32h417_gpio.c
00000000 l    df *ABS*	00000000 ch32h417_hsem.c
00000000 l    df *ABS*	00000000 ch32h417_pwr.c
00000000 l    df *ABS*	00000000 ch32h417_rcc.c
20120160 l     O .data	00000020 PLLMULTable
20120150 l     O .data	00000010 HBPrescTable
201201f8 l     O .data	00000004 FPRETable
20120140 l     O .data	00000010 SERDESPLLMULTable
201201f0 l     O .data	00000008 PPRE2Table
201201ec l     O .data	00000004 ADCPRETable
00000000 l    df *ABS*	00000000 ch32h417_usart.c
00000000 l    df *ABS*	00000000 debug.c
20120238 l     O .bss	00000002 p_us
20120234 l     O .bss	00000004 p_ms
201201fc l     O .data	00000004 curbrk.0
00000000 l    df *ABS*	00000000 hardware.c
00000000 l    df *ABS*	00000000 ov2640.c
00000000 l    df *ABS*	00000000 _udivdi3.o
00000000 l    df *ABS*	00000000 lib_a-printf.o
00000000 l    df *ABS*	00000000 lib_a-puts.o
00000000 l    df *ABS*	00000000 lib_a-wbuf.o
00000000 l    df *ABS*	00000000 lib_a-wsetup.o
00000000 l    df *ABS*	00000000 lib_a-fflush.o
00000000 l    df *ABS*	00000000 lib_a-findfp.o
201023b2 l     F .highcode	00000066 std
00000000 l    df *ABS*	00000000 lib_a-fwalk.o
00000000 l    df *ABS*	00000000 lib_a-lock.o
00000000 l    df *ABS*	00000000 lib_a-makebuf.o
00000000 l    df *ABS*	00000000 lib_a-nano-freer.o
00000000 l    df *ABS*	00000000 lib_a-nano-mallocr.o
20102784 l     F .highcode	00000054 sbrk_aligned
00000000 l    df *ABS*	00000000 lib_a-nano-vfprintf.o
201028da l     F .highcode	00000028 __sfputc_r
00000000 l    df *ABS*	00000000 lib_a-sbrkr.o
00000000 l    df *ABS*	00000000 lib_a-stdio.o
00000000 l    df *ABS*	00000000 lib_a-writer.o
00000000 l    df *ABS*	00000000 lib_a-closer.o
00000000 l    df *ABS*	00000000 lib_a-fstatr.o
00000000 l    df *ABS*	00000000 lib_a-isattyr.o
00000000 l    df *ABS*	00000000 lib_a-lseekr.o
00000000 l    df *ABS*	00000000 lib_a-memchr.o
00000000 l    df *ABS*	00000000 lib_a-mlock.o
00000000 l    df *ABS*	00000000 lib_a-nano-vfprintf_i.o
00000000 l    df *ABS*	00000000 lib_a-readr.o
00000000 l    df *ABS*	00000000 close.o
00000000 l    df *ABS*	00000000 fstat.o
00000000 l    df *ABS*	00000000 isatty.o
00000000 l    df *ABS*	00000000 lseek.o
00000000 l    df *ABS*	00000000 read.o
00000000 l    df *ABS*	00000000 lib_a-impure.o
20120180 l     O .data	00000060 impure_data
00000000 l    df *ABS*	00000000 ch32h417_exti.c
00000000 l    df *ABS*	00000000 core_riscv.c
20120200 g     O .data	00000004 JPEG_DVPDMAaddr1
201007f0  w      .highcode	00000000 TIM8_TRG_COM_IRQHandler
201016ae g     F .highcode	00000084 SCCB_WR_Byte
201007f0  w      .highcode	00000000 TIM8_CC_IRQHandler
201007f0  w      .highcode	00000000 USART_WKUP_IRQHandler
20120240 g     O .bss	00000004 href_cnt
20102d3e g     F .highcode	00000026 _isatty_r
20101f44 g     F .highcode	00000104 _puts_r
20102d64 g     F .highcode	0000002a _lseek_r
20101b0a g     F .highcode	00000032 OV2640_Speed_Set
20100a4c g     F .highcode	000001e8 GPIO_PinAFConfig
201007f0  w      .highcode	00000000 SPI4_IRQHandler
201007f0  w      .highcode	00000000 DFSDM0_IRQHandler
201017e0 g     F .highcode	0000004e SCCB_RD_Reg
20101f0a g     F .highcode	0000003a printf
201209e0 g       .data	00000000 __global_pointer$
2010025c g     F .highcode	00000028 .hidden __riscv_save_8
201007f0  w      .highcode	00000000 TIM1_CC_IRQHandler
20102c90 g     F .highcode	0000002e __sseek
20102480 g     F .highcode	00000068 __sinit
20102050 g     F .highcode	000000bc __swbuf_r
20100334 g     F .highcode	00000056 HardFault_Handler
201007f0  w      .highcode	00000000 TIM10_IRQHandler
20102422 g     F .highcode	00000046 __sfmoreglue
20102dae g     F .highcode	00000008 __malloc_unlock
201007f0  w      .highcode	00000000 IPC_CH2_Handler
201007f0  w      .highcode	00000000 USBPD_IRQHandler
201002a8 g     F .highcode	0000000c .hidden __riscv_restore_3
201007f0  w      .highcode	00000000 TIM6_IRQHandler
201007f0  w      .highcode	00000000 CAN3_RX1_IRQHandler
201007f0  w      .highcode	00000000 I3C_ER_IRQHandler
201007f0  w      .highcode	00000000 SDIO_IRQHandler
20100294 g     F .highcode	00000020 .hidden __riscv_restore_10
201007f0  w      .highcode	00000000 DMA2_Channel8_IRQHandler
20100332 g     F .highcode	00000002 NMI_Handler
201007f0  w      .highcode	00000000 CAN2_RX1_IRQHandler
201007f0  w      .highcode	00000000 HSEM_Handler
000033b0 g     O .rodata_flash	0000000e OV2640_JPEGRegTbl
2010025c g     F .highcode	00000028 .hidden __riscv_save_11
201007f0  w      .highcode	00000000 USBHS_IRQHandler
201007f0  w      .highcode	00000000 LPTIM2_IRQHandler
2010128c g     F .highcode	0000000a USART_GetFlagStatus
20102d16 g     F .highcode	00000028 _fstat_r
20120260 g     O .bss	00000004 errno
2012022c g       .bss	00000000 _sbss
00000800 g       *ABS*	00000000 __stack_size
2010131c g     F .highcode	0000006e USART_Printf_Init
201007f0  w      .highcode	00000000 USBFSWakeup_IRQHandler
20101a50 g     F .highcode	00000034 OV2640_JPEG_Mode
201007f0  w      .highcode	00000000 I2C3_ER_IRQHandler
201007f0  w      .highcode	00000000 USBFS_IRQHandler
20101652 g     F .highcode	00000028 SCCB_Stop
201002a8 g     F .highcode	0000000c .hidden __riscv_restore_2
20100f50 g     F .highcode	00000018 PWR_VIO18LevelCfg
2010182e g     F .highcode	0000016a DVP_GPIO_Init
201007f0  w      .highcode	00000000 USART8_IRQHandler
20102418 g     F .highcode	0000000a _cleanup_r
201007f0  w      .highcode	00000000 I2C2_EV_IRQHandler
201011b4 g     F .highcode	0000000e RCC_ClearFlag
20102048 g     F .highcode	00000008 puts
201007f0  w      .highcode	00000000 CAN1_RX0_IRQHandler
2010092c g     F .highcode	00000036 FLASH_BOOT_GetMode
201201e4 g     O .data	00000004 SystemCoreClock
201007f0  w      .highcode	00000000 CAN3_SCE_IRQHandler
20103172 g     F .highcode	0000000c _fstat
00000008 g       .init	00000000 _einit
20100254 g     F .highcode	00000030 .hidden __riscv_save_12
201007f0  w      .highcode	00000000 CAN2_SCE_IRQHandler
201007f0  w      .highcode	00000000 ADC1_2_IRQHandler
2010096c g     F .highcode	000000e0 GPIO_Init
201007f0  w      .highcode	00000000 Break_Point_Handler
201007f0  w      .highcode	00000000 IPC_CH0_Handler
20120244 g     O .bss	00000004 addr_cnt
20100294 g     F .highcode	00000020 .hidden __riscv_restore_11
2010179e g     F .highcode	00000042 SCCB_WR_Reg
201007f0  w      .highcode	00000000 SPI1_IRQHandler
201007f0  w      .highcode	00000000 USART5_IRQHandler
20101270 g     F .highcode	00000014 USART_Cmd
20102bf8 g     F .highcode	00000028 _sbrk_r
20100284 g     F .highcode	0000000c .hidden __riscv_save_1
20120230 g     O .bss	00000004 WFE_WkupSource
20100962 g     F .highcode	0000000a FLASH_GetUserOptionByte
201002a8 g     F .highcode	0000000c .hidden __riscv_restore_0
201007f0  w      .highcode	00000000 SysTick0_Handler
201007f0  w      .highcode	00000000 EXTI7_0_IRQHandler
2010313c g     F .highcode	0000002a _read_r
2010026a g     F .highcode	0000001a .hidden __riscv_save_7
201007f0  w      .highcode	00000000 CAN2_RX0_IRQHandler
2012023c g     O .bss	00000004 WFE_MASK
201007f0  w      .highcode	00000000 TIM8_UP_IRQHandler
201007f0  w      .highcode	00000000 Ecall_M_Mode_Handler
201007f0  w      .highcode	00000000 ECDC_IRQHandler
201007f0  w      .highcode	00000000 SDMMC_IRQHandler
2017f800 g       .stack	00000000 _heap_end
2010317e g     F .highcode	0000000c _isatty
20120254 g     O .bss	00000001 __lock___sinit_recursive_mutex
201012b8 g     F .highcode	00000032 Delay_Us
20120228 g     O .data	00000004 _global_impure_ptr
2010029e g     F .highcode	00000016 .hidden __riscv_restore_5
201007f0  w      .highcode	00000000 USART7_IRQHandler
201007f0  w      .highcode	00000000 DMA2_Channel2_IRQHandler
20101b70 g     F .highcode	0000039a .hidden __udivdi3
201007f0  w      .highcode	00000000 DMA1_Channel4_IRQHandler
20120220 g     O .data	00000004 JPEG_DVPDMAaddr0
201013c4 g     F .highcode	0000002a _sbrk
201007f0  w      .highcode	00000000 USART6_IRQHandler
20100f3c g     F .highcode	00000014 PWR_VIO18ModeCfg
201007f0  w      .highcode	00000000 CAN3_RX0_IRQHandler
201008c8 g     F .highcode	0000001c DVP_FIFO_ResetCmd
20101132 g     F .highcode	0000001c RCC_HB2PeriphClockCmd
201007f0  w      .highcode	00000000 HSADC_IRQHandler
2010029e g     F .highcode	00000016 .hidden __riscv_restore_6
201007f0  w      .highcode	00000000 USART3_IRQHandler
201007f0  w      .highcode	00000000 RTC_IRQHandler
20120264 g       .bss	00000000 _ebss
201007f0  w      .highcode	00000000 DMA1_Channel7_IRQHandler
201007f0  w      .highcode	00000000 CAN1_RX1_IRQHandler
20101296 g     F .highcode	00000022 Delay_Init
2010146e g     F .highcode	00000120 DVP_IRQHandler
20101186 g     F .highcode	0000002e RCC_GetFlagStatus
2012024c g     O .bss	00000001 __lock___malloc_recursive_mutex
201007f0  w      .highcode	00000000 USBSS_IRQHandler
20101998 g     F .highcode	000000b8 OV2640_Init
20100c34 g     F .highcode	00000226 GPIO_IPD_Unused
201007f0  w      .highcode	00000000 SWPMI_IRQHandler
201007f0  w      .highcode	00000000 USBPDWakeUp_IRQHandler
201007f0  w      .highcode	00000000 EXTI15_8_IRQHandler
201007f0  w      .highcode	00000000 TIM4_IRQHandler
2010025c g     F .highcode	00000028 .hidden __riscv_save_9
201007f0  w      .highcode	00000000 DMA2_Channel1_IRQHandler
201007f0  w      .highcode	00000000 SWPMI_WKUP_IRQHandler
00003634 g     O .rodata_flash	00000020 __sf_fake_stderr
2010026a g     F .highcode	0000001a .hidden __riscv_save_4
201008ac g     F .highcode	0000001c DVP_ReceiveCircuitResetCmd
201007f0  w      .highcode	00000000 I2C1_EV_IRQHandler
20101a84 g     F .highcode	0000001e OV2640_RGB565_Mode
201025fa g     F .highcode	00000002 __retarget_lock_release_recursive
201007f0  w      .highcode	00000000 USBSSWakeup_IRQHandler
201007f0  w      .highcode	00000000 USART4_IRQHandler
20100f68 g     F .highcode	000001ae RCC_GetClocksFreq
201007f0  w      .highcode	00000000 DMA1_Channel6_IRQHandler
20102902 g     F .highcode	00000040 __sfputs_r
201007f0  w      .highcode	00000000 DMA2_Channel4_IRQHandler
20102468 g     F .highcode	00000006 __sfp_lock_acquire
20102d8e g     F .highcode	00000018 memchr
201011c2 g     F .highcode	000000ae USART_Init
201026e6 g     F .highcode	0000009e _free_r
201007f0  w      .highcode	00000000 TIM3_IRQHandler
201007f0  w      .highcode	00000000 RCC_IRQHandler
20100922 g     F .highcode	0000000a DVP_ClearITPendingBit
20100284 g     F .highcode	0000000c .hidden __riscv_save_3
201007f0  w      .highcode	00000000 TIM1_TRG_COM_IRQHandler
201007f0  w      .highcode	00000000 DMA1_Channel1_IRQHandler
00000000 g       .init	00000000 _start
201007f0  w      .highcode	00000000 DMA2_Channel7_IRQHandler
20101116 g     F .highcode	0000001c RCC_HBPeriphClockCmd
2010318a g     F .highcode	0000000c _lseek
201031a4 g       .dtors	00000000 _highcode_vma_end1
201007f0  w      .highcode	00000000 QSPI1_IRQHandler
20100000 g       .highcode	00000000 _highcode_vma_start
2010167a g     F .highcode	00000034 SCCB_No_Ack
201007f0  w      .highcode	00000000 DMA1_Channel8_IRQHandler
201007f0  w      .highcode	00000000 IPC_CH3_Handler
201007f0  w      .highcode	00000000 I3C_EV_IRQHandler
20120248 g     O .bss	00000004 frame_cnt
201007f0  w      .highcode	00000000 I3C_WKUP_IRQHandler
201007f0  w      .highcode	00000000 TIM12_IRQHandler
201007f0  w      .highcode	00000000 TIM7_IRQHandler
20102cf0 g     F .highcode	00000026 _close_r
201007f0  w      .highcode	00000000 CAN2_TX_IRQHandler
20120100 g       .dalign	00000000 _data_vma
201007f0  w      .highcode	00000000 TIM5_IRQHandler
2010114e g     F .highcode	0000001c RCC_HB1PeriphClockCmd
201007f0  w      .highcode	00000000 I2C3_EV_IRQHandler
2010210c g     F .highcode	000000ee __swsetup_r
201007f0  w      .highcode	00000000 PIOC_IRQHandler
201024e8 g     F .highcode	000000a6 __sfp
201007f0  w      .highcode	00000000 TIM9_IRQHandler
2010247a g     F .highcode	00000006 __sinit_lock_release
201007f0  w      .highcode	00000000 LTDC_IRQHandler
201007f0  w      .highcode	00000000 SAI_IRQHandler
2010025c g     F .highcode	00000028 .hidden __riscv_save_10
20102c20 g     F .highcode	0000002a __sread
201007f0  w      .highcode	00000000 ETH_WKUP_IRQHandler
20102da6 g     F .highcode	00000008 __malloc_lock
2010029e g     F .highcode	00000016 .hidden __riscv_restore_4
20100294 g     F .highcode	00000020 .hidden __riscv_restore_8
2010232c g     F .highcode	00000086 _fflush_r
2010026a g     F .highcode	0000001a .hidden __riscv_save_6
20101b3c g     F .highcode	0000001a RGB565_Mode_Init
201007f0  w      .highcode	00000000 SPI2_IRQHandler
00003674 g     O .rodata_flash	00000020 __sf_fake_stdin
2012022c g     O .bss	00000004 HCLKClock
20100e90 g     F .highcode	000000ac PWR_EnterSTOPMode
201025f8 g     F .highcode	00000002 __retarget_lock_acquire_recursive
201007f0  w      .highcode	00000000 IPC_CH1_Handler
000037ac g       .highcodelalign1	00000000 _highcode_lma1
201002b4 g     F .highcode	00000010 memset
20100294 g     F .highcode	00000020 .hidden __riscv_restore_9
2010029e g     F .highcode	00000016 .hidden __riscv_restore_7
2010038a g     F .highcode	00000142 main
201007f0  w      .highcode	00000000 LPTIM1_WKUP_IRQHandler
201025f6 g     F .highcode	00000002 __retarget_lock_init_recursive
201031a4 g       .fini	00000000 _highcode_vma_start1
201007f0  w      .highcode	00000000 CAN1_TX_IRQHandler
20102cbe g     F .highcode	00000006 __sclose
201007f0  w      .highcode	00000000 DMA2_Channel5_IRQHandler
201027d8 g     F .highcode	00000102 _malloc_r
20100e5a g     F .highcode	00000028 HSEM_ITConfig
201007f0  w      .highcode	00000000 DMA1_Channel5_IRQHandler
201012ea g     F .highcode	00000032 Delay_Ms
201200e4 g       .loadcode	00000000 _loadcode_vma_end
201007f0  w      .highcode	00000000 QSPI2_IRQHandler
000000ec g       .highcodelalign	00000000 _highcode_lma
201004cc g     F .highcode	000001b2 SystemInit
2010158e g     F .highcode	00000070 Hardware
201007f0  w      .highcode	00000000 RNG_IRQHandler
20100808 g     F .highcode	0000006e DVP_Init
20101f0a g     F .highcode	0000003a iprintf
00003534 g     O .rodata_flash	00000100 .hidden __clz_tab
00000000 g       .init	00000000 _sinit
20100890 g     F .highcode	0000001c DVP_DMACmd
20102cc4 g     F .highcode	0000002c _write_r
201007f0  w      .highcode	00000000 DMA1_Channel3_IRQHandler
201007f0  w      .highcode	00000000 ETH_IRQHandler
20102db6 g     F .highcode	0000010a _printf_common
20120224 g     O .data	00000004 _impure_ptr
201007f0  w      .highcode	00000000 TIM1_UP_IRQHandler
201021fa g     F .highcode	00000132 __sflush_r
20100e82 g     F .highcode	0000000e HSEM_ClearFlag
201008e4 g     F .highcode	0000001c DVP_ITConfig
20100876 g     F .highcode	0000001a DVP_Cmd
2010162a g     F .highcode	00000028 SCCB_Start
201007f0  w      .highcode	00000000 WWDG_IRQHandler
20101b56 g     F .highcode	0000001a JPEG_Mode_Init
201007f0  w      .highcode	00000000 USBHSWakeup_IRQHandler
201007f0  w      .highcode	00000000 Ecall_U_Mode_Handler
201007f0  w      .highcode	00000000 I2C4_EV_IRQHandler
201007f0  w      .highcode	00000000 CAN3_TX_IRQHandler
201007f0  w      .highcode	00000000 DMA2_Channel6_IRQHandler
000033c0 g     O .rodata_flash	00000010 OV2640_YUV422RegTbl
201007f0  w      .highcode	00000000 TIM2_IRQHandler
20180000 g       .stack	00000000 _eusrstack
20100284 g     F .highcode	0000000c .hidden __riscv_save_2
201007f0  w      .highcode	00000000 SW_Handler
201201e8 g     O .data	00000004 SystemClock
201007f0  w      .highcode	00000000 TIM1_BRK_IRQHandler
201025fc g     F .highcode	00000058 __swhatbuf_r
201007f0  w      .highcode	00000000 GPHA_IRQHandler
20101284 g     F .highcode	00000008 USART_SendData
2010026a g     F .highcode	0000001a .hidden __riscv_save_5
2010138a g     F .highcode	0000003a _write
2012022c g       .data	00000000 _edata
20120000 g       .loadcode	00000000 _loadcode_vma_start
20120264 g       .bss	00000000 _end
201007f0  w      .highcode	00000000 LPTIM2_WKUP_IRQHandler
201031a4 g       .highcode	00000000 _highcode_vma_end
201007f0  w      .highcode	00000000 RTCAlarm_IRQHandler
20101aa2 g     F .highcode	00000068 OV2640_OutSize_Set
201007f0  w      .highcode	00000000 TIM11_IRQHandler
000037ac g       .dlalign	00000000 _data_lma
00003394 g     O .rodata_flash	0000001c OV2640_RGB565RegTbl
201007f0  w      .highcode	00000000 USART2_IRQHandler
20102c4a g     F .highcode	00000046 __swrite
00000008 g       .loadcodelalign	00000000 _loadcode_lma
201007f0  w      .highcode	00000000 UHSIF_IRQHandler
20102942 g     F .highcode	000002b6 _vfiprintf_r
2010258e g     F .highcode	00000068 _fwalk_reent
201007f2 g     F .highcode	00000016 DVP_DeInit
2010067e g     F .highcode	00000172 SystemAndCoreClockUpdate
201007f0  w      .highcode	00000000 I2C2_ER_IRQHandler
201007f0  w      .highcode	00000000 DMA1_Channel2_IRQHandler
2010246e g     F .highcode	00000006 __sfp_lock_release
00003654 g     O .rodata_flash	00000020 __sf_fake_stdout
20100290 g     F .highcode	00000024 .hidden __riscv_restore_12
201007f0  w      .highcode	00000000 TIM8_BRK_IRQHandler
20103196 g     F .highcode	0000000c _read
00003728  w      .text	00000000 handle_reset
201007f0  w      .highcode	00000000 CAN1_SCE_IRQHandler
20100284 g     F .highcode	0000000c .hidden __riscv_save_0
201007f0  w      .highcode	00000000 FLASH_IRQHandler
201007f0  w      .highcode	00000000 USART1_IRQHandler
20102654 g     F .highcode	00000092 __smakebuf_r
20102ec0 g     F .highcode	0000027c _printf_i
201007f0  w      .highcode	00000000 SPI3_IRQHandler
000033d0 g     O .rodata_flash	00000164 OV2640_InitRegTbl
20120258 g     O .bss	00000004 __malloc_sbrk_start
201015fe g     F .highcode	0000002c SCCB_GPIO_Init
201007f0  w      .highcode	00000000 I2C1_ER_IRQHandler
201007f0  w      .highcode	00000000 FMC_IRQHandler
201007f0  w      .highcode	00000000 SysTick1_Handler
20101732 g     F .highcode	0000006c SCCB_RD_Byte
2012025c g     O .bss	00000004 __malloc_free_list
20100900 g     F .highcode	00000022 DVP_GetITStatus
201002a8 g     F .highcode	0000000c .hidden __riscv_restore_1
201007f0  w      .highcode	00000000 LPTIM1_IRQHandler
201007f0  w      .highcode	00000000 DFSDM1_IRQHandler
20102942 g     F .highcode	000002b6 _vfprintf_r
201007f0  w      .highcode	00000000 I2C4_ER_IRQHandler
201007f0  w      .highcode	00000000 SERDES_IRQHandler
201007f0  w      .highcode	00000000 USBSS_LINK_IRQHandler
2010116a g     F .highcode	0000001c RCC_HBPeriphResetCmd
201013ee g     F .highcode	00000080 DVP_Function_Init
20120250 g     O .bss	00000001 __lock___sfp_recursive_mutex
20103166 g     F .highcode	0000000c _close
20102474 g     F .highcode	00000006 __sinit_lock_acquire
201007f0  w      .highcode	00000000 DMA2_Channel3_IRQHandler



Disassembly of section .init:

00000000 <_sinit>:
   0:	7280306f          	j	3728 <handle_reset>
   4:	0000                	unimp
	...

Disassembly of section .loadcode:

20120000 <_loadcode_vma_start>:
20120000:	400214b7          	lui	s1,0x40021
20120004:	40e00593          	li	a1,1038
20120008:	c48c                	sw	a1,8(s1)
2012000a:	0004a283          	lw	t0,0(s1) # 40021000 <_eusrstack+0x1fea1000>
2012000e:	01000337          	lui	t1,0x1000
20120012:	0062e2b3          	or	t0,t0,t1
20120016:	0054a023          	sw	t0,0(s1)
2012001a:	0004a383          	lw	t2,0(s1)
2012001e:	02000e37          	lui	t3,0x2000
20120022:	01c3f3b3          	and	t2,t2,t3
20120026:	fe038ae3          	beqz	t2,2012001a <_loadcode_vma_start+0x1a>
2012002a:	0084ae83          	lw	t4,8(s1)
2012002e:	80000f37          	lui	t5,0x80000
20120032:	01eeeeb3          	or	t4,t4,t5
20120036:	01d4a423          	sw	t4,8(s1)
2012003a:	4f89                	li	t6,2
2012003c:	01f4a223          	sw	t6,4(s1)
20120040:	0044a903          	lw	s2,4(s1)
20120044:	49a1                	li	s3,8
20120046:	01397933          	and	s2,s2,s3
2012004a:	fe090be3          	beqz	s2,20120040 <_loadcode_vma_start+0x40>
2012004e:	0ec00513          	li	a0,236
20120052:	fffe0597          	auipc	a1,0xfffe0
20120056:	fae58593          	addi	a1,a1,-82 # 20100000 <_highcode_vma_start>
2012005a:	fffe3617          	auipc	a2,0xfffe3
2012005e:	14a60613          	addi	a2,a2,330 # 201031a4 <_highcode_vma_end>
20120062:	00c5fa63          	bgeu	a1,a2,20120076 <_loadcode_vma_start+0x76>
20120066:	00052283          	lw	t0,0(a0)
2012006a:	0055a023          	sw	t0,0(a1)
2012006e:	0511                	addi	a0,a0,4
20120070:	0591                	addi	a1,a1,4
20120072:	fec5eae3          	bltu	a1,a2,20120066 <_loadcode_vma_start+0x66>
20120076:	dfee3517          	auipc	a0,0xdfee3
2012007a:	73650513          	addi	a0,a0,1846 # 37ac <_data_lma>
2012007e:	fffe3597          	auipc	a1,0xfffe3
20120082:	12658593          	addi	a1,a1,294 # 201031a4 <_highcode_vma_end>
20120086:	fffe3617          	auipc	a2,0xfffe3
2012008a:	11e60613          	addi	a2,a2,286 # 201031a4 <_highcode_vma_end>
2012008e:	00c5fa63          	bgeu	a1,a2,201200a2 <_loadcode_vma_start+0xa2>
20120092:	00052283          	lw	t0,0(a0)
20120096:	0055a023          	sw	t0,0(a1)
2012009a:	0511                	addi	a0,a0,4
2012009c:	0591                	addi	a1,a1,4
2012009e:	fec5eae3          	bltu	a1,a2,20120092 <_loadcode_vma_start+0x92>
201200a2:	dfee3517          	auipc	a0,0xdfee3
201200a6:	70a50513          	addi	a0,a0,1802 # 37ac <_data_lma>
201200aa:	00000597          	auipc	a1,0x0
201200ae:	05658593          	addi	a1,a1,86 # 20120100 <SERDESPLLMULTB>
201200b2:	84c18613          	addi	a2,gp,-1972 # 2012022c <HCLKClock>
201200b6:	00c5fa63          	bgeu	a1,a2,201200ca <_loadcode_vma_start+0xca>
201200ba:	00052283          	lw	t0,0(a0)
201200be:	0055a023          	sw	t0,0(a1)
201200c2:	0511                	addi	a0,a0,4
201200c4:	0591                	addi	a1,a1,4
201200c6:	fec5eae3          	bltu	a1,a2,201200ba <_loadcode_vma_start+0xba>
201200ca:	84c18513          	addi	a0,gp,-1972 # 2012022c <HCLKClock>
201200ce:	88418593          	addi	a1,gp,-1916 # 20120264 <_ebss>
201200d2:	00b57763          	bgeu	a0,a1,201200e0 <_loadcode_vma_start+0xe0>
201200d6:	00052023          	sw	zero,0(a0)
201200da:	0511                	addi	a0,a0,4
201200dc:	feb56de3          	bltu	a0,a1,201200d6 <_loadcode_vma_start+0xd6>
201200e0:	8082                	ret
	...

Disassembly of section .highcode:

20100000 <_highcode_vma_start>:
	...
20100008:	20100332          	.word	0x20100332
2010000c:	20100334          	.word	0x20100334
20100010:	00000000          	.word	0x00000000
20100014:	201007f0          	.word	0x201007f0
	...
20100020:	201007f0          	.word	0x201007f0
20100024:	201007f0          	.word	0x201007f0
	...
20100030:	201007f0          	.word	0x201007f0
20100034:	201007f0          	.word	0x201007f0
20100038:	201007f0          	.word	0x201007f0
2010003c:	00000000          	.word	0x00000000
20100040:	201007f0          	.word	0x201007f0
20100044:	201007f0          	.word	0x201007f0
20100048:	201007f0          	.word	0x201007f0
2010004c:	201007f0          	.word	0x201007f0
	...
20100070:	201007f0          	.word	0x201007f0
	...
20100080:	201007f0          	.word	0x201007f0
20100084:	201007f0          	.word	0x201007f0
20100088:	201007f0          	.word	0x201007f0
2010008c:	201007f0          	.word	0x201007f0
20100090:	201007f0          	.word	0x201007f0
20100094:	201007f0          	.word	0x201007f0
20100098:	201007f0          	.word	0x201007f0
2010009c:	201007f0          	.word	0x201007f0
201000a0:	201007f0          	.word	0x201007f0
201000a4:	201007f0          	.word	0x201007f0
201000a8:	201007f0          	.word	0x201007f0
201000ac:	201007f0          	.word	0x201007f0
201000b0:	201007f0          	.word	0x201007f0
201000b4:	201007f0          	.word	0x201007f0
201000b8:	201007f0          	.word	0x201007f0
201000bc:	201007f0          	.word	0x201007f0
201000c0:	201007f0          	.word	0x201007f0
201000c4:	201007f0          	.word	0x201007f0
201000c8:	201007f0          	.word	0x201007f0
201000cc:	201007f0          	.word	0x201007f0
201000d0:	201007f0          	.word	0x201007f0
201000d4:	201007f0          	.word	0x201007f0
201000d8:	201007f0          	.word	0x201007f0
201000dc:	201007f0          	.word	0x201007f0
201000e0:	201007f0          	.word	0x201007f0
201000e4:	201007f0          	.word	0x201007f0
201000e8:	201007f0          	.word	0x201007f0
201000ec:	201007f0          	.word	0x201007f0
201000f0:	201007f0          	.word	0x201007f0
201000f4:	201007f0          	.word	0x201007f0
201000f8:	201007f0          	.word	0x201007f0
201000fc:	201007f0          	.word	0x201007f0
20100100:	201007f0          	.word	0x201007f0
20100104:	201007f0          	.word	0x201007f0
20100108:	201007f0          	.word	0x201007f0
2010010c:	201007f0          	.word	0x201007f0
20100110:	201007f0          	.word	0x201007f0
20100114:	201007f0          	.word	0x201007f0
20100118:	201007f0          	.word	0x201007f0
2010011c:	201007f0          	.word	0x201007f0
20100120:	201007f0          	.word	0x201007f0
20100124:	201007f0          	.word	0x201007f0
20100128:	201007f0          	.word	0x201007f0
2010012c:	201007f0          	.word	0x201007f0
20100130:	201007f0          	.word	0x201007f0
20100134:	201007f0          	.word	0x201007f0
20100138:	201007f0          	.word	0x201007f0
2010013c:	201007f0          	.word	0x201007f0
20100140:	201007f0          	.word	0x201007f0
20100144:	201007f0          	.word	0x201007f0
20100148:	201007f0          	.word	0x201007f0
2010014c:	201007f0          	.word	0x201007f0
20100150:	201007f0          	.word	0x201007f0
20100154:	201007f0          	.word	0x201007f0
20100158:	201007f0          	.word	0x201007f0
2010015c:	201007f0          	.word	0x201007f0
20100160:	201007f0          	.word	0x201007f0
20100164:	201007f0          	.word	0x201007f0
20100168:	201007f0          	.word	0x201007f0
2010016c:	201007f0          	.word	0x201007f0
20100170:	201007f0          	.word	0x201007f0
20100174:	201007f0          	.word	0x201007f0
20100178:	201007f0          	.word	0x201007f0
2010017c:	201007f0          	.word	0x201007f0
20100180:	201007f0          	.word	0x201007f0
20100184:	201007f0          	.word	0x201007f0
20100188:	201007f0          	.word	0x201007f0
2010018c:	201007f0          	.word	0x201007f0
20100190:	201007f0          	.word	0x201007f0
20100194:	201007f0          	.word	0x201007f0
20100198:	201007f0          	.word	0x201007f0
2010019c:	201007f0          	.word	0x201007f0
201001a0:	201007f0          	.word	0x201007f0
201001a4:	201007f0          	.word	0x201007f0
201001a8:	201007f0          	.word	0x201007f0
201001ac:	201007f0          	.word	0x201007f0
201001b0:	201007f0          	.word	0x201007f0
201001b4:	201007f0          	.word	0x201007f0
201001b8:	201007f0          	.word	0x201007f0
201001bc:	201007f0          	.word	0x201007f0
201001c0:	201007f0          	.word	0x201007f0
201001c4:	201007f0          	.word	0x201007f0
201001c8:	201007f0          	.word	0x201007f0
201001cc:	201007f0          	.word	0x201007f0
201001d0:	201007f0          	.word	0x201007f0
201001d4:	201007f0          	.word	0x201007f0
201001d8:	201007f0          	.word	0x201007f0
201001dc:	201007f0          	.word	0x201007f0
201001e0:	2010146e          	.word	0x2010146e
201001e4:	201007f0          	.word	0x201007f0
201001e8:	201007f0          	.word	0x201007f0
201001ec:	201007f0          	.word	0x201007f0
201001f0:	201007f0          	.word	0x201007f0
201001f4:	201007f0          	.word	0x201007f0
201001f8:	00000000          	.word	0x00000000
201001fc:	201007f0          	.word	0x201007f0
20100200:	201007f0          	.word	0x201007f0
	...
2010020c:	201007f0          	.word	0x201007f0
	...
20100218:	201007f0          	.word	0x201007f0
2010021c:	201007f0          	.word	0x201007f0
20100220:	201007f0          	.word	0x201007f0
20100224:	201007f0          	.word	0x201007f0
20100228:	201007f0          	.word	0x201007f0
2010022c:	201007f0          	.word	0x201007f0
20100230:	201007f0          	.word	0x201007f0
20100234:	201007f0          	.word	0x201007f0
20100238:	201007f0          	.word	0x201007f0
2010023c:	201007f0          	.word	0x201007f0
20100240:	201007f0          	.word	0x201007f0
20100244:	201007f0          	.word	0x201007f0
20100248:	201007f0          	.word	0x201007f0
2010024c:	201007f0          	.word	0x201007f0
20100250:	201007f0          	.word	0x201007f0

20100254 <__riscv_save_12>:
20100254:	7139                	addi	sp,sp,-64
20100256:	4301                	li	t1,0
20100258:	c66e                	sw	s11,12(sp)
2010025a:	a019                	j	20100260 <__riscv_save_10+0x4>

2010025c <__riscv_save_10>:
2010025c:	7139                	addi	sp,sp,-64
2010025e:	5341                	li	t1,-16
20100260:	c86a                	sw	s10,16(sp)
20100262:	ca66                	sw	s9,20(sp)
20100264:	cc62                	sw	s8,24(sp)
20100266:	ce5e                	sw	s7,28(sp)
20100268:	a019                	j	2010026e <__riscv_save_4+0x4>

2010026a <__riscv_save_4>:
2010026a:	7139                	addi	sp,sp,-64
2010026c:	5301                	li	t1,-32
2010026e:	d05a                	sw	s6,32(sp)
20100270:	d256                	sw	s5,36(sp)
20100272:	d452                	sw	s4,40(sp)
20100274:	d64e                	sw	s3,44(sp)
20100276:	d84a                	sw	s2,48(sp)
20100278:	da26                	sw	s1,52(sp)
2010027a:	dc22                	sw	s0,56(sp)
2010027c:	de06                	sw	ra,60(sp)
2010027e:	40610133          	sub	sp,sp,t1
20100282:	8282                	jr	t0

20100284 <__riscv_save_0>:
20100284:	1141                	addi	sp,sp,-16
20100286:	c04a                	sw	s2,0(sp)
20100288:	c226                	sw	s1,4(sp)
2010028a:	c422                	sw	s0,8(sp)
2010028c:	c606                	sw	ra,12(sp)
2010028e:	8282                	jr	t0

20100290 <__riscv_restore_12>:
20100290:	4db2                	lw	s11,12(sp)
20100292:	0141                	addi	sp,sp,16

20100294 <__riscv_restore_10>:
20100294:	4d02                	lw	s10,0(sp)
20100296:	4c92                	lw	s9,4(sp)
20100298:	4c22                	lw	s8,8(sp)
2010029a:	4bb2                	lw	s7,12(sp)
2010029c:	0141                	addi	sp,sp,16

2010029e <__riscv_restore_4>:
2010029e:	4b02                	lw	s6,0(sp)
201002a0:	4a92                	lw	s5,4(sp)
201002a2:	4a22                	lw	s4,8(sp)
201002a4:	49b2                	lw	s3,12(sp)
201002a6:	0141                	addi	sp,sp,16

201002a8 <__riscv_restore_0>:
201002a8:	4902                	lw	s2,0(sp)
201002aa:	4492                	lw	s1,4(sp)
201002ac:	4422                	lw	s0,8(sp)
201002ae:	40b2                	lw	ra,12(sp)
201002b0:	0141                	addi	sp,sp,16
201002b2:	8082                	ret

201002b4 <memset>:
201002b4:	832a                	mv	t1,a0
201002b6:	c611                	beqz	a2,201002c2 <memset+0xe>
201002b8:	00b30023          	sb	a1,0(t1) # 1000000 <_data_lma+0xffc854>
201002bc:	167d                	addi	a2,a2,-1
201002be:	0305                	addi	t1,t1,1
201002c0:	fe65                	bnez	a2,201002b8 <memset+0x4>
201002c2:	8082                	ret

201002c4 <dbg_putc>:
201002c4:	fc1ff2ef          	jal	t0,20100284 <__riscv_save_0>
201002c8:	400144b7          	lui	s1,0x40014
201002cc:	842a                	mv	s0,a0
201002ce:	80048913          	addi	s2,s1,-2048 # 40013800 <_eusrstack+0x1fe93800>
201002d2:	04000593          	li	a1,64
201002d6:	854a                	mv	a0,s2
201002d8:	7b5000ef          	jal	ra,2010128c <USART_GetFlagStatus>
201002dc:	d97d                	beqz	a0,201002d2 <dbg_putc+0xe>
201002de:	80048513          	addi	a0,s1,-2048
201002e2:	080445b3          	zext.h	a1,s0
201002e6:	79f000ef          	jal	ra,20101284 <USART_SendData>
201002ea:	bf7d                	j	201002a8 <__riscv_restore_0>

201002ec <dbg_puts>:
201002ec:	f99ff2ef          	jal	t0,20100284 <__riscv_save_0>
201002f0:	842a                	mv	s0,a0
201002f2:	00040503          	lb	a0,0(s0)
201002f6:	e111                	bnez	a0,201002fa <dbg_puts+0xe>
201002f8:	bf45                	j	201002a8 <__riscv_restore_0>
201002fa:	0405                	addi	s0,s0,1
201002fc:	37e1                	jal	201002c4 <dbg_putc>
201002fe:	bfd5                	j	201002f2 <dbg_puts+0x6>

20100300 <dbg_hex>:
20100300:	f6bff2ef          	jal	t0,2010026a <__riscv_save_4>
20100304:	84aa                	mv	s1,a0
20100306:	650d                	lui	a0,0x3
20100308:	29050513          	addi	a0,a0,656 # 3290 <__stack_size+0x2a90>
2010030c:	37c5                	jal	201002ec <dbg_puts>
2010030e:	4471                	li	s0,28
20100310:	49a5                	li	s3,9
20100312:	5971                	li	s2,-4
20100314:	0084d7b3          	srl	a5,s1,s0
20100318:	00f7f713          	andi	a4,a5,15
2010031c:	03770513          	addi	a0,a4,55
20100320:	00e9e463          	bltu	s3,a4,20100328 <dbg_hex+0x28>
20100324:	03070513          	addi	a0,a4,48
20100328:	1471                	addi	s0,s0,-4
2010032a:	3f69                	jal	201002c4 <dbg_putc>
2010032c:	ff2414e3          	bne	s0,s2,20100314 <dbg_hex+0x14>
20100330:	b7bd                	j	2010029e <__riscv_restore_4>

20100332 <NMI_Handler>:
20100332:	a001                	j	20100332 <NMI_Handler>

20100334 <HardFault_Handler>:
20100334:	1141                	addi	sp,sp,-16
20100336:	c622                	sw	s0,12(sp)
20100338:	c426                	sw	s1,8(sp)
2010033a:	c24a                	sw	s2,4(sp)
2010033c:	34202973          	csrr	s2,mcause
20100340:	341024f3          	csrr	s1,mepc
20100344:	34302473          	csrr	s0,mtval
20100348:	650d                	lui	a0,0x3
2010034a:	29450513          	addi	a0,a0,660 # 3294 <__stack_size+0x2a94>
2010034e:	3f79                	jal	201002ec <dbg_puts>
20100350:	854a                	mv	a0,s2
20100352:	377d                	jal	20100300 <dbg_hex>
20100354:	650d                	lui	a0,0x3
20100356:	2a850513          	addi	a0,a0,680 # 32a8 <__stack_size+0x2aa8>
2010035a:	3f49                	jal	201002ec <dbg_puts>
2010035c:	8526                	mv	a0,s1
2010035e:	374d                	jal	20100300 <dbg_hex>
20100360:	650d                	lui	a0,0x3
20100362:	2b050513          	addi	a0,a0,688 # 32b0 <__stack_size+0x2ab0>
20100366:	3759                	jal	201002ec <dbg_puts>
20100368:	8522                	mv	a0,s0
2010036a:	3f59                	jal	20100300 <dbg_hex>
2010036c:	650d                	lui	a0,0x3
2010036e:	34850513          	addi	a0,a0,840 # 3348 <__stack_size+0x2b48>
20100372:	3fad                	jal	201002ec <dbg_puts>
20100374:	4529                	li	a0,10
20100376:	775000ef          	jal	ra,201012ea <Delay_Ms>
2010037a:	beef07b7          	lui	a5,0xbeef0
2010037e:	e000e737          	lui	a4,0xe000e
20100382:	08078793          	addi	a5,a5,128 # beef0080 <_eusrstack+0x9ed70080>
20100386:	c73c                	sw	a5,72(a4)
20100388:	a001                	j	20100388 <HardFault_Handler+0x54>

2010038a <main>:
2010038a:	efbff2ef          	jal	t0,20100284 <__riscv_save_0>
2010038e:	1141                	addi	sp,sp,-16
20100390:	2a35                	jal	201004cc <SystemInit>
20100392:	24f5                	jal	2010067e <SystemAndCoreClockUpdate>
20100394:	703000ef          	jal	ra,20101296 <Delay_Init>
20100398:	00071537          	lui	a0,0x71
2010039c:	80050513          	addi	a0,a0,-2048 # 70800 <_data_lma+0x6d054>
201003a0:	77d000ef          	jal	ra,2010131c <USART_Printf_Init>
201003a4:	3e800513          	li	a0,1000
201003a8:	743000ef          	jal	ra,201012ea <Delay_Ms>
201003ac:	07d00513          	li	a0,125
201003b0:	5d7000ef          	jal	ra,20101186 <RCC_GetFlagStatus>
201003b4:	0e051863          	bnez	a0,201004a4 <main+0x11a>
201003b8:	07e00513          	li	a0,126
201003bc:	5cb000ef          	jal	ra,20101186 <RCC_GetFlagStatus>
201003c0:	0e051663          	bnez	a0,201004ac <main+0x122>
201003c4:	07c00513          	li	a0,124
201003c8:	5bf000ef          	jal	ra,20101186 <RCC_GetFlagStatus>
201003cc:	0e051463          	bnez	a0,201004b4 <main+0x12a>
201003d0:	07b00513          	li	a0,123
201003d4:	5b3000ef          	jal	ra,20101186 <RCC_GetFlagStatus>
201003d8:	0e051263          	bnez	a0,201004bc <main+0x132>
201003dc:	07a00513          	li	a0,122
201003e0:	5a7000ef          	jal	ra,20101186 <RCC_GetFlagStatus>
201003e4:	0e051063          	bnez	a0,201004c4 <main+0x13a>
201003e8:	658d                	lui	a1,0x3
201003ea:	30058593          	addi	a1,a1,768 # 3300 <__stack_size+0x2b00>
201003ee:	c62e                	sw	a1,12(sp)
201003f0:	5c5000ef          	jal	ra,201011b4 <RCC_ClearFlag>
201003f4:	45b2                	lw	a1,12(sp)
201003f6:	650d                	lui	a0,0x3
201003f8:	31850513          	addi	a0,a0,792 # 3318 <__stack_size+0x2b18>
201003fc:	30f010ef          	jal	ra,20101f0a <iprintf>
20100400:	201207b7          	lui	a5,0x20120
20100404:	1e87a583          	lw	a1,488(a5) # 201201e8 <SystemClock>
20100408:	650d                	lui	a0,0x3
2010040a:	32450513          	addi	a0,a0,804 # 3324 <__stack_size+0x2b24>
2010040e:	2fd010ef          	jal	ra,20101f0a <iprintf>
20100412:	201207b7          	lui	a5,0x20120
20100416:	1e47a583          	lw	a1,484(a5) # 201201e4 <SystemCoreClock>
2010041a:	650d                	lui	a0,0x3
2010041c:	33450513          	addi	a0,a0,820 # 3334 <__stack_size+0x2b34>
20100420:	2eb010ef          	jal	ra,20101f0a <iprintf>
20100424:	1f400513          	li	a0,500
20100428:	6c3000ef          	jal	ra,201012ea <Delay_Ms>
2010042c:	4585                	li	a1,1
2010042e:	10000537          	lui	a0,0x10000
20100432:	51d000ef          	jal	ra,2010114e <RCC_HB1PeriphClockCmd>
20100436:	20000513          	li	a0,512
2010043a:	303000ef          	jal	ra,20100f3c <PWR_VIO18ModeCfg>
2010043e:	6505                	lui	a0,0x1
20100440:	c0050513          	addi	a0,a0,-1024 # c00 <__stack_size+0x400>
20100444:	30d000ef          	jal	ra,20100f50 <PWR_VIO18LevelCfg>
20100448:	00040737          	lui	a4,0x40
2010044c:	e000e7b7          	lui	a5,0xe000e
20100450:	e000f437          	lui	s0,0xe000f
20100454:	72e7a223          	sw	a4,1828(a5) # e000e724 <_eusrstack+0xbfe8e724>
20100458:	d0040413          	addi	s0,s0,-768 # e000ed00 <_eusrstack+0xbfe8ed00>
2010045c:	481c                	lw	a5,16(s0)
2010045e:	4585                	li	a1,1
20100460:	4501                	li	a0,0
20100462:	0207e793          	ori	a5,a5,32
20100466:	c81c                	sw	a5,16(s0)
20100468:	1f3000ef          	jal	ra,20100e5a <HSEM_ITConfig>
2010046c:	481c                	lw	a5,16(s0)
2010046e:	4589                	li	a1,2
20100470:	4501                	li	a0,0
20100472:	0107e793          	ori	a5,a5,16
20100476:	c81c                	sw	a5,16(s0)
20100478:	219000ef          	jal	ra,20100e90 <PWR_EnterSTOPMode>
2010047c:	4501                	li	a0,0
2010047e:	205000ef          	jal	ra,20100e82 <HSEM_ClearFlag>
20100482:	650d                	lui	a0,0x3
20100484:	34c50513          	addi	a0,a0,844 # 334c <__stack_size+0x2b4c>
20100488:	3c1010ef          	jal	ra,20102048 <puts>
2010048c:	102010ef          	jal	ra,2010158e <Hardware>
20100490:	640d                	lui	s0,0x3
20100492:	35c40513          	addi	a0,s0,860 # 335c <__stack_size+0x2b5c>
20100496:	3b3010ef          	jal	ra,20102048 <puts>
2010049a:	3e800513          	li	a0,1000
2010049e:	64d000ef          	jal	ra,201012ea <Delay_Ms>
201004a2:	bfc5                	j	20100492 <main+0x108>
201004a4:	658d                	lui	a1,0x3
201004a6:	2b858593          	addi	a1,a1,696 # 32b8 <__stack_size+0x2ab8>
201004aa:	b791                	j	201003ee <main+0x64>
201004ac:	658d                	lui	a1,0x3
201004ae:	2c858593          	addi	a1,a1,712 # 32c8 <__stack_size+0x2ac8>
201004b2:	bf35                	j	201003ee <main+0x64>
201004b4:	658d                	lui	a1,0x3
201004b6:	2e058593          	addi	a1,a1,736 # 32e0 <__stack_size+0x2ae0>
201004ba:	bf15                	j	201003ee <main+0x64>
201004bc:	658d                	lui	a1,0x3
201004be:	2f058593          	addi	a1,a1,752 # 32f0 <__stack_size+0x2af0>
201004c2:	b735                	j	201003ee <main+0x64>
201004c4:	658d                	lui	a1,0x3
201004c6:	30858593          	addi	a1,a1,776 # 3308 <__stack_size+0x2b08>
201004ca:	b715                	j	201003ee <main+0x64>

201004cc <SystemInit>:
201004cc:	db9ff2ef          	jal	t0,20100284 <__riscv_save_0>
201004d0:	400217b7          	lui	a5,0x40021
201004d4:	4398                	lw	a4,0(a5)
201004d6:	305c06b7          	lui	a3,0x305c0
201004da:	1141                	addi	sp,sp,-16
201004dc:	00176713          	ori	a4,a4,1
201004e0:	c398                	sw	a4,0(a5)
201004e2:	43d8                	lw	a4,4(a5)
201004e4:	40021437          	lui	s0,0x40021
201004e8:	8f75                	and	a4,a4,a3
201004ea:	c3d8                	sw	a4,4(a5)
201004ec:	405c                	lw	a5,4(s0)
201004ee:	8bb1                	andi	a5,a5,12
201004f0:	fff5                	bnez	a5,201004ec <SystemInit+0x20>
201004f2:	405c                	lw	a5,4(s0)
201004f4:	6aa70737          	lui	a4,0x6aa70
201004f8:	177d                	addi	a4,a4,-1 # 6aa6ffff <_eusrstack+0x4a8effff>
201004fa:	49679793          	bclri	a5,a5,0x16
201004fe:	c05c                	sw	a5,4(s0)
20100500:	441c                	lw	a5,8(s0)
20100502:	49f79793          	bclri	a5,a5,0x1f
20100506:	c41c                	sw	a5,8(s0)
20100508:	401c                	lw	a5,0(s0)
2010050a:	8ff9                	and	a5,a5,a4
2010050c:	c01c                	sw	a5,0(s0)
2010050e:	401c                	lw	a5,0(s0)
20100510:	0fffc737          	lui	a4,0xfffc
20100514:	49279793          	bclri	a5,a5,0x12
20100518:	c01c                	sw	a5,0(s0)
2010051a:	441c                	lw	a5,8(s0)
2010051c:	8ff9                	and	a5,a5,a4
2010051e:	c41c                	sw	a5,8(s0)
20100520:	441c                	lw	a5,8(s0)
20100522:	0c600737          	lui	a4,0xc600
20100526:	0047e793          	ori	a5,a5,4
2010052a:	c41c                	sw	a5,8(s0)
2010052c:	00ff07b7          	lui	a5,0xff0
20100530:	c45c                	sw	a5,12(s0)
20100532:	581c                	lw	a5,48(s0)
20100534:	8ff9                	and	a5,a5,a4
20100536:	d81c                	sw	a5,48(s0)
20100538:	585c                	lw	a5,52(s0)
2010053a:	fff0e737          	lui	a4,0xfff0e
2010053e:	08070713          	addi	a4,a4,128 # fff0e080 <_eusrstack+0xdfd8e080>
20100542:	8ff9                	and	a5,a5,a4
20100544:	d85c                	sw	a5,52(s0)
20100546:	585c                	lw	a5,52(s0)
20100548:	00080737          	lui	a4,0x80
2010054c:	02070713          	addi	a4,a4,32 # 80020 <_data_lma+0x7c874>
20100550:	8fd9                	or	a5,a5,a4
20100552:	d85c                	sw	a5,52(s0)
20100554:	25c5                	jal	20100c34 <GPIO_IPD_Unused>
20100556:	c202                	sw	zero,4(sp)
20100558:	c402                	sw	zero,8(sp)
2010055a:	c602                	sw	zero,12(sp)
2010055c:	401c                	lw	a5,0(s0)
2010055e:	400216b7          	lui	a3,0x40021
20100562:	00020637          	lui	a2,0x20
20100566:	29079793          	bseti	a5,a5,0x10
2010056a:	01000737          	lui	a4,0x1000
2010056e:	c01c                	sw	a5,0(s0)
20100570:	429c                	lw	a5,0(a3)
20100572:	8ff1                	and	a5,a5,a2
20100574:	c43e                	sw	a5,8(sp)
20100576:	4792                	lw	a5,4(sp)
20100578:	0785                	addi	a5,a5,1 # ff0001 <_data_lma+0xfec855>
2010057a:	c23e                	sw	a5,4(sp)
2010057c:	47a2                	lw	a5,8(sp)
2010057e:	e781                	bnez	a5,20100586 <SystemInit+0xba>
20100580:	4792                	lw	a5,4(sp)
20100582:	fee797e3          	bne	a5,a4,20100570 <SystemInit+0xa4>
20100586:	400217b7          	lui	a5,0x40021
2010058a:	439c                	lw	a5,0(a5)
2010058c:	00020737          	lui	a4,0x20
20100590:	8ff9                	and	a5,a5,a4
20100592:	c7e5                	beqz	a5,2010067a <SystemInit+0x1ae>
20100594:	4785                	li	a5,1
20100596:	c43e                	sw	a5,8(sp)
20100598:	4722                	lw	a4,8(sp)
2010059a:	4785                	li	a5,1
2010059c:	0cf71d63          	bne	a4,a5,20100676 <SystemInit+0x1aa>
201005a0:	400217b7          	lui	a5,0x40021
201005a4:	4798                	lw	a4,8(a5)
201005a6:	76f1                	lui	a3,0xffffc
201005a8:	0ff68693          	addi	a3,a3,255 # ffffc0ff <_eusrstack+0xdfe7c0ff>
201005ac:	9b01                	andi	a4,a4,-32
201005ae:	c798                	sw	a4,8(a5)
201005b0:	4798                	lw	a4,8(a5)
201005b2:	01076713          	ori	a4,a4,16
201005b6:	c798                	sw	a4,8(a5)
201005b8:	4798                	lw	a4,8(a5)
201005ba:	8f75                	and	a4,a4,a3
201005bc:	c798                	sw	a4,8(a5)
201005be:	4798                	lw	a4,8(a5)
201005c0:	02000693          	li	a3,32
201005c4:	c798                	sw	a4,8(a5)
201005c6:	4798                	lw	a4,8(a5)
201005c8:	f1f77713          	andi	a4,a4,-225
201005cc:	c798                	sw	a4,8(a5)
201005ce:	4798                	lw	a4,8(a5)
201005d0:	02076713          	ori	a4,a4,32
201005d4:	c798                	sw	a4,8(a5)
201005d6:	4798                	lw	a4,8(a5)
201005d8:	0e077713          	andi	a4,a4,224
201005dc:	fed71de3          	bne	a4,a3,201005d6 <SystemInit+0x10a>
201005e0:	4398                	lw	a4,0(a5)
201005e2:	020006b7          	lui	a3,0x2000
201005e6:	29871713          	bseti	a4,a4,0x18
201005ea:	c398                	sw	a4,0(a5)
201005ec:	400217b7          	lui	a5,0x40021
201005f0:	4398                	lw	a4,0(a5)
201005f2:	8f75                	and	a4,a4,a3
201005f4:	df75                	beqz	a4,201005f0 <SystemInit+0x124>
201005f6:	4798                	lw	a4,8(a5)
201005f8:	900006b7          	lui	a3,0x90000
201005fc:	16fd                	addi	a3,a3,-1 # 8fffffff <_eusrstack+0x6fe7ffff>
201005fe:	49f71713          	bclri	a4,a4,0x1f
20100602:	c798                	sw	a4,8(a5)
20100604:	4798                	lw	a4,8(a5)
20100606:	8f75                	and	a4,a4,a3
20100608:	c798                	sw	a4,8(a5)
2010060a:	700006b7          	lui	a3,0x70000
2010060e:	400217b7          	lui	a5,0x40021
20100612:	4798                	lw	a4,8(a5)
20100614:	8f75                	and	a4,a4,a3
20100616:	ff75                	bnez	a4,20100612 <SystemInit+0x146>
20100618:	43d8                	lw	a4,4(a5)
2010061a:	fffd06b7          	lui	a3,0xfffd0
2010061e:	16fd                	addi	a3,a3,-1 # fffcffff <_eusrstack+0xdfe4ffff>
20100620:	f0f77713          	andi	a4,a4,-241
20100624:	c3d8                	sw	a4,4(a5)
20100626:	43d8                	lw	a4,4(a5)
20100628:	c3d8                	sw	a4,4(a5)
2010062a:	43d8                	lw	a4,4(a5)
2010062c:	8f75                	and	a4,a4,a3
2010062e:	c3d8                	sw	a4,4(a5)
20100630:	43d8                	lw	a4,4(a5)
20100632:	400226b7          	lui	a3,0x40022
20100636:	29171713          	bseti	a4,a4,0x11
2010063a:	c3d8                	sw	a4,4(a5)
2010063c:	4298                	lw	a4,0(a3)
2010063e:	c63a                	sw	a4,12(sp)
20100640:	4732                	lw	a4,12(sp)
20100642:	9b71                	andi	a4,a4,-4
20100644:	c63a                	sw	a4,12(sp)
20100646:	4732                	lw	a4,12(sp)
20100648:	00176713          	ori	a4,a4,1
2010064c:	c63a                	sw	a4,12(sp)
2010064e:	4732                	lw	a4,12(sp)
20100650:	c298                	sw	a4,0(a3)
20100652:	4798                	lw	a4,8(a5)
20100654:	400216b7          	lui	a3,0x40021
20100658:	29f71713          	bseti	a4,a4,0x1f
2010065c:	c798                	sw	a4,8(a5)
2010065e:	43d8                	lw	a4,4(a5)
20100660:	9b71                	andi	a4,a4,-4
20100662:	c3d8                	sw	a4,4(a5)
20100664:	43d8                	lw	a4,4(a5)
20100666:	00276713          	ori	a4,a4,2
2010066a:	c3d8                	sw	a4,4(a5)
2010066c:	4721                	li	a4,8
2010066e:	42dc                	lw	a5,4(a3)
20100670:	8bb1                	andi	a5,a5,12
20100672:	fee79ee3          	bne	a5,a4,2010066e <SystemInit+0x1a2>
20100676:	0141                	addi	sp,sp,16
20100678:	b905                	j	201002a8 <__riscv_restore_0>
2010067a:	c402                	sw	zero,8(sp)
2010067c:	bf31                	j	20100598 <SystemInit+0xcc>

2010067e <SystemAndCoreClockUpdate>:
2010067e:	400217b7          	lui	a5,0x40021
20100682:	43d4                	lw	a3,4(a5)
20100684:	4798                	lw	a4,8(a5)
20100686:	4621                	li	a2,8
20100688:	8ab1                	andi	a3,a3,12
2010068a:	02c69463          	bne	a3,a2,201006b2 <SystemAndCoreClockUpdate+0x34>
2010068e:	700006b7          	lui	a3,0x70000
20100692:	8f75                	and	a4,a4,a3
20100694:	50000637          	lui	a2,0x50000
20100698:	14c70763          	beq	a4,a2,201007e6 <SystemAndCoreClockUpdate+0x168>
2010069c:	02e66063          	bltu	a2,a4,201006bc <SystemAndCoreClockUpdate+0x3e>
201006a0:	c71d                	beqz	a4,201006ce <SystemAndCoreClockUpdate+0x50>
201006a2:	1c9c47b7          	lui	a5,0x1c9c4
201006a6:	400006b7          	lui	a3,0x40000
201006aa:	80078793          	addi	a5,a5,-2048 # 1c9c3800 <_data_lma+0x1c9c0054>
201006ae:	06d70763          	beq	a4,a3,2010071c <SystemAndCoreClockUpdate+0x9e>
201006b2:	017d87b7          	lui	a5,0x17d8
201006b6:	84078793          	addi	a5,a5,-1984 # 17d7840 <_data_lma+0x17d4094>
201006ba:	a08d                	j	2010071c <SystemAndCoreClockUpdate+0x9e>
201006bc:	60000637          	lui	a2,0x60000
201006c0:	10c70463          	beq	a4,a2,201007c8 <SystemAndCoreClockUpdate+0x14a>
201006c4:	077367b7          	lui	a5,0x7736
201006c8:	94078793          	addi	a5,a5,-1728 # 7735940 <_data_lma+0x7732194>
201006cc:	b7cd                	j	201006ae <SystemAndCoreClockUpdate+0x30>
201006ce:	4790                	lw	a2,8(a5)
201006d0:	4794                	lw	a3,8(a5)
201006d2:	4798                	lw	a4,8(a5)
201006d4:	0a000593          	li	a1,160
201006d8:	0e06f693          	andi	a3,a3,224
201006dc:	8321                	srli	a4,a4,0x8
201006de:	03f77713          	andi	a4,a4,63
201006e2:	8a7d                	andi	a2,a2,31
201006e4:	0705                	addi	a4,a4,1 # 20001 <_data_lma+0x1c855>
201006e6:	08b69663          	bne	a3,a1,20100772 <SystemAndCoreClockUpdate+0xf4>
201006ea:	1dcd67b7          	lui	a5,0x1dcd6
201006ee:	50078793          	addi	a5,a5,1280 # 1dcd6500 <_data_lma+0x1dcd2d54>
201006f2:	02e7d733          	divu	a4,a5,a4
201006f6:	201207b7          	lui	a5,0x20120
201006fa:	12078793          	addi	a5,a5,288 # 20120120 <PLLMULTB>
201006fe:	97b2                	add	a5,a5,a2
20100700:	239c                	lbu	a5,0(a5)
20100702:	4691                	li	a3,4
20100704:	02e787b3          	mul	a5,a5,a4
20100708:	00d60963          	beq	a2,a3,2010071a <SystemAndCoreClockUpdate+0x9c>
2010070c:	6685                	lui	a3,0x1
2010070e:	54068693          	addi	a3,a3,1344 # 1540 <__stack_size+0xd40>
20100712:	00c6d6b3          	srl	a3,a3,a2
20100716:	8a85                	andi	a3,a3,1
20100718:	c291                	beqz	a3,2010071c <SystemAndCoreClockUpdate+0x9e>
2010071a:	8385                	srli	a5,a5,0x1
2010071c:	20120737          	lui	a4,0x20120
20100720:	1ef72423          	sw	a5,488(a4) # 201201e8 <SystemClock>
20100724:	40021637          	lui	a2,0x40021
20100728:	4254                	lw	a3,4(a2)
2010072a:	20120737          	lui	a4,0x20120
2010072e:	11070713          	addi	a4,a4,272 # 20120110 <HBPrescTB>
20100732:	8291                	srli	a3,a3,0x4
20100734:	8abd                	andi	a3,a3,15
20100736:	9736                	add	a4,a4,a3
20100738:	2318                	lbu	a4,0(a4)
2010073a:	201206b7          	lui	a3,0x20120
2010073e:	1e068693          	addi	a3,a3,480 # 201201e0 <FPRETB>
20100742:	00e7d7b3          	srl	a5,a5,a4
20100746:	4258                	lw	a4,4(a2)
20100748:	6641                	lui	a2,0x10
2010074a:	8341                	srli	a4,a4,0x10
2010074c:	8b0d                	andi	a4,a4,3
2010074e:	9736                	add	a4,a4,a3
20100750:	2318                	lbu	a4,0(a4)
20100752:	00e7d733          	srl	a4,a5,a4
20100756:	84e1a623          	sw	a4,-1972(gp) # 2012022c <HCLKClock>
2010075a:	e000f6b7          	lui	a3,0xe000f
2010075e:	d106a683          	lw	a3,-752(a3) # e000ed10 <_eusrstack+0xbfe8ed10>
20100762:	8ef1                	and	a3,a3,a2
20100764:	e291                	bnez	a3,20100768 <SystemAndCoreClockUpdate+0xea>
20100766:	87ba                	mv	a5,a4
20100768:	20120737          	lui	a4,0x20120
2010076c:	1ef72223          	sw	a5,484(a4) # 201201e4 <SystemCoreClock>
20100770:	8082                	ret
20100772:	0e000593          	li	a1,224
20100776:	02b69263          	bne	a3,a1,2010079a <SystemAndCoreClockUpdate+0x11c>
2010077a:	5bd4                	lw	a3,52(a5)
2010077c:	201207b7          	lui	a5,0x20120
20100780:	10078793          	addi	a5,a5,256 # 20120100 <SERDESPLLMULTB>
20100784:	82c1                	srli	a3,a3,0x10
20100786:	97b6                	add	a5,a5,a3
20100788:	239c                	lbu	a5,0(a5)
2010078a:	017d86b7          	lui	a3,0x17d8
2010078e:	84068693          	addi	a3,a3,-1984 # 17d7840 <_data_lma+0x17d4094>
20100792:	02d787b3          	mul	a5,a5,a3
20100796:	8385                	srli	a5,a5,0x1
20100798:	bfa9                	j	201006f2 <SystemAndCoreClockUpdate+0x74>
2010079a:	08000793          	li	a5,128
2010079e:	00f69763          	bne	a3,a5,201007ac <SystemAndCoreClockUpdate+0x12e>
201007a2:	1c9c47b7          	lui	a5,0x1c9c4
201007a6:	80078793          	addi	a5,a5,-2048 # 1c9c3800 <_data_lma+0x1c9c0054>
201007aa:	b7a1                	j	201006f2 <SystemAndCoreClockUpdate+0x74>
201007ac:	0c000793          	li	a5,192
201007b0:	00f69763          	bne	a3,a5,201007be <SystemAndCoreClockUpdate+0x140>
201007b4:	077367b7          	lui	a5,0x7736
201007b8:	94078793          	addi	a5,a5,-1728 # 7735940 <_data_lma+0x7732194>
201007bc:	bf1d                	j	201006f2 <SystemAndCoreClockUpdate+0x74>
201007be:	017d87b7          	lui	a5,0x17d8
201007c2:	84078793          	addi	a5,a5,-1984 # 17d7840 <_data_lma+0x17d4094>
201007c6:	b735                	j	201006f2 <SystemAndCoreClockUpdate+0x74>
201007c8:	5bd8                	lw	a4,52(a5)
201007ca:	201207b7          	lui	a5,0x20120
201007ce:	10078793          	addi	a5,a5,256 # 20120100 <SERDESPLLMULTB>
201007d2:	8341                	srli	a4,a4,0x10
201007d4:	97ba                	add	a5,a5,a4
201007d6:	239c                	lbu	a5,0(a5)
201007d8:	017d8737          	lui	a4,0x17d8
201007dc:	84070713          	addi	a4,a4,-1984 # 17d7840 <_data_lma+0x17d4094>
201007e0:	02e787b3          	mul	a5,a5,a4
201007e4:	bf1d                	j	2010071a <SystemAndCoreClockUpdate+0x9c>
201007e6:	1dcd67b7          	lui	a5,0x1dcd6
201007ea:	50078793          	addi	a5,a5,1280 # 1dcd6500 <_data_lma+0x1dcd2d54>
201007ee:	b73d                	j	2010071c <SystemAndCoreClockUpdate+0x9e>

201007f0 <ADC1_2_IRQHandler>:
201007f0:	a001                	j	201007f0 <ADC1_2_IRQHandler>

201007f2 <DVP_DeInit>:
201007f2:	a93ff2ef          	jal	t0,20100284 <__riscv_save_0>
201007f6:	4585                	li	a1,1
201007f8:	6509                	lui	a0,0x2
201007fa:	171000ef          	jal	ra,2010116a <RCC_HBPeriphResetCmd>
201007fe:	4581                	li	a1,0
20100800:	6509                	lui	a0,0x2
20100802:	169000ef          	jal	ra,2010116a <RCC_HBPeriphResetCmd>
20100806:	b44d                	j	201002a8 <__riscv_restore_0>

20100808 <DVP_Init>:
20100808:	40026637          	lui	a2,0x40026
2010080c:	80060023          	sb	zero,-2048(a2) # 40025800 <_eusrstack+0x1fea5800>
20100810:	800600a3          	sb	zero,-2047(a2)
20100814:	3954                	lbu	a3,21(a0)
20100816:	295c                	lbu	a5,20(a0)
20100818:	6591                	lui	a1,0x4
2010081a:	fc058593          	addi	a1,a1,-64 # 3fc0 <_data_lma+0x814>
2010081e:	8fd5                	or	a5,a5,a3
20100820:	2974                	lbu	a3,22(a0)
20100822:	80060713          	addi	a4,a2,-2048
20100826:	8fd5                	or	a5,a5,a3
20100828:	3974                	lbu	a3,23(a0)
2010082a:	8fd5                	or	a5,a5,a3
2010082c:	5114                	lw	a3,32(a0)
2010082e:	069a                	slli	a3,a3,0x6
20100830:	8eed                	and	a3,a3,a1
20100832:	8fd5                	or	a5,a5,a3
20100834:	0ff7f793          	zext.b	a5,a5
20100838:	80f60023          	sb	a5,-2048(a2)
2010083c:	4d5c                	lw	a5,28(a0)
2010083e:	6689                	lui	a3,0x2
20100840:	1681                	addi	a3,a3,-32 # 1fe0 <__stack_size+0x17e0>
20100842:	0796                	slli	a5,a5,0x5
20100844:	3d10                	lbu	a2,25(a0)
20100846:	8ff5                	and	a5,a5,a3
20100848:	2d14                	lbu	a3,24(a0)
2010084a:	8ed1                	or	a3,a3,a2
2010084c:	8fd5                	or	a5,a5,a3
2010084e:	0ff7f793          	zext.b	a5,a5
20100852:	b31c                	sb	a5,1(a4)
20100854:	211e                	lhu	a5,0(a0)
20100856:	a35e                	sh	a5,4(a4)
20100858:	213e                	lhu	a5,2(a0)
2010085a:	a37e                	sh	a5,6(a4)
2010085c:	415c                	lw	a5,4(a0)
2010085e:	c71c                	sw	a5,8(a4)
20100860:	451c                	lw	a5,8(a0)
20100862:	c75c                	sw	a5,12(a4)
20100864:	255e                	lhu	a5,12(a0)
20100866:	af1e                	sh	a5,24(a4)
20100868:	257e                	lhu	a5,14(a0)
2010086a:	af3e                	sh	a5,26(a4)
2010086c:	291e                	lhu	a5,16(a0)
2010086e:	af5e                	sh	a5,28(a4)
20100870:	293e                	lhu	a5,18(a0)
20100872:	af7e                	sh	a5,30(a4)
20100874:	8082                	ret

20100876 <DVP_Cmd>:
20100876:	40026737          	lui	a4,0x40026
2010087a:	80074783          	lbu	a5,-2048(a4) # 40025800 <_eusrstack+0x1fea5800>
2010087e:	c511                	beqz	a0,2010088a <DVP_Cmd+0x14>
20100880:	0017e793          	ori	a5,a5,1
20100884:	80f70023          	sb	a5,-2048(a4)
20100888:	8082                	ret
2010088a:	0fe7f793          	andi	a5,a5,254
2010088e:	bfdd                	j	20100884 <DVP_Cmd+0xe>

20100890 <DVP_DMACmd>:
20100890:	400267b7          	lui	a5,0x40026
20100894:	8017c703          	lbu	a4,-2047(a5) # 40025801 <_eusrstack+0x1fea5801>
20100898:	80078793          	addi	a5,a5,-2048
2010089c:	c509                	beqz	a0,201008a6 <DVP_DMACmd+0x16>
2010089e:	00176713          	ori	a4,a4,1
201008a2:	b398                	sb	a4,1(a5)
201008a4:	8082                	ret
201008a6:	0fe77713          	andi	a4,a4,254
201008aa:	bfe5                	j	201008a2 <DVP_DMACmd+0x12>

201008ac <DVP_ReceiveCircuitResetCmd>:
201008ac:	400267b7          	lui	a5,0x40026
201008b0:	8017c703          	lbu	a4,-2047(a5) # 40025801 <_eusrstack+0x1fea5801>
201008b4:	80078793          	addi	a5,a5,-2048
201008b8:	c509                	beqz	a0,201008c2 <DVP_ReceiveCircuitResetCmd+0x16>
201008ba:	00476713          	ori	a4,a4,4
201008be:	b398                	sb	a4,1(a5)
201008c0:	8082                	ret
201008c2:	0fb77713          	andi	a4,a4,251
201008c6:	bfe5                	j	201008be <DVP_ReceiveCircuitResetCmd+0x12>

201008c8 <DVP_FIFO_ResetCmd>:
201008c8:	400267b7          	lui	a5,0x40026
201008cc:	8017c703          	lbu	a4,-2047(a5) # 40025801 <_eusrstack+0x1fea5801>
201008d0:	80078793          	addi	a5,a5,-2048
201008d4:	c509                	beqz	a0,201008de <DVP_FIFO_ResetCmd+0x16>
201008d6:	00276713          	ori	a4,a4,2
201008da:	b398                	sb	a4,1(a5)
201008dc:	8082                	ret
201008de:	0fd77713          	andi	a4,a4,253
201008e2:	bfe5                	j	201008da <DVP_FIFO_ResetCmd+0x12>

201008e4 <DVP_ITConfig>:
201008e4:	400267b7          	lui	a5,0x40026
201008e8:	8027c703          	lbu	a4,-2046(a5) # 40025802 <_eusrstack+0x1fea5802>
201008ec:	80078793          	addi	a5,a5,-2048
201008f0:	c581                	beqz	a1,201008f8 <DVP_ITConfig+0x14>
201008f2:	8f49                	or	a4,a4,a0
201008f4:	a3b8                	sb	a4,2(a5)
201008f6:	8082                	ret
201008f8:	40a77533          	andn	a0,a4,a0
201008fc:	a3a8                	sb	a0,2(a5)
201008fe:	8082                	ret

20100900 <DVP_GetITStatus>:
20100900:	40026737          	lui	a4,0x40026
20100904:	80274783          	lbu	a5,-2046(a4) # 40025802 <_eusrstack+0x1fea5802>
20100908:	80070713          	addi	a4,a4,-2048
2010090c:	2b18                	lbu	a4,16(a4)
2010090e:	0ff7f793          	zext.b	a5,a5
20100912:	8f69                	and	a4,a4,a0
20100914:	c709                	beqz	a4,2010091e <DVP_GetITStatus+0x1e>
20100916:	8d7d                	and	a0,a0,a5
20100918:	00a03533          	snez	a0,a0
2010091c:	8082                	ret
2010091e:	4501                	li	a0,0
20100920:	8082                	ret

20100922 <DVP_ClearITPendingBit>:
20100922:	400267b7          	lui	a5,0x40026
20100926:	80a78823          	sb	a0,-2032(a5) # 40025810 <_eusrstack+0x1fea5810>
2010092a:	8082                	ret

2010092c <FLASH_BOOT_GetMode>:
2010092c:	1101                	addi	sp,sp,-32
2010092e:	ce06                	sw	ra,28(sp)
20100930:	cc22                	sw	s0,24(sp)
20100932:	1000                	addi	s0,sp,32
20100934:	080007b7          	lui	a5,0x8000
20100938:	439c                	lw	a5,0(a5)
2010093a:	fef42623          	sw	a5,-20(s0) # 40020fec <_eusrstack+0x1fea0fec>
2010093e:	2015                	jal	20100962 <FLASH_GetUserOptionByte>
20100940:	87aa                	mv	a5,a0
20100942:	fef42623          	sw	a5,-20(s0)
20100946:	fec42783          	lw	a5,-20(s0)
2010094a:	f007f793          	andi	a5,a5,-256
2010094e:	fef42623          	sw	a5,-20(s0)
20100952:	fec42783          	lw	a5,-20(s0)
20100956:	8399                	srli	a5,a5,0x6
20100958:	853e                	mv	a0,a5
2010095a:	40f2                	lw	ra,28(sp)
2010095c:	4462                	lw	s0,24(sp)
2010095e:	6105                	addi	sp,sp,32
20100960:	8082                	ret

20100962 <FLASH_GetUserOptionByte>:
20100962:	400227b7          	lui	a5,0x40022
20100966:	4fc8                	lw	a0,28(a5)
20100968:	8109                	srli	a0,a0,0x2
2010096a:	8082                	ret

2010096c <GPIO_Init>:
2010096c:	459c                	lw	a5,8(a1)
2010096e:	0005d803          	lhu	a6,0(a1)
20100972:	0107f713          	andi	a4,a5,16
20100976:	00f7f893          	andi	a7,a5,15
2010097a:	cb1d                	beqz	a4,201009b0 <GPIO_Init+0x44>
2010097c:	4d58                	lw	a4,28(a0)
2010097e:	0018e893          	ori	a7,a7,1
20100982:	4681                	li	a3,0
20100984:	4e8d                	li	t4,3
20100986:	4e41                	li	t3,16
20100988:	28d01633          	bset	a2,zero,a3
2010098c:	00c87333          	and	t1,a6,a2
20100990:	00661c63          	bne	a2,t1,201009a8 <GPIO_Init+0x3c>
20100994:	00169313          	slli	t1,a3,0x1
20100998:	006e9633          	sll	a2,t4,t1
2010099c:	40c77733          	andn	a4,a4,a2
201009a0:	41d0                	lw	a2,4(a1)
201009a2:	00661633          	sll	a2,a2,t1
201009a6:	8f51                	or	a4,a4,a2
201009a8:	0685                	addi	a3,a3,1
201009aa:	fdc69fe3          	bne	a3,t3,20100988 <GPIO_Init+0x1c>
201009ae:	cd58                	sw	a4,28(a0)
201009b0:	0ff87713          	zext.b	a4,a6
201009b4:	cf1d                	beqz	a4,201009f2 <GPIO_Init+0x86>
201009b6:	4118                	lw	a4,0(a0)
201009b8:	4681                	li	a3,0
201009ba:	02800313          	li	t1,40
201009be:	4e3d                	li	t3,15
201009c0:	04800e93          	li	t4,72
201009c4:	45a1                	li	a1,8
201009c6:	28d01633          	bset	a2,zero,a3
201009ca:	00c87f33          	and	t5,a6,a2
201009ce:	01e61e63          	bne	a2,t5,201009ea <GPIO_Init+0x7e>
201009d2:	06679563          	bne	a5,t1,20100a3c <GPIO_Init+0xd0>
201009d6:	c950                	sw	a2,20(a0)
201009d8:	00269613          	slli	a2,a3,0x2
201009dc:	00ce1f33          	sll	t5,t3,a2
201009e0:	00c89633          	sll	a2,a7,a2
201009e4:	41e77733          	andn	a4,a4,t5
201009e8:	8f51                	or	a4,a4,a2
201009ea:	0685                	addi	a3,a3,1
201009ec:	fcb69de3          	bne	a3,a1,201009c6 <GPIO_Init+0x5a>
201009f0:	c118                	sw	a4,0(a0)
201009f2:	0ff00713          	li	a4,255
201009f6:	05077263          	bgeu	a4,a6,20100a3a <GPIO_Init+0xce>
201009fa:	4154                	lw	a3,4(a0)
201009fc:	4601                	li	a2,0
201009fe:	02800e13          	li	t3,40
20100a02:	04800e93          	li	t4,72
20100a06:	4321                	li	t1,8
20100a08:	00860713          	addi	a4,a2,8
20100a0c:	28e01733          	bset	a4,zero,a4
20100a10:	00e875b3          	and	a1,a6,a4
20100a14:	00b71f63          	bne	a4,a1,20100a32 <GPIO_Init+0xc6>
20100a18:	03c79663          	bne	a5,t3,20100a44 <GPIO_Init+0xd8>
20100a1c:	c958                	sw	a4,20(a0)
20100a1e:	00261713          	slli	a4,a2,0x2
20100a22:	45bd                	li	a1,15
20100a24:	00e595b3          	sll	a1,a1,a4
20100a28:	00e89733          	sll	a4,a7,a4
20100a2c:	40b6f6b3          	andn	a3,a3,a1
20100a30:	8ed9                	or	a3,a3,a4
20100a32:	0605                	addi	a2,a2,1
20100a34:	fc661ae3          	bne	a2,t1,20100a08 <GPIO_Init+0x9c>
20100a38:	c154                	sw	a3,4(a0)
20100a3a:	8082                	ret
20100a3c:	f9d79ee3          	bne	a5,t4,201009d8 <GPIO_Init+0x6c>
20100a40:	c910                	sw	a2,16(a0)
20100a42:	bf59                	j	201009d8 <GPIO_Init+0x6c>
20100a44:	fdd79de3          	bne	a5,t4,20100a1e <GPIO_Init+0xb2>
20100a48:	c918                	sw	a4,16(a0)
20100a4a:	bfd1                	j	20100a1e <GPIO_Init+0xb2>

20100a4c <GPIO_PinAFConfig>:
20100a4c:	40011737          	lui	a4,0x40011
20100a50:	479d                	li	a5,7
20100a52:	80070693          	addi	a3,a4,-2048 # 40010800 <_eusrstack+0x1fe90800>
20100a56:	02b7f863          	bgeu	a5,a1,20100a86 <GPIO_PinAFConfig+0x3a>
20100a5a:	ff858793          	addi	a5,a1,-8
20100a5e:	0ff7f793          	zext.b	a5,a5
20100a62:	06d51a63          	bne	a0,a3,20100ad6 <GPIO_PinAFConfig+0x8a>
20100a66:	400106b7          	lui	a3,0x40010
20100a6a:	468c                	lw	a1,8(a3)
20100a6c:	078a                	slli	a5,a5,0x2
20100a6e:	473d                	li	a4,15
20100a70:	00f71733          	sll	a4,a4,a5
20100a74:	40e5f733          	andn	a4,a1,a4
20100a78:	c698                	sw	a4,8(a3)
20100a7a:	4698                	lw	a4,8(a3)
20100a7c:	00f617b3          	sll	a5,a2,a5
20100a80:	8fd9                	or	a5,a5,a4
20100a82:	c69c                	sw	a5,8(a3)
20100a84:	8082                	ret
20100a86:	02d50863          	beq	a0,a3,20100ab6 <GPIO_PinAFConfig+0x6a>
20100a8a:	c0070793          	addi	a5,a4,-1024
20100a8e:	08f50a63          	beq	a0,a5,20100b22 <GPIO_PinAFConfig+0xd6>
20100a92:	16e51c63          	bne	a0,a4,20100c0a <GPIO_PinAFConfig+0x1be>
20100a96:	40010737          	lui	a4,0x40010
20100a9a:	4b54                	lw	a3,20(a4)
20100a9c:	058a                	slli	a1,a1,0x2
20100a9e:	47bd                	li	a5,15
20100aa0:	00b797b3          	sll	a5,a5,a1
20100aa4:	40f6f7b3          	andn	a5,a3,a5
20100aa8:	cb5c                	sw	a5,20(a4)
20100aaa:	4b5c                	lw	a5,20(a4)
20100aac:	00b615b3          	sll	a1,a2,a1
20100ab0:	8ddd                	or	a1,a1,a5
20100ab2:	cb4c                	sw	a1,20(a4)
20100ab4:	8082                	ret
20100ab6:	40010737          	lui	a4,0x40010
20100aba:	4354                	lw	a3,4(a4)
20100abc:	058a                	slli	a1,a1,0x2
20100abe:	47bd                	li	a5,15
20100ac0:	00b797b3          	sll	a5,a5,a1
20100ac4:	40f6f7b3          	andn	a5,a3,a5
20100ac8:	c35c                	sw	a5,4(a4)
20100aca:	435c                	lw	a5,4(a4)
20100acc:	00b615b3          	sll	a1,a2,a1
20100ad0:	8ddd                	or	a1,a1,a5
20100ad2:	c34c                	sw	a1,4(a4)
20100ad4:	8082                	ret
20100ad6:	c0070693          	addi	a3,a4,-1024 # 4000fc00 <_eusrstack+0x1fe8fc00>
20100ada:	02d50463          	beq	a0,a3,20100b02 <GPIO_PinAFConfig+0xb6>
20100ade:	10e51263          	bne	a0,a4,20100be2 <GPIO_PinAFConfig+0x196>
20100ae2:	400106b7          	lui	a3,0x40010
20100ae6:	4e8c                	lw	a1,24(a3)
20100ae8:	078a                	slli	a5,a5,0x2
20100aea:	473d                	li	a4,15
20100aec:	00f71733          	sll	a4,a4,a5
20100af0:	40e5f733          	andn	a4,a1,a4
20100af4:	ce98                	sw	a4,24(a3)
20100af6:	4e98                	lw	a4,24(a3)
20100af8:	00f617b3          	sll	a5,a2,a5
20100afc:	8fd9                	or	a5,a5,a4
20100afe:	ce9c                	sw	a5,24(a3)
20100b00:	8082                	ret
20100b02:	400106b7          	lui	a3,0x40010
20100b06:	4a8c                	lw	a1,16(a3)
20100b08:	078a                	slli	a5,a5,0x2
20100b0a:	473d                	li	a4,15
20100b0c:	00f71733          	sll	a4,a4,a5
20100b10:	40e5f733          	andn	a4,a1,a4
20100b14:	ca98                	sw	a4,16(a3)
20100b16:	4a98                	lw	a4,16(a3)
20100b18:	00f617b3          	sll	a5,a2,a5
20100b1c:	8fd9                	or	a5,a5,a4
20100b1e:	ca9c                	sw	a5,16(a3)
20100b20:	8082                	ret
20100b22:	40010737          	lui	a4,0x40010
20100b26:	4754                	lw	a3,12(a4)
20100b28:	058a                	slli	a1,a1,0x2
20100b2a:	47bd                	li	a5,15
20100b2c:	00b797b3          	sll	a5,a5,a1
20100b30:	40f6f7b3          	andn	a5,a3,a5
20100b34:	c75c                	sw	a5,12(a4)
20100b36:	475c                	lw	a5,12(a4)
20100b38:	00b615b3          	sll	a1,a2,a1
20100b3c:	8ddd                	or	a1,a1,a5
20100b3e:	c74c                	sw	a1,12(a4)
20100b40:	8082                	ret
20100b42:	40012737          	lui	a4,0x40012
20100b46:	80070713          	addi	a4,a4,-2048 # 40011800 <_eusrstack+0x1fe91800>
20100b4a:	87ae                	mv	a5,a1
20100b4c:	04e51863          	bne	a0,a4,20100b9c <GPIO_PinAFConfig+0x150>
20100b50:	40010737          	lui	a4,0x40010
20100b54:	5354                	lw	a3,36(a4)
20100b56:	058a                	slli	a1,a1,0x2
20100b58:	47bd                	li	a5,15
20100b5a:	00b797b3          	sll	a5,a5,a1
20100b5e:	40f6f7b3          	andn	a5,a3,a5
20100b62:	d35c                	sw	a5,36(a4)
20100b64:	535c                	lw	a5,36(a4)
20100b66:	00b615b3          	sll	a1,a2,a1
20100b6a:	8ddd                	or	a1,a1,a5
20100b6c:	d34c                	sw	a1,36(a4)
20100b6e:	8082                	ret
20100b70:	40012737          	lui	a4,0x40012
20100b74:	80070713          	addi	a4,a4,-2048 # 40011800 <_eusrstack+0x1fe91800>
20100b78:	02e51263          	bne	a0,a4,20100b9c <GPIO_PinAFConfig+0x150>
20100b7c:	400106b7          	lui	a3,0x40010
20100b80:	568c                	lw	a1,40(a3)
20100b82:	078a                	slli	a5,a5,0x2
20100b84:	473d                	li	a4,15
20100b86:	00f71733          	sll	a4,a4,a5
20100b8a:	40e5f733          	andn	a4,a1,a4
20100b8e:	d698                	sw	a4,40(a3)
20100b90:	5698                	lw	a4,40(a3)
20100b92:	00f617b3          	sll	a5,a2,a5
20100b96:	8fd9                	or	a5,a5,a4
20100b98:	d69c                	sw	a5,40(a3)
20100b9a:	8082                	ret
20100b9c:	40012737          	lui	a4,0x40012
20100ba0:	c0070713          	addi	a4,a4,-1024 # 40011c00 <_eusrstack+0x1fe91c00>
20100ba4:	08e51763          	bne	a0,a4,20100c32 <GPIO_PinAFConfig+0x1e6>
20100ba8:	078a                	slli	a5,a5,0x2
20100baa:	473d                	li	a4,15
20100bac:	00f71733          	sll	a4,a4,a5
20100bb0:	00f61633          	sll	a2,a2,a5
20100bb4:	479d                	li	a5,7
20100bb6:	fff74713          	not	a4,a4
20100bba:	00b7fb63          	bgeu	a5,a1,20100bd0 <GPIO_PinAFConfig+0x184>
20100bbe:	400107b7          	lui	a5,0x40010
20100bc2:	5b94                	lw	a3,48(a5)
20100bc4:	8f75                	and	a4,a4,a3
20100bc6:	db98                	sw	a4,48(a5)
20100bc8:	5b98                	lw	a4,48(a5)
20100bca:	8f51                	or	a4,a4,a2
20100bcc:	db98                	sw	a4,48(a5)
20100bce:	8082                	ret
20100bd0:	400107b7          	lui	a5,0x40010
20100bd4:	57d4                	lw	a3,44(a5)
20100bd6:	8f75                	and	a4,a4,a3
20100bd8:	d7d8                	sw	a4,44(a5)
20100bda:	57d8                	lw	a4,44(a5)
20100bdc:	8f51                	or	a4,a4,a2
20100bde:	d7d8                	sw	a4,44(a5)
20100be0:	8082                	ret
20100be2:	40070713          	addi	a4,a4,1024
20100be6:	f8e515e3          	bne	a0,a4,20100b70 <GPIO_PinAFConfig+0x124>
20100bea:	400106b7          	lui	a3,0x40010
20100bee:	528c                	lw	a1,32(a3)
20100bf0:	078a                	slli	a5,a5,0x2
20100bf2:	473d                	li	a4,15
20100bf4:	00f71733          	sll	a4,a4,a5
20100bf8:	40e5f733          	andn	a4,a1,a4
20100bfc:	d298                	sw	a4,32(a3)
20100bfe:	5298                	lw	a4,32(a3)
20100c00:	00f617b3          	sll	a5,a2,a5
20100c04:	8fd9                	or	a5,a5,a4
20100c06:	d29c                	sw	a5,32(a3)
20100c08:	8082                	ret
20100c0a:	40070713          	addi	a4,a4,1024
20100c0e:	f2e51ae3          	bne	a0,a4,20100b42 <GPIO_PinAFConfig+0xf6>
20100c12:	40010737          	lui	a4,0x40010
20100c16:	4f54                	lw	a3,28(a4)
20100c18:	058a                	slli	a1,a1,0x2
20100c1a:	47bd                	li	a5,15
20100c1c:	00b797b3          	sll	a5,a5,a1
20100c20:	40f6f7b3          	andn	a5,a3,a5
20100c24:	cf5c                	sw	a5,28(a4)
20100c26:	4f5c                	lw	a5,28(a4)
20100c28:	00b615b3          	sll	a1,a2,a1
20100c2c:	8ddd                	or	a1,a1,a5
20100c2e:	cf4c                	sw	a1,28(a4)
20100c30:	8082                	ret
20100c32:	8082                	ret

20100c34 <GPIO_IPD_Unused>:
20100c34:	e50ff2ef          	jal	t0,20100284 <__riscv_save_0>
20100c38:	1141                	addi	sp,sp,-16
20100c3a:	4585                	li	a1,1
20100c3c:	0fc00513          	li	a0,252
20100c40:	c202                	sw	zero,4(sp)
20100c42:	c402                	sw	zero,8(sp)
20100c44:	c602                	sw	zero,12(sp)
20100c46:	21f5                	jal	20101132 <RCC_HB2PeriphClockCmd>
20100c48:	4002a7b7          	lui	a5,0x4002a
20100c4c:	4b98                	lw	a4,16(a5)
20100c4e:	f0077713          	andi	a4,a4,-256
20100c52:	c03a                	sw	a4,0(sp)
20100c54:	4702                	lw	a4,0(sp)
20100c56:	01b76713          	ori	a4,a4,27
20100c5a:	c03a                	sw	a4,0(sp)
20100c5c:	4702                	lw	a4,0(sp)
20100c5e:	cb98                	sw	a4,16(a5)
20100c60:	4bd8                	lw	a4,20(a5)
20100c62:	fc077713          	andi	a4,a4,-64
20100c66:	c03a                	sw	a4,0(sp)
20100c68:	4702                	lw	a4,0(sp)
20100c6a:	00e76713          	ori	a4,a4,14
20100c6e:	c03a                	sw	a4,0(sp)
20100c70:	4702                	lw	a4,0(sp)
20100c72:	cbd8                	sw	a4,20(a5)
20100c74:	3965                	jal	2010092c <FLASH_BOOT_GetMode>
20100c76:	1ffff7b7          	lui	a5,0x1ffff
20100c7a:	7047a783          	lw	a5,1796(a5) # 1ffff704 <_data_lma+0x1fffbf58>
20100c7e:	0f07f793          	andi	a5,a5,240
20100c82:	e38d                	bnez	a5,20100ca4 <GPIO_IPD_Unused+0x70>
20100c84:	4585                	li	a1,1
20100c86:	80000537          	lui	a0,0x80000
20100c8a:	21d1                	jal	2010114e <RCC_HB1PeriphClockCmd>
20100c8c:	400087b7          	lui	a5,0x40008
20100c90:	40078793          	addi	a5,a5,1024 # 40008400 <_eusrstack+0x1fe88400>
20100c94:	53d8                	lw	a4,36(a5)
20100c96:	4581                	li	a1,0
20100c98:	80000537          	lui	a0,0x80000
20100c9c:	00176713          	ori	a4,a4,1
20100ca0:	d3d8                	sw	a4,36(a5)
20100ca2:	2175                	jal	2010114e <RCC_HB1PeriphClockCmd>
20100ca4:	1ffff7b7          	lui	a5,0x1ffff
20100ca8:	7047a783          	lw	a5,1796(a5) # 1ffff704 <_data_lma+0x1fffbf58>
20100cac:	41710737          	lui	a4,0x41710
20100cb0:	50d70713          	addi	a4,a4,1293 # 4171050d <_eusrstack+0x2159050d>
20100cb4:	f0f7f793          	andi	a5,a5,-241
20100cb8:	08e78063          	beq	a5,a4,20100d38 <GPIO_IPD_Unused+0x104>
20100cbc:	02f76163          	bltu	a4,a5,20100cde <GPIO_IPD_Unused+0xaa>
20100cc0:	41500737          	lui	a4,0x41500
20100cc4:	50d70713          	addi	a4,a4,1293 # 4150050d <_eusrstack+0x2138050d>
20100cc8:	0ce78d63          	beq	a5,a4,20100da2 <GPIO_IPD_Unused+0x16e>
20100ccc:	41600737          	lui	a4,0x41600
20100cd0:	50d70713          	addi	a4,a4,1293 # 4160050d <_eusrstack+0x2148050d>
20100cd4:	12e78563          	beq	a5,a4,20100dfe <GPIO_IPD_Unused+0x1ca>
20100cd8:	0141                	addi	sp,sp,16
20100cda:	dceff06f          	j	201002a8 <__riscv_restore_0>
20100cde:	41720737          	lui	a4,0x41720
20100ce2:	50d70713          	addi	a4,a4,1293 # 4172050d <_eusrstack+0x215a050d>
20100ce6:	fee799e3          	bne	a5,a4,20100cd8 <GPIO_IPD_Unused+0xa4>
20100cea:	6409                	lui	s0,0x2
20100cec:	fdf40793          	addi	a5,s0,-33 # 1fdf <__stack_size+0x17df>
20100cf0:	400114b7          	lui	s1,0x40011
20100cf4:	827c                	sh	a5,4(sp)
20100cf6:	004c                	addi	a1,sp,4
20100cf8:	02800793          	li	a5,40
20100cfc:	80048513          	addi	a0,s1,-2048 # 40010800 <_eusrstack+0x1fe90800>
20100d00:	c63e                	sw	a5,12(sp)
20100d02:	31ad                	jal	2010096c <GPIO_Init>
20100d04:	77e1                	lui	a5,0xffff8
20100d06:	0fc78793          	addi	a5,a5,252 # ffff80fc <_eusrstack+0xdfe780fc>
20100d0a:	004c                	addi	a1,sp,4
20100d0c:	c0048513          	addi	a0,s1,-1024
20100d10:	827c                	sh	a5,4(sp)
20100d12:	39a9                	jal	2010096c <GPIO_Init>
20100d14:	77f9                	lui	a5,0xffffe
20100d16:	03078793          	addi	a5,a5,48 # ffffe030 <_eusrstack+0xdfe7e030>
20100d1a:	004c                	addi	a1,sp,4
20100d1c:	40011537          	lui	a0,0x40011
20100d20:	827c                	sh	a5,4(sp)
20100d22:	31a9                	jal	2010096c <GPIO_Init>
20100d24:	30000793          	li	a5,768
20100d28:	004c                	addi	a1,sp,4
20100d2a:	40048513          	addi	a0,s1,1024
20100d2e:	1471                	addi	s0,s0,-4
20100d30:	827c                	sh	a5,4(sp)
20100d32:	392d                	jal	2010096c <GPIO_Init>
20100d34:	8260                	sh	s0,4(sp)
20100d36:	a0b9                	j	20100d84 <GPIO_IPD_Unused+0x150>
20100d38:	40011437          	lui	s0,0x40011
20100d3c:	1ce00793          	li	a5,462
20100d40:	827c                	sh	a5,4(sp)
20100d42:	004c                	addi	a1,sp,4
20100d44:	02800793          	li	a5,40
20100d48:	80040513          	addi	a0,s0,-2048 # 40010800 <_eusrstack+0x1fe90800>
20100d4c:	c63e                	sw	a5,12(sp)
20100d4e:	3939                	jal	2010096c <GPIO_Init>
20100d50:	77e1                	lui	a5,0xffff8
20100d52:	0e478793          	addi	a5,a5,228 # ffff80e4 <_eusrstack+0xdfe780e4>
20100d56:	004c                	addi	a1,sp,4
20100d58:	c0040513          	addi	a0,s0,-1024
20100d5c:	827c                	sh	a5,4(sp)
20100d5e:	3139                	jal	2010096c <GPIO_Init>
20100d60:	77f9                	lui	a5,0xffffe
20100d62:	03078793          	addi	a5,a5,48 # ffffe030 <_eusrstack+0xdfe7e030>
20100d66:	004c                	addi	a1,sp,4
20100d68:	40011537          	lui	a0,0x40011
20100d6c:	827c                	sh	a5,4(sp)
20100d6e:	3efd                	jal	2010096c <GPIO_Init>
20100d70:	30000793          	li	a5,768
20100d74:	004c                	addi	a1,sp,4
20100d76:	40040513          	addi	a0,s0,1024
20100d7a:	827c                	sh	a5,4(sp)
20100d7c:	3ec5                	jal	2010096c <GPIO_Init>
20100d7e:	38400793          	li	a5,900
20100d82:	827c                	sh	a5,4(sp)
20100d84:	40012437          	lui	s0,0x40012
20100d88:	004c                	addi	a1,sp,4
20100d8a:	80040513          	addi	a0,s0,-2048 # 40011800 <_eusrstack+0x1fe91800>
20100d8e:	3ef9                	jal	2010096c <GPIO_Init>
20100d90:	6791                	lui	a5,0x4
20100d92:	fc078793          	addi	a5,a5,-64 # 3fc0 <_data_lma+0x814>
20100d96:	004c                	addi	a1,sp,4
20100d98:	c0040513          	addi	a0,s0,-1024
20100d9c:	827c                	sh	a5,4(sp)
20100d9e:	36f9                	jal	2010096c <GPIO_Init>
20100da0:	bf25                	j	20100cd8 <GPIO_IPD_Unused+0xa4>
20100da2:	40011437          	lui	s0,0x40011
20100da6:	10000793          	li	a5,256
20100daa:	80040513          	addi	a0,s0,-2048 # 40010800 <_eusrstack+0x1fe90800>
20100dae:	827c                	sh	a5,4(sp)
20100db0:	004c                	addi	a1,sp,4
20100db2:	02800793          	li	a5,40
20100db6:	c63e                	sw	a5,12(sp)
20100db8:	3e55                	jal	2010096c <GPIO_Init>
20100dba:	02400793          	li	a5,36
20100dbe:	c0040513          	addi	a0,s0,-1024
20100dc2:	004c                	addi	a1,sp,4
20100dc4:	827c                	sh	a5,4(sp)
20100dc6:	365d                	jal	2010096c <GPIO_Init>
20100dc8:	77f9                	lui	a5,0xffffe
20100dca:	02078793          	addi	a5,a5,32 # ffffe020 <_eusrstack+0xdfe7e020>
20100dce:	004c                	addi	a1,sp,4
20100dd0:	40011537          	lui	a0,0x40011
20100dd4:	827c                	sh	a5,4(sp)
20100dd6:	3e59                	jal	2010096c <GPIO_Init>
20100dd8:	57dd                	li	a5,-9
20100dda:	40040513          	addi	a0,s0,1024
20100dde:	004c                	addi	a1,sp,4
20100de0:	827c                	sh	a5,4(sp)
20100de2:	40012437          	lui	s0,0x40012
20100de6:	3659                	jal	2010096c <GPIO_Init>
20100de8:	78700793          	li	a5,1927
20100dec:	004c                	addi	a1,sp,4
20100dee:	80040513          	addi	a0,s0,-2048 # 40011800 <_eusrstack+0x1fe91800>
20100df2:	827c                	sh	a5,4(sp)
20100df4:	3ea5                	jal	2010096c <GPIO_Init>
20100df6:	77e1                	lui	a5,0xffff8
20100df8:	fc77c793          	xori	a5,a5,-57
20100dfc:	bf69                	j	20100d96 <GPIO_IPD_Unused+0x162>
20100dfe:	40011437          	lui	s0,0x40011
20100e02:	70000793          	li	a5,1792
20100e06:	80040513          	addi	a0,s0,-2048 # 40010800 <_eusrstack+0x1fe90800>
20100e0a:	827c                	sh	a5,4(sp)
20100e0c:	004c                	addi	a1,sp,4
20100e0e:	02800793          	li	a5,40
20100e12:	c63e                	sw	a5,12(sp)
20100e14:	3ea1                	jal	2010096c <GPIO_Init>
20100e16:	c0400793          	li	a5,-1020
20100e1a:	c0040513          	addi	a0,s0,-1024
20100e1e:	004c                	addi	a1,sp,4
20100e20:	827c                	sh	a5,4(sp)
20100e22:	36a9                	jal	2010096c <GPIO_Init>
20100e24:	77f9                	lui	a5,0xffffe
20100e26:	004c                	addi	a1,sp,4
20100e28:	40011537          	lui	a0,0x40011
20100e2c:	827c                	sh	a5,4(sp)
20100e2e:	3e3d                	jal	2010096c <GPIO_Init>
20100e30:	9f300793          	li	a5,-1549
20100e34:	40040513          	addi	a0,s0,1024
20100e38:	004c                	addi	a1,sp,4
20100e3a:	827c                	sh	a5,4(sp)
20100e3c:	3e05                	jal	2010096c <GPIO_Init>
20100e3e:	77e1                	lui	a5,0xffff8
20100e40:	40012437          	lui	s0,0x40012
20100e44:	dff7c793          	xori	a5,a5,-513
20100e48:	004c                	addi	a1,sp,4
20100e4a:	80040513          	addi	a0,s0,-2048 # 40011800 <_eusrstack+0x1fe91800>
20100e4e:	827c                	sh	a5,4(sp)
20100e50:	3e31                	jal	2010096c <GPIO_Init>
20100e52:	6795                	lui	a5,0x5
20100e54:	83f78793          	addi	a5,a5,-1985 # 483f <_data_lma+0x1093>
20100e58:	bf3d                	j	20100d96 <GPIO_IPD_Unused+0x162>

20100e5a <HSEM_ITConfig>:
20100e5a:	28a01533          	bset	a0,zero,a0
20100e5e:	c989                	beqz	a1,20100e70 <HSEM_ITConfig+0x16>
20100e60:	e000c737          	lui	a4,0xe000c
20100e64:	30072783          	lw	a5,768(a4) # e000c300 <_eusrstack+0xbfe8c300>
20100e68:	8fc9                	or	a5,a5,a0
20100e6a:	30f72023          	sw	a5,768(a4)
20100e6e:	8082                	ret
20100e70:	e000c7b7          	lui	a5,0xe000c
20100e74:	3007a703          	lw	a4,768(a5) # e000c300 <_eusrstack+0xbfe8c300>
20100e78:	40a77533          	andn	a0,a4,a0
20100e7c:	30a7a023          	sw	a0,768(a5)
20100e80:	8082                	ret

20100e82 <HSEM_ClearFlag>:
20100e82:	e000c7b7          	lui	a5,0xe000c
20100e86:	28a01533          	bset	a0,zero,a0
20100e8a:	30a7a423          	sw	a0,776(a5) # e000c308 <_eusrstack+0xbfe8c308>
20100e8e:	8082                	ret

20100e90 <PWR_EnterSTOPMode>:
20100e90:	40007737          	lui	a4,0x40007
20100e94:	431c                	lw	a5,0(a4)
20100e96:	9bf9                	andi	a5,a5,-2
20100e98:	8fc9                	or	a5,a5,a0
20100e9a:	c31c                	sw	a5,0(a4)
20100e9c:	e000f737          	lui	a4,0xe000f
20100ea0:	d1072783          	lw	a5,-752(a4) # e000ed10 <_eusrstack+0xbfe8ed10>
20100ea4:	0047e793          	ori	a5,a5,4
20100ea8:	d0f72823          	sw	a5,-752(a4)
20100eac:	4785                	li	a5,1
20100eae:	02f59163          	bne	a1,a5,20100ed0 <PWR_EnterSTOPMode+0x40>
20100eb2:	d1072783          	lw	a5,-752(a4)
20100eb6:	9bdd                	andi	a5,a5,-9
20100eb8:	d0f72823          	sw	a5,-752(a4)
20100ebc:	10500073          	wfi
20100ec0:	e000f737          	lui	a4,0xe000f
20100ec4:	d1072783          	lw	a5,-752(a4) # e000ed10 <_eusrstack+0xbfe8ed10>
20100ec8:	9bed                	andi	a5,a5,-5
20100eca:	d0f72823          	sw	a5,-752(a4)
20100ece:	8082                	ret
20100ed0:	400107b7          	lui	a5,0x40010
20100ed4:	40078593          	addi	a1,a5,1024 # 40010400 <_eusrstack+0x1fe90400>
20100ed8:	85c1a603          	lw	a2,-1956(gp) # 2012023c <WFE_MASK>
20100edc:	4188                	lw	a0,0(a1)
20100ede:	8e49                	or	a2,a2,a0
20100ee0:	c190                	sw	a2,0(a1)
20100ee2:	8401a823          	sw	zero,-1968(gp) # 20120230 <WFE_WkupSource>
20100ee6:	567d                	li	a2,-1
20100ee8:	c8c72223          	sw	a2,-892(a4)
20100eec:	d1072603          	lw	a2,-752(a4)
20100ef0:	00866613          	ori	a2,a2,8
20100ef4:	d0c72823          	sw	a2,-752(a4)
20100ef8:	10500073          	wfi
20100efc:	41478793          	addi	a5,a5,1044
20100f00:	4398                	lw	a4,0(a5)
20100f02:	85c1a603          	lw	a2,-1956(gp) # 2012023c <WFE_MASK>
20100f06:	8f71                	and	a4,a4,a2
20100f08:	e719                	bnez	a4,20100f16 <PWR_EnterSTOPMode+0x86>
20100f0a:	85c1a703          	lw	a4,-1956(gp) # 2012023c <WFE_MASK>
20100f0e:	c701                	beqz	a4,20100f16 <PWR_EnterSTOPMode+0x86>
20100f10:	10500073          	wfi
20100f14:	b7f5                	j	20100f00 <PWR_EnterSTOPMode+0x70>
20100f16:	4398                	lw	a4,0(a5)
20100f18:	84e1a823          	sw	a4,-1968(gp) # 20120230 <WFE_WkupSource>
20100f1c:	40010737          	lui	a4,0x40010
20100f20:	40070713          	addi	a4,a4,1024 # 40010400 <_eusrstack+0x1fe90400>
20100f24:	85c1a603          	lw	a2,-1956(gp) # 2012023c <WFE_MASK>
20100f28:	430c                	lw	a1,0(a4)
20100f2a:	40c5f633          	andn	a2,a1,a2
20100f2e:	c310                	sw	a2,0(a4)
20100f30:	85c1a703          	lw	a4,-1956(gp) # 2012023c <WFE_MASK>
20100f34:	4394                	lw	a3,0(a5)
20100f36:	8f55                	or	a4,a4,a3
20100f38:	c398                	sw	a4,0(a5)
20100f3a:	b759                	j	20100ec0 <PWR_EnterSTOPMode+0x30>

20100f3c <PWR_VIO18ModeCfg>:
20100f3c:	400077b7          	lui	a5,0x40007
20100f40:	4398                	lw	a4,0(a5)
20100f42:	dff77713          	andi	a4,a4,-513
20100f46:	c398                	sw	a4,0(a5)
20100f48:	4398                	lw	a4,0(a5)
20100f4a:	8f49                	or	a4,a4,a0
20100f4c:	c398                	sw	a4,0(a5)
20100f4e:	8082                	ret

20100f50 <PWR_VIO18LevelCfg>:
20100f50:	400077b7          	lui	a5,0x40007
20100f54:	4398                	lw	a4,0(a5)
20100f56:	76f9                	lui	a3,0xffffe
20100f58:	3ff68693          	addi	a3,a3,1023 # ffffe3ff <_eusrstack+0xdfe7e3ff>
20100f5c:	8f75                	and	a4,a4,a3
20100f5e:	c398                	sw	a4,0(a5)
20100f60:	4398                	lw	a4,0(a5)
20100f62:	8d59                	or	a0,a0,a4
20100f64:	c388                	sw	a0,0(a5)
20100f66:	8082                	ret

20100f68 <RCC_GetClocksFreq>:
20100f68:	400217b7          	lui	a5,0x40021
20100f6c:	43d4                	lw	a3,4(a5)
20100f6e:	4798                	lw	a4,8(a5)
20100f70:	4621                	li	a2,8
20100f72:	8ab1                	andi	a3,a3,12
20100f74:	02c69463          	bne	a3,a2,20100f9c <RCC_GetClocksFreq+0x34>
20100f78:	700006b7          	lui	a3,0x70000
20100f7c:	8f75                	and	a4,a4,a3
20100f7e:	50000637          	lui	a2,0x50000
20100f82:	16c70063          	beq	a4,a2,201010e2 <RCC_GetClocksFreq+0x17a>
20100f86:	02e66063          	bltu	a2,a4,20100fa6 <RCC_GetClocksFreq+0x3e>
20100f8a:	c71d                	beqz	a4,20100fb8 <RCC_GetClocksFreq+0x50>
20100f8c:	1c9c47b7          	lui	a5,0x1c9c4
20100f90:	400006b7          	lui	a3,0x40000
20100f94:	80078793          	addi	a5,a5,-2048 # 1c9c3800 <_data_lma+0x1c9c0054>
20100f98:	06d70763          	beq	a4,a3,20101006 <RCC_GetClocksFreq+0x9e>
20100f9c:	017d87b7          	lui	a5,0x17d8
20100fa0:	84078793          	addi	a5,a5,-1984 # 17d7840 <_data_lma+0x17d4094>
20100fa4:	a08d                	j	20101006 <RCC_GetClocksFreq+0x9e>
20100fa6:	60000637          	lui	a2,0x60000
20100faa:	10c70d63          	beq	a4,a2,201010c4 <RCC_GetClocksFreq+0x15c>
20100fae:	077367b7          	lui	a5,0x7736
20100fb2:	94078793          	addi	a5,a5,-1728 # 7735940 <_data_lma+0x7732194>
20100fb6:	b7cd                	j	20100f98 <RCC_GetClocksFreq+0x30>
20100fb8:	4790                	lw	a2,8(a5)
20100fba:	4794                	lw	a3,8(a5)
20100fbc:	4798                	lw	a4,8(a5)
20100fbe:	0a000593          	li	a1,160
20100fc2:	0e06f693          	andi	a3,a3,224
20100fc6:	8321                	srli	a4,a4,0x8
20100fc8:	03f77713          	andi	a4,a4,63
20100fcc:	8a7d                	andi	a2,a2,31
20100fce:	0705                	addi	a4,a4,1
20100fd0:	08b69f63          	bne	a3,a1,2010106e <RCC_GetClocksFreq+0x106>
20100fd4:	1dcd67b7          	lui	a5,0x1dcd6
20100fd8:	50078793          	addi	a5,a5,1280 # 1dcd6500 <_data_lma+0x1dcd2d54>
20100fdc:	02e7d733          	divu	a4,a5,a4
20100fe0:	201207b7          	lui	a5,0x20120
20100fe4:	16078793          	addi	a5,a5,352 # 20120160 <PLLMULTable>
20100fe8:	97b2                	add	a5,a5,a2
20100fea:	239c                	lbu	a5,0(a5)
20100fec:	4691                	li	a3,4
20100fee:	02e787b3          	mul	a5,a5,a4
20100ff2:	00d60963          	beq	a2,a3,20101004 <RCC_GetClocksFreq+0x9c>
20100ff6:	6685                	lui	a3,0x1
20100ff8:	54068693          	addi	a3,a3,1344 # 1540 <__stack_size+0xd40>
20100ffc:	00c6d6b3          	srl	a3,a3,a2
20101000:	8a85                	andi	a3,a3,1
20101002:	c291                	beqz	a3,20101006 <RCC_GetClocksFreq+0x9e>
20101004:	8385                	srli	a5,a5,0x1
20101006:	c11c                	sw	a5,0(a0)
20101008:	40021637          	lui	a2,0x40021
2010100c:	4254                	lw	a3,4(a2)
2010100e:	20120737          	lui	a4,0x20120
20101012:	15070713          	addi	a4,a4,336 # 20120150 <HBPrescTable>
20101016:	8291                	srli	a3,a3,0x4
20101018:	8abd                	andi	a3,a3,15
2010101a:	9736                	add	a4,a4,a3
2010101c:	2318                	lbu	a4,0(a4)
2010101e:	201206b7          	lui	a3,0x20120
20101022:	1f868693          	addi	a3,a3,504 # 201201f8 <FPRETable>
20101026:	00e7d7b3          	srl	a5,a5,a4
2010102a:	4258                	lw	a4,4(a2)
2010102c:	6641                	lui	a2,0x10
2010102e:	8341                	srli	a4,a4,0x10
20101030:	8b0d                	andi	a4,a4,3
20101032:	9736                	add	a4,a4,a3
20101034:	2318                	lbu	a4,0(a4)
20101036:	e000f6b7          	lui	a3,0xe000f
2010103a:	00e7d733          	srl	a4,a5,a4
2010103e:	c158                	sw	a4,4(a0)
20101040:	d106a683          	lw	a3,-752(a3) # e000ed10 <_eusrstack+0xbfe8ed10>
20101044:	8ef1                	and	a3,a3,a2
20101046:	e291                	bnez	a3,2010104a <RCC_GetClocksFreq+0xe2>
20101048:	87ba                	mv	a5,a4
2010104a:	c51c                	sw	a5,8(a0)
2010104c:	40021637          	lui	a2,0x40021
20101050:	425c                	lw	a5,4(a2)
20101052:	0807dd63          	bgez	a5,201010ec <RCC_GetClocksFreq+0x184>
20101056:	425c                	lw	a5,4(a2)
20101058:	1c9c4737          	lui	a4,0x1c9c4
2010105c:	80070713          	addi	a4,a4,-2048 # 1c9c3800 <_data_lma+0x1c9c0054>
20101060:	83ad                	srli	a5,a5,0xb
20101062:	8bfd                	andi	a5,a5,31
20101064:	0795                	addi	a5,a5,5
20101066:	02f75733          	divu	a4,a4,a5
2010106a:	c558                	sw	a4,12(a0)
2010106c:	8082                	ret
2010106e:	0e000593          	li	a1,224
20101072:	02b69263          	bne	a3,a1,20101096 <RCC_GetClocksFreq+0x12e>
20101076:	5bd4                	lw	a3,52(a5)
20101078:	201207b7          	lui	a5,0x20120
2010107c:	14078793          	addi	a5,a5,320 # 20120140 <SERDESPLLMULTable>
20101080:	82c1                	srli	a3,a3,0x10
20101082:	97b6                	add	a5,a5,a3
20101084:	239c                	lbu	a5,0(a5)
20101086:	017d86b7          	lui	a3,0x17d8
2010108a:	84068693          	addi	a3,a3,-1984 # 17d7840 <_data_lma+0x17d4094>
2010108e:	02d787b3          	mul	a5,a5,a3
20101092:	8385                	srli	a5,a5,0x1
20101094:	b7a1                	j	20100fdc <RCC_GetClocksFreq+0x74>
20101096:	08000793          	li	a5,128
2010109a:	00f69763          	bne	a3,a5,201010a8 <RCC_GetClocksFreq+0x140>
2010109e:	1c9c47b7          	lui	a5,0x1c9c4
201010a2:	80078793          	addi	a5,a5,-2048 # 1c9c3800 <_data_lma+0x1c9c0054>
201010a6:	bf1d                	j	20100fdc <RCC_GetClocksFreq+0x74>
201010a8:	0c000793          	li	a5,192
201010ac:	00f69763          	bne	a3,a5,201010ba <RCC_GetClocksFreq+0x152>
201010b0:	077367b7          	lui	a5,0x7736
201010b4:	94078793          	addi	a5,a5,-1728 # 7735940 <_data_lma+0x7732194>
201010b8:	b715                	j	20100fdc <RCC_GetClocksFreq+0x74>
201010ba:	017d87b7          	lui	a5,0x17d8
201010be:	84078793          	addi	a5,a5,-1984 # 17d7840 <_data_lma+0x17d4094>
201010c2:	bf29                	j	20100fdc <RCC_GetClocksFreq+0x74>
201010c4:	5bd8                	lw	a4,52(a5)
201010c6:	201207b7          	lui	a5,0x20120
201010ca:	14078793          	addi	a5,a5,320 # 20120140 <SERDESPLLMULTable>
201010ce:	8341                	srli	a4,a4,0x10
201010d0:	97ba                	add	a5,a5,a4
201010d2:	239c                	lbu	a5,0(a5)
201010d4:	017d8737          	lui	a4,0x17d8
201010d8:	84070713          	addi	a4,a4,-1984 # 17d7840 <_data_lma+0x17d4094>
201010dc:	02e787b3          	mul	a5,a5,a4
201010e0:	b715                	j	20101004 <RCC_GetClocksFreq+0x9c>
201010e2:	1dcd67b7          	lui	a5,0x1dcd6
201010e6:	50078793          	addi	a5,a5,1280 # 1dcd6500 <_data_lma+0x1dcd2d54>
201010ea:	bf31                	j	20101006 <RCC_GetClocksFreq+0x9e>
201010ec:	4254                	lw	a3,4(a2)
201010ee:	201207b7          	lui	a5,0x20120
201010f2:	1f078793          	addi	a5,a5,496 # 201201f0 <PPRE2Table>
201010f6:	82ad                	srli	a3,a3,0xb
201010f8:	8a9d                	andi	a3,a3,7
201010fa:	97b6                	add	a5,a5,a3
201010fc:	238c                	lbu	a1,0(a5)
201010fe:	425c                	lw	a5,4(a2)
20101100:	201206b7          	lui	a3,0x20120
20101104:	1ec68693          	addi	a3,a3,492 # 201201ec <ADCPRETable>
20101108:	83b9                	srli	a5,a5,0xe
2010110a:	8b8d                	andi	a5,a5,3
2010110c:	97b6                	add	a5,a5,a3
2010110e:	239c                	lbu	a5,0(a5)
20101110:	00b75733          	srl	a4,a4,a1
20101114:	bf89                	j	20101066 <RCC_GetClocksFreq+0xfe>

20101116 <RCC_HBPeriphClockCmd>:
20101116:	c599                	beqz	a1,20101124 <RCC_HBPeriphClockCmd+0xe>
20101118:	40021737          	lui	a4,0x40021
2010111c:	4f1c                	lw	a5,24(a4)
2010111e:	8fc9                	or	a5,a5,a0
20101120:	cf1c                	sw	a5,24(a4)
20101122:	8082                	ret
20101124:	400217b7          	lui	a5,0x40021
20101128:	4f98                	lw	a4,24(a5)
2010112a:	40a77533          	andn	a0,a4,a0
2010112e:	cf88                	sw	a0,24(a5)
20101130:	8082                	ret

20101132 <RCC_HB2PeriphClockCmd>:
20101132:	c599                	beqz	a1,20101140 <RCC_HB2PeriphClockCmd+0xe>
20101134:	40021737          	lui	a4,0x40021
20101138:	4f5c                	lw	a5,28(a4)
2010113a:	8fc9                	or	a5,a5,a0
2010113c:	cf5c                	sw	a5,28(a4)
2010113e:	8082                	ret
20101140:	400217b7          	lui	a5,0x40021
20101144:	4fd8                	lw	a4,28(a5)
20101146:	40a77533          	andn	a0,a4,a0
2010114a:	cfc8                	sw	a0,28(a5)
2010114c:	8082                	ret

2010114e <RCC_HB1PeriphClockCmd>:
2010114e:	c599                	beqz	a1,2010115c <RCC_HB1PeriphClockCmd+0xe>
20101150:	40021737          	lui	a4,0x40021
20101154:	531c                	lw	a5,32(a4)
20101156:	8fc9                	or	a5,a5,a0
20101158:	d31c                	sw	a5,32(a4)
2010115a:	8082                	ret
2010115c:	400217b7          	lui	a5,0x40021
20101160:	5398                	lw	a4,32(a5)
20101162:	40a77533          	andn	a0,a4,a0
20101166:	d388                	sw	a0,32(a5)
20101168:	8082                	ret

2010116a <RCC_HBPeriphResetCmd>:
2010116a:	c599                	beqz	a1,20101178 <RCC_HBPeriphResetCmd+0xe>
2010116c:	40021737          	lui	a4,0x40021
20101170:	575c                	lw	a5,44(a4)
20101172:	8fc9                	or	a5,a5,a0
20101174:	d75c                	sw	a5,44(a4)
20101176:	8082                	ret
20101178:	400217b7          	lui	a5,0x40021
2010117c:	57d8                	lw	a4,44(a5)
2010117e:	40a77533          	andn	a0,a4,a0
20101182:	d7c8                	sw	a0,44(a5)
20101184:	8082                	ret

20101186 <RCC_GetFlagStatus>:
20101186:	00555793          	srli	a5,a0,0x5
2010118a:	4705                	li	a4,1
2010118c:	00e79963          	bne	a5,a4,2010119e <RCC_GetFlagStatus+0x18>
20101190:	400217b7          	lui	a5,0x40021
20101194:	439c                	lw	a5,0(a5)
20101196:	00a7d533          	srl	a0,a5,a0
2010119a:	8905                	andi	a0,a0,1
2010119c:	8082                	ret
2010119e:	4709                	li	a4,2
201011a0:	00e79663          	bne	a5,a4,201011ac <RCC_GetFlagStatus+0x26>
201011a4:	400217b7          	lui	a5,0x40021
201011a8:	53dc                	lw	a5,36(a5)
201011aa:	b7f5                	j	20101196 <RCC_GetFlagStatus+0x10>
201011ac:	400217b7          	lui	a5,0x40021
201011b0:	579c                	lw	a5,40(a5)
201011b2:	b7d5                	j	20101196 <RCC_GetFlagStatus+0x10>

201011b4 <RCC_ClearFlag>:
201011b4:	40021737          	lui	a4,0x40021
201011b8:	571c                	lw	a5,40(a4)
201011ba:	29879793          	bseti	a5,a5,0x18
201011be:	d71c                	sw	a5,40(a4)
201011c0:	8082                	ret

201011c2 <USART_Init>:
201011c2:	8c2ff2ef          	jal	t0,20100284 <__riscv_save_0>
201011c6:	259e                	lhu	a5,8(a1)
201011c8:	777d                	lui	a4,0xfffff
201011ca:	66bd                	lui	a3,0xf
201011cc:	8f7d                	and	a4,a4,a5
201011ce:	1141                	addi	sp,sp,-16
201011d0:	842a                	mv	s0,a0
201011d2:	84ae                	mv	s1,a1
201011d4:	00d71b63          	bne	a4,a3,201011ea <USART_Init+0x28>
201011d8:	2d5a                	lhu	a4,28(a0)
201011da:	8bb1                	andi	a5,a5,12
201011dc:	08074733          	zext.h	a4,a4
201011e0:	9b4d                	andi	a4,a4,-13
201011e2:	8fd9                	or	a5,a5,a4
201011e4:	ad5e                	sh	a5,28(a0)
201011e6:	00059423          	sh	zero,8(a1)
201011ea:	281a                	lhu	a4,16(s0)
201011ec:	77f5                	lui	a5,0xffffd
201011ee:	17fd                	addi	a5,a5,-1 # ffffcfff <_eusrstack+0xdfe7cfff>
201011f0:	8f7d                	and	a4,a4,a5
201011f2:	20fe                	lhu	a5,6(s1)
201011f4:	850a                	mv	a0,sp
201011f6:	8fd9                	or	a5,a5,a4
201011f8:	a81e                	sh	a5,16(s0)
201011fa:	245a                	lhu	a4,12(s0)
201011fc:	678d                	lui	a5,0x3
201011fe:	9f378793          	addi	a5,a5,-1549 # 29f3 <__stack_size+0x21f3>
20101202:	8f7d                	and	a4,a4,a5
20101204:	20de                	lhu	a5,4(s1)
20101206:	8fd9                	or	a5,a5,a4
20101208:	249a                	lhu	a4,8(s1)
2010120a:	8fd9                	or	a5,a5,a4
2010120c:	24ba                	lhu	a4,10(s1)
2010120e:	8fd9                	or	a5,a5,a4
20101210:	a45e                	sh	a5,12(s0)
20101212:	285e                	lhu	a5,20(s0)
20101214:	24da                	lhu	a4,12(s1)
20101216:	0807c7b3          	zext.h	a5,a5
2010121a:	cff7f793          	andi	a5,a5,-769
2010121e:	8fd9                	or	a5,a5,a4
20101220:	a85e                	sh	a5,20(s0)
20101222:	3399                	jal	20100f68 <RCC_GetClocksFreq>
20101224:	4792                	lw	a5,4(sp)
20101226:	4565                	li	a0,25
20101228:	4090                	lw	a2,0(s1)
2010122a:	02f535b3          	mulhu	a1,a0,a5
2010122e:	4681                	li	a3,0
20101230:	060a                	slli	a2,a2,0x2
20101232:	02f50533          	mul	a0,a0,a5
20101236:	13b000ef          	jal	ra,20101b70 <__udivdi3>
2010123a:	06400693          	li	a3,100
2010123e:	02d557b3          	divu	a5,a0,a3
20101242:	63f00613          	li	a2,1599
20101246:	00479713          	slli	a4,a5,0x4
2010124a:	02d577b3          	remu	a5,a0,a3
2010124e:	0792                	slli	a5,a5,0x4
20101250:	03278793          	addi	a5,a5,50
20101254:	00f67a63          	bgeu	a2,a5,20101268 <USART_Init+0xa6>
20101258:	01070793          	addi	a5,a4,16 # fffff010 <_eusrstack+0xdfe7f010>
2010125c:	0807c7b3          	zext.h	a5,a5
20101260:	a41e                	sh	a5,8(s0)
20101262:	0141                	addi	sp,sp,16
20101264:	844ff06f          	j	201002a8 <__riscv_restore_0>
20101268:	02d7d7b3          	divu	a5,a5,a3
2010126c:	8fd9                	or	a5,a5,a4
2010126e:	b7fd                	j	2010125c <USART_Init+0x9a>

20101270 <USART_Cmd>:
20101270:	255e                	lhu	a5,12(a0)
20101272:	c589                	beqz	a1,2010127c <USART_Cmd+0xc>
20101274:	28d79793          	bseti	a5,a5,0xd
20101278:	a55e                	sh	a5,12(a0)
2010127a:	8082                	ret
2010127c:	7779                	lui	a4,0xffffe
2010127e:	177d                	addi	a4,a4,-1 # ffffdfff <_eusrstack+0xdfe7dfff>
20101280:	8ff9                	and	a5,a5,a4
20101282:	bfdd                	j	20101278 <USART_Cmd+0x8>

20101284 <USART_SendData>:
20101284:	1ff5f593          	andi	a1,a1,511
20101288:	a14e                	sh	a1,4(a0)
2010128a:	8082                	ret

2010128c <USART_GetFlagStatus>:
2010128c:	210a                	lhu	a0,0(a0)
2010128e:	8d6d                	and	a0,a0,a1
20101290:	00a03533          	snez	a0,a0
20101294:	8082                	ret

20101296 <Delay_Init>:
20101296:	84c1a783          	lw	a5,-1972(gp) # 2012022c <HCLKClock>
2010129a:	000f4737          	lui	a4,0xf4
2010129e:	24070713          	addi	a4,a4,576 # f4240 <_data_lma+0xf0a94>
201012a2:	02e7d7b3          	divu	a5,a5,a4
201012a6:	84f19c23          	sh	a5,-1960(gp) # 20120238 <p_us>
201012aa:	3e800713          	li	a4,1000
201012ae:	02e787b3          	mul	a5,a5,a4
201012b2:	84f1aa23          	sw	a5,-1964(gp) # 20120234 <p_ms>
201012b6:	8082                	ret

201012b8 <Delay_Us>:
201012b8:	e000f7b7          	lui	a5,0xe000f
201012bc:	43d8                	lw	a4,4(a5)
201012be:	9b79                	andi	a4,a4,-2
201012c0:	c3d8                	sw	a4,4(a5)
201012c2:	8581d703          	lhu	a4,-1960(gp) # 20120238 <p_us>
201012c6:	0007a423          	sw	zero,8(a5) # e000f008 <_eusrstack+0xbfe8f008>
201012ca:	02a70733          	mul	a4,a4,a0
201012ce:	cb98                	sw	a4,16(a5)
201012d0:	4711                	li	a4,4
201012d2:	c398                	sw	a4,0(a5)
201012d4:	4398                	lw	a4,0(a5)
201012d6:	00176713          	ori	a4,a4,1
201012da:	c398                	sw	a4,0(a5)
201012dc:	43d8                	lw	a4,4(a5)
201012de:	8b05                	andi	a4,a4,1
201012e0:	df75                	beqz	a4,201012dc <Delay_Us+0x24>
201012e2:	4398                	lw	a4,0(a5)
201012e4:	9b79                	andi	a4,a4,-2
201012e6:	c398                	sw	a4,0(a5)
201012e8:	8082                	ret

201012ea <Delay_Ms>:
201012ea:	e000f7b7          	lui	a5,0xe000f
201012ee:	43d8                	lw	a4,4(a5)
201012f0:	9b79                	andi	a4,a4,-2
201012f2:	c3d8                	sw	a4,4(a5)
201012f4:	8541a703          	lw	a4,-1964(gp) # 20120234 <p_ms>
201012f8:	0007a423          	sw	zero,8(a5) # e000f008 <_eusrstack+0xbfe8f008>
201012fc:	02e50533          	mul	a0,a0,a4
20101300:	4711                	li	a4,4
20101302:	cb88                	sw	a0,16(a5)
20101304:	c398                	sw	a4,0(a5)
20101306:	4398                	lw	a4,0(a5)
20101308:	00176713          	ori	a4,a4,1
2010130c:	c398                	sw	a4,0(a5)
2010130e:	43d8                	lw	a4,4(a5)
20101310:	8b05                	andi	a4,a4,1
20101312:	df75                	beqz	a4,2010130e <Delay_Ms+0x24>
20101314:	4398                	lw	a4,0(a5)
20101316:	9b79                	andi	a4,a4,-2
20101318:	c398                	sw	a4,0(a5)
2010131a:	8082                	ret

2010131c <USART_Printf_Init>:
2010131c:	f69fe2ef          	jal	t0,20100284 <__riscv_save_0>
20101320:	842a                	mv	s0,a0
20101322:	6511                	lui	a0,0x4
20101324:	1101                	addi	sp,sp,-32
20101326:	4585                	li	a1,1
20101328:	0515                	addi	a0,a0,5 # 4005 <_data_lma+0x859>
2010132a:	400114b7          	lui	s1,0x40011
2010132e:	c202                	sw	zero,4(sp)
20101330:	c402                	sw	zero,8(sp)
20101332:	c602                	sw	zero,12(sp)
20101334:	c802                	sw	zero,16(sp)
20101336:	ca02                	sw	zero,20(sp)
20101338:	cc02                	sw	zero,24(sp)
2010133a:	ce02                	sw	zero,28(sp)
2010133c:	3bdd                	jal	20101132 <RCC_HB2PeriphClockCmd>
2010133e:	461d                	li	a2,7
20101340:	80048513          	addi	a0,s1,-2048 # 40010800 <_eusrstack+0x1fe90800>
20101344:	45a5                	li	a1,9
20101346:	f06ff0ef          	jal	ra,20100a4c <GPIO_PinAFConfig>
2010134a:	20000793          	li	a5,512
2010134e:	827c                	sh	a5,4(sp)
20101350:	478d                	li	a5,3
20101352:	c43e                	sw	a5,8(sp)
20101354:	004c                	addi	a1,sp,4
20101356:	47e1                	li	a5,24
20101358:	80048513          	addi	a0,s1,-2048
2010135c:	c63e                	sw	a5,12(sp)
2010135e:	e0eff0ef          	jal	ra,2010096c <GPIO_Init>
20101362:	c822                	sw	s0,16(sp)
20101364:	40014437          	lui	s0,0x40014
20101368:	000807b7          	lui	a5,0x80
2010136c:	080c                	addi	a1,sp,16
2010136e:	80040513          	addi	a0,s0,-2048 # 40013800 <_eusrstack+0x1fe93800>
20101372:	cc3e                	sw	a5,24(sp)
20101374:	ca02                	sw	zero,20(sp)
20101376:	00011e23          	sh	zero,28(sp)
2010137a:	35a1                	jal	201011c2 <USART_Init>
2010137c:	4585                	li	a1,1
2010137e:	80040513          	addi	a0,s0,-2048
20101382:	35fd                	jal	20101270 <USART_Cmd>
20101384:	6105                	addi	sp,sp,32
20101386:	f23fe06f          	j	201002a8 <__riscv_restore_0>

2010138a <_write>:
2010138a:	ee1fe2ef          	jal	t0,2010026a <__riscv_save_4>
2010138e:	40014937          	lui	s2,0x40014
20101392:	89ae                	mv	s3,a1
20101394:	8432                	mv	s0,a2
20101396:	4481                	li	s1,0
20101398:	80090913          	addi	s2,s2,-2048 # 40013800 <_eusrstack+0x1fe93800>
2010139c:	0084c563          	blt	s1,s0,201013a6 <_write+0x1c>
201013a0:	8522                	mv	a0,s0
201013a2:	efdfe06f          	j	2010029e <__riscv_restore_4>
201013a6:	04000593          	li	a1,64
201013aa:	854a                	mv	a0,s2
201013ac:	35c5                	jal	2010128c <USART_GetFlagStatus>
201013ae:	dd65                	beqz	a0,201013a6 <_write+0x1c>
201013b0:	009987b3          	add	a5,s3,s1
201013b4:	00078583          	lb	a1,0(a5) # 80000 <_data_lma+0x7c854>
201013b8:	854a                	mv	a0,s2
201013ba:	0485                	addi	s1,s1,1
201013bc:	0805c5b3          	zext.h	a1,a1
201013c0:	35d1                	jal	20101284 <USART_SendData>
201013c2:	bfe9                	j	2010139c <_write+0x12>

201013c4 <_sbrk>:
201013c4:	201206b7          	lui	a3,0x20120
201013c8:	87aa                	mv	a5,a0
201013ca:	1fc6a503          	lw	a0,508(a3) # 201201fc <curbrk.0>
201013ce:	88418713          	addi	a4,gp,-1916 # 20120264 <_ebss>
201013d2:	97aa                	add	a5,a5,a0
201013d4:	00e7eb63          	bltu	a5,a4,201013ea <_sbrk+0x26>
201013d8:	20180737          	lui	a4,0x20180
201013dc:	80070713          	addi	a4,a4,-2048 # 2017f800 <_heap_end>
201013e0:	00f76563          	bltu	a4,a5,201013ea <_sbrk+0x26>
201013e4:	1ef6ae23          	sw	a5,508(a3)
201013e8:	8082                	ret
201013ea:	557d                	li	a0,-1
201013ec:	8082                	ret

201013ee <DVP_Function_Init>:
201013ee:	e97fe2ef          	jal	t0,20100284 <__riscv_save_0>
201013f2:	7179                	addi	sp,sp,-48
201013f4:	02400613          	li	a2,36
201013f8:	4581                	li	a1,0
201013fa:	0068                	addi	a0,sp,12
201013fc:	eb9fe0ef          	jal	ra,201002b4 <memset>
20101400:	4585                	li	a1,1
20101402:	6509                	lui	a0,0x2
20101404:	3b09                	jal	20101116 <RCC_HBPeriphClockCmd>
20101406:	becff0ef          	jal	ra,201007f2 <DVP_DeInit>
2010140a:	32000793          	li	a5,800
2010140e:	877c                	sh	a5,14(sp)
20101410:	8401a783          	lw	a5,-1984(gp) # 20120220 <JPEG_DVPDMAaddr0>
20101414:	0068                	addi	a0,sp,12
20101416:	c83e                	sw	a5,16(sp)
20101418:	201207b7          	lui	a5,0x20120
2010141c:	2007a783          	lw	a5,512(a5) # 20120200 <JPEG_DVPDMAaddr1>
20101420:	ca3e                	sw	a5,20(sp)
20101422:	020007b7          	lui	a5,0x2000
20101426:	d03e                	sw	a5,32(sp)
20101428:	f8000793          	li	a5,-128
2010142c:	02f10223          	sb	a5,36(sp)
20101430:	4785                	li	a5,1
20101432:	d63e                	sw	a5,44(sp)
20101434:	bd4ff0ef          	jal	ra,20100808 <DVP_Init>
20101438:	4501                	li	a0,0
2010143a:	c72ff0ef          	jal	ra,201008ac <DVP_ReceiveCircuitResetCmd>
2010143e:	4501                	li	a0,0
20101440:	c88ff0ef          	jal	ra,201008c8 <DVP_FIFO_ResetCmd>
20101444:	e000e7b7          	lui	a5,0xe000e
20101448:	01000737          	lui	a4,0x1000
2010144c:	10e7a623          	sw	a4,268(a5) # e000e10c <_eusrstack+0xbfe8e10c>
20101450:	46078c23          	sb	zero,1144(a5)
20101454:	4585                	li	a1,1
20101456:	457d                	li	a0,31
20101458:	c8cff0ef          	jal	ra,201008e4 <DVP_ITConfig>
2010145c:	4505                	li	a0,1
2010145e:	c32ff0ef          	jal	ra,20100890 <DVP_DMACmd>
20101462:	4505                	li	a0,1
20101464:	c12ff0ef          	jal	ra,20100876 <DVP_Cmd>
20101468:	6145                	addi	sp,sp,48
2010146a:	e3ffe06f          	j	201002a8 <__riscv_restore_0>

2010146e <DVP_IRQHandler>:
2010146e:	1101                	addi	sp,sp,-32
20101470:	4509                	li	a0,2
20101472:	ce22                	sw	s0,28(sp)
20101474:	cc26                	sw	s1,24(sp)
20101476:	ca4a                	sw	s2,20(sp)
20101478:	c84e                	sw	s3,16(sp)
2010147a:	c652                	sw	s4,12(sp)
2010147c:	c84ff0ef          	jal	ra,20100900 <DVP_GetITStatus>
20101480:	c915                	beqz	a0,201014b4 <DVP_IRQHandler+0x46>
20101482:	4509                	li	a0,2
20101484:	c9eff0ef          	jal	ra,20100922 <DVP_ClearITPendingBit>
20101488:	8601a783          	lw	a5,-1952(gp) # 20120240 <href_cnt>
2010148c:	0785                	addi	a5,a5,1
2010148e:	86f1a023          	sw	a5,-1952(gp) # 20120240 <href_cnt>
20101492:	8641a703          	lw	a4,-1948(gp) # 20120244 <addr_cnt>
20101496:	8b05                	andi	a4,a4,1
20101498:	c371                	beqz	a4,2010155c <DVP_IRQHandler+0xee>
2010149a:	8641a703          	lw	a4,-1948(gp) # 20120244 <addr_cnt>
2010149e:	0705                	addi	a4,a4,1 # 1000001 <_data_lma+0xffc855>
201014a0:	86e1a223          	sw	a4,-1948(gp) # 20120244 <addr_cnt>
201014a4:	400267b7          	lui	a5,0x40026
201014a8:	80078793          	addi	a5,a5,-2048 # 40025800 <_eusrstack+0x1fea5800>
201014ac:	47d8                	lw	a4,12(a5)
201014ae:	64070713          	addi	a4,a4,1600
201014b2:	c7d8                	sw	a4,12(a5)
201014b4:	4511                	li	a0,4
201014b6:	c4aff0ef          	jal	ra,20100900 <DVP_GetITStatus>
201014ba:	cd39                	beqz	a0,20101518 <DVP_IRQHandler+0xaa>
201014bc:	4511                	li	a0,4
201014be:	c64ff0ef          	jal	ra,20100922 <DVP_ClearITPendingBit>
201014c2:	4501                	li	a0,0
201014c4:	bb2ff0ef          	jal	ra,20100876 <DVP_Cmd>
201014c8:	8601a783          	lw	a5,-1952(gp) # 20120240 <href_cnt>
201014cc:	32000713          	li	a4,800
201014d0:	40014937          	lui	s2,0x40014
201014d4:	02e787b3          	mul	a5,a5,a4
201014d8:	4481                	li	s1,0
201014da:	20140a37          	lui	s4,0x20140
201014de:	80090913          	addi	s2,s2,-2048 # 40013800 <_eusrstack+0x1fe93800>
201014e2:	86f1a023          	sw	a5,-1952(gp) # 20120240 <href_cnt>
201014e6:	8601a783          	lw	a5,-1952(gp) # 20120240 <href_cnt>
201014ea:	014489b3          	add	s3,s1,s4
201014ee:	08f4e563          	bltu	s1,a5,20101578 <DVP_IRQHandler+0x10a>
201014f2:	8401a703          	lw	a4,-1984(gp) # 20120220 <JPEG_DVPDMAaddr0>
201014f6:	400267b7          	lui	a5,0x40026
201014fa:	80078793          	addi	a5,a5,-2048 # 40025800 <_eusrstack+0x1fea5800>
201014fe:	c798                	sw	a4,8(a5)
20101500:	20120737          	lui	a4,0x20120
20101504:	20072703          	lw	a4,512(a4) # 20120200 <JPEG_DVPDMAaddr1>
20101508:	4505                	li	a0,1
2010150a:	c7d8                	sw	a4,12(a5)
2010150c:	8601a023          	sw	zero,-1952(gp) # 20120240 <href_cnt>
20101510:	8601a223          	sw	zero,-1948(gp) # 20120244 <addr_cnt>
20101514:	b62ff0ef          	jal	ra,20100876 <DVP_Cmd>
20101518:	4505                	li	a0,1
2010151a:	be6ff0ef          	jal	ra,20100900 <DVP_GetITStatus>
2010151e:	c909                	beqz	a0,20101530 <DVP_IRQHandler+0xc2>
20101520:	4505                	li	a0,1
20101522:	c00ff0ef          	jal	ra,20100922 <DVP_ClearITPendingBit>
20101526:	8681a783          	lw	a5,-1944(gp) # 20120248 <frame_cnt>
2010152a:	0785                	addi	a5,a5,1
2010152c:	86f1a423          	sw	a5,-1944(gp) # 20120248 <frame_cnt>
20101530:	4541                	li	a0,16
20101532:	bceff0ef          	jal	ra,20100900 <DVP_GetITStatus>
20101536:	c501                	beqz	a0,2010153e <DVP_IRQHandler+0xd0>
20101538:	4541                	li	a0,16
2010153a:	be8ff0ef          	jal	ra,20100922 <DVP_ClearITPendingBit>
2010153e:	4521                	li	a0,8
20101540:	bc0ff0ef          	jal	ra,20100900 <DVP_GetITStatus>
20101544:	c501                	beqz	a0,2010154c <DVP_IRQHandler+0xde>
20101546:	4521                	li	a0,8
20101548:	bdaff0ef          	jal	ra,20100922 <DVP_ClearITPendingBit>
2010154c:	4472                	lw	s0,28(sp)
2010154e:	44e2                	lw	s1,24(sp)
20101550:	4952                	lw	s2,20(sp)
20101552:	49c2                	lw	s3,16(sp)
20101554:	4a32                	lw	s4,12(sp)
20101556:	6105                	addi	sp,sp,32
20101558:	30200073          	mret
2010155c:	8641a703          	lw	a4,-1948(gp) # 20120244 <addr_cnt>
20101560:	0705                	addi	a4,a4,1
20101562:	86e1a223          	sw	a4,-1948(gp) # 20120244 <addr_cnt>
20101566:	400267b7          	lui	a5,0x40026
2010156a:	80078793          	addi	a5,a5,-2048 # 40025800 <_eusrstack+0x1fea5800>
2010156e:	4798                	lw	a4,8(a5)
20101570:	64070713          	addi	a4,a4,1600
20101574:	c798                	sw	a4,8(a5)
20101576:	bf3d                	j	201014b4 <DVP_IRQHandler+0x46>
20101578:	04000593          	li	a1,64
2010157c:	854a                	mv	a0,s2
2010157e:	3339                	jal	2010128c <USART_GetFlagStatus>
20101580:	dd65                	beqz	a0,20101578 <DVP_IRQHandler+0x10a>
20101582:	0009c583          	lbu	a1,0(s3)
20101586:	854a                	mv	a0,s2
20101588:	0485                	addi	s1,s1,1
2010158a:	39ed                	jal	20101284 <USART_SendData>
2010158c:	bfa9                	j	201014e6 <DVP_IRQHandler+0x78>

2010158e <Hardware>:
2010158e:	cf7fe2ef          	jal	t0,20100284 <__riscv_save_0>
20101592:	40011437          	lui	s0,0x40011
20101596:	c0040413          	addi	s0,s0,-1024 # 40010c00 <_eusrstack+0x1fe90c00>
2010159a:	4905                	li	s2,1
2010159c:	4489                	li	s1,2
2010159e:	01242823          	sw	s2,16(s0)
201015a2:	06400513          	li	a0,100
201015a6:	c804                	sw	s1,16(s0)
201015a8:	3389                	jal	201012ea <Delay_Ms>
201015aa:	c844                	sw	s1,20(s0)
201015ac:	1f400513          	li	a0,500
201015b0:	01242a23          	sw	s2,20(s0)
201015b4:	3b1d                	jal	201012ea <Delay_Ms>
201015b6:	06400513          	li	a0,100
201015ba:	01242823          	sw	s2,16(s0)
201015be:	3335                	jal	201012ea <Delay_Ms>
201015c0:	06400513          	li	a0,100
201015c4:	c804                	sw	s1,16(s0)
201015c6:	3315                	jal	201012ea <Delay_Ms>
201015c8:	2ec1                	jal	20101998 <OV2640_Init>
201015ca:	e51d                	bnez	a0,201015f8 <Hardware+0x6a>
201015cc:	3e800513          	li	a0,1000
201015d0:	3b29                	jal	201012ea <Delay_Ms>
201015d2:	23ad                	jal	20101b3c <RGB565_Mode_Init>
201015d4:	3e800513          	li	a0,1000
201015d8:	3b09                	jal	201012ea <Delay_Ms>
201015da:	57c000ef          	jal	ra,20101b56 <JPEG_Mode_Init>
201015de:	3e800513          	li	a0,1000
201015e2:	3321                	jal	201012ea <Delay_Ms>
201015e4:	3529                	jal	201013ee <DVP_Function_Init>
201015e6:	650d                	lui	a0,0x3
201015e8:	36c50513          	addi	a0,a0,876 # 336c <__stack_size+0x2b6c>
201015ec:	25d000ef          	jal	ra,20102048 <puts>
201015f0:	3e800513          	li	a0,1000
201015f4:	39dd                	jal	201012ea <Delay_Ms>
201015f6:	bfed                	j	201015f0 <Hardware+0x62>
201015f8:	3e800513          	li	a0,1000
201015fc:	b7e9                	j	201015c6 <Hardware+0x38>

201015fe <SCCB_GPIO_Init>:
201015fe:	400117b7          	lui	a5,0x40011
20101602:	4398                	lw	a4,0(a5)
20101604:	9b41                	andi	a4,a4,-16
20101606:	c398                	sw	a4,0(a5)
20101608:	4398                	lw	a4,0(a5)
2010160a:	00376713          	ori	a4,a4,3
2010160e:	c398                	sw	a4,0(a5)
20101610:	4398                	lw	a4,0(a5)
20101612:	f0f77713          	andi	a4,a4,-241
20101616:	c398                	sw	a4,0(a5)
20101618:	4398                	lw	a4,0(a5)
2010161a:	03076713          	ori	a4,a4,48
2010161e:	c398                	sw	a4,0(a5)
20101620:	4705                	li	a4,1
20101622:	cb98                	sw	a4,16(a5)
20101624:	4709                	li	a4,2
20101626:	cb98                	sw	a4,16(a5)
20101628:	8082                	ret

2010162a <SCCB_Start>:
2010162a:	c5bfe2ef          	jal	t0,20100284 <__riscv_save_0>
2010162e:	40011437          	lui	s0,0x40011
20101632:	4909                	li	s2,2
20101634:	01242823          	sw	s2,16(s0) # 40011010 <_eusrstack+0x1fe91010>
20101638:	4485                	li	s1,1
2010163a:	c804                	sw	s1,16(s0)
2010163c:	03200513          	li	a0,50
20101640:	39a5                	jal	201012b8 <Delay_Us>
20101642:	03200513          	li	a0,50
20101646:	01242a23          	sw	s2,20(s0)
2010164a:	31bd                	jal	201012b8 <Delay_Us>
2010164c:	c844                	sw	s1,20(s0)
2010164e:	c5bfe06f          	j	201002a8 <__riscv_restore_0>

20101652 <SCCB_Stop>:
20101652:	c33fe2ef          	jal	t0,20100284 <__riscv_save_0>
20101656:	40011437          	lui	s0,0x40011
2010165a:	4489                	li	s1,2
2010165c:	c844                	sw	s1,20(s0)
2010165e:	03200513          	li	a0,50
20101662:	3999                	jal	201012b8 <Delay_Us>
20101664:	4785                	li	a5,1
20101666:	c81c                	sw	a5,16(s0)
20101668:	03200513          	li	a0,50
2010166c:	31b1                	jal	201012b8 <Delay_Us>
2010166e:	03200513          	li	a0,50
20101672:	c804                	sw	s1,16(s0)
20101674:	3191                	jal	201012b8 <Delay_Us>
20101676:	c33fe06f          	j	201002a8 <__riscv_restore_0>

2010167a <SCCB_No_Ack>:
2010167a:	c0bfe2ef          	jal	t0,20100284 <__riscv_save_0>
2010167e:	40011437          	lui	s0,0x40011
20101682:	4489                	li	s1,2
20101684:	03200513          	li	a0,50
20101688:	3905                	jal	201012b8 <Delay_Us>
2010168a:	4905                	li	s2,1
2010168c:	c804                	sw	s1,16(s0)
2010168e:	01242823          	sw	s2,16(s0) # 40011010 <_eusrstack+0x1fe91010>
20101692:	03200513          	li	a0,50
20101696:	310d                	jal	201012b8 <Delay_Us>
20101698:	03200513          	li	a0,50
2010169c:	01242a23          	sw	s2,20(s0)
201016a0:	3921                	jal	201012b8 <Delay_Us>
201016a2:	03200513          	li	a0,50
201016a6:	c844                	sw	s1,20(s0)
201016a8:	3901                	jal	201012b8 <Delay_Us>
201016aa:	bfffe06f          	j	201002a8 <__riscv_restore_0>

201016ae <SCCB_WR_Byte>:
201016ae:	bbdfe2ef          	jal	t0,2010026a <__riscv_save_4>
201016b2:	84aa                	mv	s1,a0
201016b4:	4921                	li	s2,8
201016b6:	40011437          	lui	s0,0x40011
201016ba:	4a09                	li	s4,2
201016bc:	4985                	li	s3,1
201016be:	60449793          	sext.b	a5,s1
201016c2:	0607d563          	bgez	a5,2010172c <SCCB_WR_Byte+0x7e>
201016c6:	01442823          	sw	s4,16(s0) # 40011010 <_eusrstack+0x1fe91010>
201016ca:	03200513          	li	a0,50
201016ce:	36ed                	jal	201012b8 <Delay_Us>
201016d0:	03200513          	li	a0,50
201016d4:	01342823          	sw	s3,16(s0)
201016d8:	197d                	addi	s2,s2,-1
201016da:	0486                	slli	s1,s1,0x1
201016dc:	3ef1                	jal	201012b8 <Delay_Us>
201016de:	0ff97913          	zext.b	s2,s2
201016e2:	01342a23          	sw	s3,20(s0)
201016e6:	0ff4f493          	zext.b	s1,s1
201016ea:	fc091ae3          	bnez	s2,201016be <SCCB_WR_Byte+0x10>
201016ee:	401c                	lw	a5,0(s0)
201016f0:	03200513          	li	a0,50
201016f4:	f0f7f793          	andi	a5,a5,-241
201016f8:	c01c                	sw	a5,0(s0)
201016fa:	401c                	lw	a5,0(s0)
201016fc:	0807e793          	ori	a5,a5,128
20101700:	c01c                	sw	a5,0(s0)
20101702:	3e5d                	jal	201012b8 <Delay_Us>
20101704:	03200513          	li	a0,50
20101708:	01342823          	sw	s3,16(s0)
2010170c:	3675                	jal	201012b8 <Delay_Us>
2010170e:	4408                	lw	a0,8(s0)
20101710:	01342a23          	sw	s3,20(s0)
20101714:	401c                	lw	a5,0(s0)
20101716:	48155513          	bexti	a0,a0,0x1
2010171a:	f0f7f793          	andi	a5,a5,-241
2010171e:	c01c                	sw	a5,0(s0)
20101720:	401c                	lw	a5,0(s0)
20101722:	0307e793          	ori	a5,a5,48
20101726:	c01c                	sw	a5,0(s0)
20101728:	b77fe06f          	j	2010029e <__riscv_restore_4>
2010172c:	01442a23          	sw	s4,20(s0)
20101730:	bf69                	j	201016ca <SCCB_WR_Byte+0x1c>

20101732 <SCCB_RD_Byte>:
20101732:	b39fe2ef          	jal	t0,2010026a <__riscv_save_4>
20101736:	400117b7          	lui	a5,0x40011
2010173a:	4398                	lw	a4,0(a5)
2010173c:	4921                	li	s2,8
2010173e:	4401                	li	s0,0
20101740:	f0f77713          	andi	a4,a4,-241
20101744:	c398                	sw	a4,0(a5)
20101746:	4398                	lw	a4,0(a5)
20101748:	400114b7          	lui	s1,0x40011
2010174c:	4985                	li	s3,1
2010174e:	08076713          	ori	a4,a4,128
20101752:	c398                	sw	a4,0(a5)
20101754:	03200513          	li	a0,50
20101758:	b61ff0ef          	jal	ra,201012b8 <Delay_Us>
2010175c:	0134a823          	sw	s3,16(s1) # 40011010 <_eusrstack+0x1fe91010>
20101760:	449c                	lw	a5,8(s1)
20101762:	0406                	slli	s0,s0,0x1
20101764:	0ff47413          	zext.b	s0,s0
20101768:	8b89                	andi	a5,a5,2
2010176a:	c781                	beqz	a5,20101772 <SCCB_RD_Byte+0x40>
2010176c:	0405                	addi	s0,s0,1
2010176e:	0ff47413          	zext.b	s0,s0
20101772:	03200513          	li	a0,50
20101776:	197d                	addi	s2,s2,-1
20101778:	b41ff0ef          	jal	ra,201012b8 <Delay_Us>
2010177c:	0ff97913          	zext.b	s2,s2
20101780:	0134aa23          	sw	s3,20(s1)
20101784:	fc0918e3          	bnez	s2,20101754 <SCCB_RD_Byte+0x22>
20101788:	409c                	lw	a5,0(s1)
2010178a:	8522                	mv	a0,s0
2010178c:	f0f7f793          	andi	a5,a5,-241
20101790:	c09c                	sw	a5,0(s1)
20101792:	409c                	lw	a5,0(s1)
20101794:	0307e793          	ori	a5,a5,48
20101798:	c09c                	sw	a5,0(s1)
2010179a:	b05fe06f          	j	2010029e <__riscv_restore_4>

2010179e <SCCB_WR_Reg>:
2010179e:	ae7fe2ef          	jal	t0,20100284 <__riscv_save_0>
201017a2:	84ae                	mv	s1,a1
201017a4:	892a                	mv	s2,a0
201017a6:	3551                	jal	2010162a <SCCB_Start>
201017a8:	06000513          	li	a0,96
201017ac:	3709                	jal	201016ae <SCCB_WR_Byte>
201017ae:	842a                	mv	s0,a0
201017b0:	06400513          	li	a0,100
201017b4:	b05ff0ef          	jal	ra,201012b8 <Delay_Us>
201017b8:	854a                	mv	a0,s2
201017ba:	3dd5                	jal	201016ae <SCCB_WR_Byte>
201017bc:	8c49                	or	s0,s0,a0
201017be:	06400513          	li	a0,100
201017c2:	af7ff0ef          	jal	ra,201012b8 <Delay_Us>
201017c6:	8526                	mv	a0,s1
201017c8:	35dd                	jal	201016ae <SCCB_WR_Byte>
201017ca:	c511                	beqz	a0,201017d6 <SCCB_WR_Reg+0x38>
201017cc:	4405                	li	s0,1
201017ce:	3551                	jal	20101652 <SCCB_Stop>
201017d0:	8522                	mv	a0,s0
201017d2:	ad7fe06f          	j	201002a8 <__riscv_restore_0>
201017d6:	0ff47413          	zext.b	s0,s0
201017da:	00803433          	snez	s0,s0
201017de:	bfc5                	j	201017ce <SCCB_WR_Reg+0x30>

201017e0 <SCCB_RD_Reg>:
201017e0:	aa5fe2ef          	jal	t0,20100284 <__riscv_save_0>
201017e4:	1141                	addi	sp,sp,-16
201017e6:	842a                	mv	s0,a0
201017e8:	3589                	jal	2010162a <SCCB_Start>
201017ea:	06000513          	li	a0,96
201017ee:	35c1                	jal	201016ae <SCCB_WR_Byte>
201017f0:	06400513          	li	a0,100
201017f4:	ac5ff0ef          	jal	ra,201012b8 <Delay_Us>
201017f8:	8522                	mv	a0,s0
201017fa:	3d55                	jal	201016ae <SCCB_WR_Byte>
201017fc:	06400513          	li	a0,100
20101800:	ab9ff0ef          	jal	ra,201012b8 <Delay_Us>
20101804:	35b9                	jal	20101652 <SCCB_Stop>
20101806:	06400513          	li	a0,100
2010180a:	aafff0ef          	jal	ra,201012b8 <Delay_Us>
2010180e:	3d31                	jal	2010162a <SCCB_Start>
20101810:	06100513          	li	a0,97
20101814:	3d69                	jal	201016ae <SCCB_WR_Byte>
20101816:	06400513          	li	a0,100
2010181a:	a9fff0ef          	jal	ra,201012b8 <Delay_Us>
2010181e:	3f11                	jal	20101732 <SCCB_RD_Byte>
20101820:	c62a                	sw	a0,12(sp)
20101822:	3da1                	jal	2010167a <SCCB_No_Ack>
20101824:	353d                	jal	20101652 <SCCB_Stop>
20101826:	4532                	lw	a0,12(sp)
20101828:	0141                	addi	sp,sp,16
2010182a:	a7ffe06f          	j	201002a8 <__riscv_restore_0>

2010182e <DVP_GPIO_Init>:
2010182e:	a57fe2ef          	jal	t0,20100284 <__riscv_save_0>
20101832:	1141                	addi	sp,sp,-16
20101834:	4585                	li	a1,1
20101836:	07900513          	li	a0,121
2010183a:	40011437          	lui	s0,0x40011
2010183e:	c202                	sw	zero,4(sp)
20101840:	c402                	sw	zero,8(sp)
20101842:	c602                	sw	zero,12(sp)
20101844:	8efff0ef          	jal	ra,20101132 <RCC_HB2PeriphClockCmd>
20101848:	47c1                	li	a5,16
2010184a:	448d                	li	s1,3
2010184c:	004c                	addi	a1,sp,4
2010184e:	c0040513          	addi	a0,s0,-1024 # 40010c00 <_eusrstack+0x1fe90c00>
20101852:	c63e                	sw	a5,12(sp)
20101854:	8264                	sh	s1,4(sp)
20101856:	c426                	sw	s1,8(sp)
20101858:	914ff0ef          	jal	ra,2010096c <GPIO_Init>
2010185c:	04800913          	li	s2,72
20101860:	004c                	addi	a1,sp,4
20101862:	40011537          	lui	a0,0x40011
20101866:	8264                	sh	s1,4(sp)
20101868:	c64a                	sw	s2,12(sp)
2010186a:	902ff0ef          	jal	ra,2010096c <GPIO_Init>
2010186e:	4635                	li	a2,13
20101870:	c0040513          	addi	a0,s0,-1024
20101874:	459d                	li	a1,7
20101876:	9d6ff0ef          	jal	ra,20100a4c <GPIO_PinAFConfig>
2010187a:	08000793          	li	a5,128
2010187e:	004c                	addi	a1,sp,4
20101880:	c0040513          	addi	a0,s0,-1024
20101884:	827c                	sh	a5,4(sp)
20101886:	c64a                	sw	s2,12(sp)
20101888:	8e4ff0ef          	jal	ra,2010096c <GPIO_Init>
2010188c:	c0040513          	addi	a0,s0,-1024
20101890:	463d                	li	a2,15
20101892:	45b1                	li	a1,12
20101894:	9b8ff0ef          	jal	ra,20100a4c <GPIO_PinAFConfig>
20101898:	4621                	li	a2,8
2010189a:	c0040513          	addi	a0,s0,-1024
2010189e:	45b5                	li	a1,13
201018a0:	9acff0ef          	jal	ra,20100a4c <GPIO_PinAFConfig>
201018a4:	6789                	lui	a5,0x2
201018a6:	004c                	addi	a1,sp,4
201018a8:	c0040513          	addi	a0,s0,-1024
201018ac:	827c                	sh	a5,4(sp)
201018ae:	400124b7          	lui	s1,0x40012
201018b2:	c64a                	sw	s2,12(sp)
201018b4:	8b8ff0ef          	jal	ra,2010096c <GPIO_Init>
201018b8:	80048513          	addi	a0,s1,-2048 # 40011800 <_eusrstack+0x1fe91800>
201018bc:	462d                	li	a2,11
201018be:	4581                	li	a1,0
201018c0:	98cff0ef          	jal	ra,20100a4c <GPIO_PinAFConfig>
201018c4:	80048513          	addi	a0,s1,-2048
201018c8:	462d                	li	a2,11
201018ca:	4585                	li	a1,1
201018cc:	980ff0ef          	jal	ra,20100a4c <GPIO_PinAFConfig>
201018d0:	80048513          	addi	a0,s1,-2048
201018d4:	4635                	li	a2,13
201018d6:	4589                	li	a1,2
201018d8:	974ff0ef          	jal	ra,20100a4c <GPIO_PinAFConfig>
201018dc:	80048513          	addi	a0,s1,-2048
201018e0:	4635                	li	a2,13
201018e2:	458d                	li	a1,3
201018e4:	968ff0ef          	jal	ra,20100a4c <GPIO_PinAFConfig>
201018e8:	80048513          	addi	a0,s1,-2048
201018ec:	4635                	li	a2,13
201018ee:	4591                	li	a1,4
201018f0:	95cff0ef          	jal	ra,20100a4c <GPIO_PinAFConfig>
201018f4:	80048513          	addi	a0,s1,-2048
201018f8:	4635                	li	a2,13
201018fa:	4595                	li	a1,5
201018fc:	950ff0ef          	jal	ra,20100a4c <GPIO_PinAFConfig>
20101900:	4635                	li	a2,13
20101902:	80048513          	addi	a0,s1,-2048
20101906:	4599                	li	a1,6
20101908:	944ff0ef          	jal	ra,20100a4c <GPIO_PinAFConfig>
2010190c:	07f00793          	li	a5,127
20101910:	004c                	addi	a1,sp,4
20101912:	80048513          	addi	a0,s1,-2048
20101916:	827c                	sh	a5,4(sp)
20101918:	c64a                	sw	s2,12(sp)
2010191a:	852ff0ef          	jal	ra,2010096c <GPIO_Init>
2010191e:	4635                	li	a2,13
20101920:	c0040513          	addi	a0,s0,-1024
20101924:	4599                	li	a1,6
20101926:	926ff0ef          	jal	ra,20100a4c <GPIO_PinAFConfig>
2010192a:	04000793          	li	a5,64
2010192e:	004c                	addi	a1,sp,4
20101930:	c0040513          	addi	a0,s0,-1024
20101934:	827c                	sh	a5,4(sp)
20101936:	c64a                	sw	s2,12(sp)
20101938:	834ff0ef          	jal	ra,2010096c <GPIO_Init>
2010193c:	4635                	li	a2,13
2010193e:	45a9                	li	a1,10
20101940:	40011537          	lui	a0,0x40011
20101944:	908ff0ef          	jal	ra,20100a4c <GPIO_PinAFConfig>
20101948:	4635                	li	a2,13
2010194a:	45b1                	li	a1,12
2010194c:	40011537          	lui	a0,0x40011
20101950:	8fcff0ef          	jal	ra,20100a4c <GPIO_PinAFConfig>
20101954:	6785                	lui	a5,0x1
20101956:	40078793          	addi	a5,a5,1024 # 1400 <__stack_size+0xc00>
2010195a:	004c                	addi	a1,sp,4
2010195c:	40011537          	lui	a0,0x40011
20101960:	827c                	sh	a5,4(sp)
20101962:	c64a                	sw	s2,12(sp)
20101964:	808ff0ef          	jal	ra,2010096c <GPIO_Init>
20101968:	40040513          	addi	a0,s0,1024
2010196c:	4635                	li	a2,13
2010196e:	4599                	li	a1,6
20101970:	8dcff0ef          	jal	ra,20100a4c <GPIO_PinAFConfig>
20101974:	4635                	li	a2,13
20101976:	40040513          	addi	a0,s0,1024
2010197a:	4589                	li	a1,2
2010197c:	8d0ff0ef          	jal	ra,20100a4c <GPIO_PinAFConfig>
20101980:	04400793          	li	a5,68
20101984:	004c                	addi	a1,sp,4
20101986:	40040513          	addi	a0,s0,1024
2010198a:	827c                	sh	a5,4(sp)
2010198c:	c64a                	sw	s2,12(sp)
2010198e:	fdffe0ef          	jal	ra,2010096c <GPIO_Init>
20101992:	0141                	addi	sp,sp,16
20101994:	915fe06f          	j	201002a8 <__riscv_restore_0>

20101998 <OV2640_Init>:
20101998:	8edfe2ef          	jal	t0,20100284 <__riscv_save_0>
2010199c:	3d49                	jal	2010182e <DVP_GPIO_Init>
2010199e:	40011437          	lui	s0,0x40011
201019a2:	4785                	li	a5,1
201019a4:	c0040413          	addi	s0,s0,-1024 # 40010c00 <_eusrstack+0x1fe90c00>
201019a8:	c85c                	sw	a5,20(s0)
201019aa:	4529                	li	a0,10
201019ac:	93fff0ef          	jal	ra,201012ea <Delay_Ms>
201019b0:	4489                	li	s1,2
201019b2:	4529                	li	a0,10
201019b4:	c844                	sw	s1,20(s0)
201019b6:	935ff0ef          	jal	ra,201012ea <Delay_Ms>
201019ba:	c804                	sw	s1,16(s0)
201019bc:	c43ff0ef          	jal	ra,201015fe <SCCB_GPIO_Init>
201019c0:	4585                	li	a1,1
201019c2:	0ff00513          	li	a0,255
201019c6:	3be1                	jal	2010179e <SCCB_WR_Reg>
201019c8:	08000593          	li	a1,128
201019cc:	4549                	li	a0,18
201019ce:	3bc1                	jal	2010179e <SCCB_WR_Reg>
201019d0:	03200513          	li	a0,50
201019d4:	917ff0ef          	jal	ra,201012ea <Delay_Ms>
201019d8:	4571                	li	a0,28
201019da:	3519                	jal	201017e0 <SCCB_RD_Reg>
201019dc:	00851413          	slli	s0,a0,0x8
201019e0:	4575                	li	a0,29
201019e2:	3bfd                	jal	201017e0 <SCCB_RD_Reg>
201019e4:	67a1                	lui	a5,0x8
201019e6:	08044433          	zext.h	s0,s0
201019ea:	fa278793          	addi	a5,a5,-94 # 7fa2 <_data_lma+0x47f6>
201019ee:	008565b3          	or	a1,a0,s0
201019f2:	0805c5b3          	zext.h	a1,a1
201019f6:	00f58963          	beq	a1,a5,20101a08 <OV2640_Init+0x70>
201019fa:	650d                	lui	a0,0x3
201019fc:	37c50513          	addi	a0,a0,892 # 337c <__stack_size+0x2b7c>
20101a00:	2329                	jal	20101f0a <iprintf>
20101a02:	4505                	li	a0,1
20101a04:	8a5fe06f          	j	201002a8 <__riscv_restore_0>
20101a08:	4529                	li	a0,10
20101a0a:	3bd9                	jal	201017e0 <SCCB_RD_Reg>
20101a0c:	00851413          	slli	s0,a0,0x8
20101a10:	452d                	li	a0,11
20101a12:	33f9                	jal	201017e0 <SCCB_RD_Reg>
20101a14:	6789                	lui	a5,0x2
20101a16:	08044433          	zext.h	s0,s0
20101a1a:	64278793          	addi	a5,a5,1602 # 2642 <__stack_size+0x1e42>
20101a1e:	008565b3          	or	a1,a0,s0
20101a22:	0805c5b3          	zext.h	a1,a1
20101a26:	00f58863          	beq	a1,a5,20101a36 <OV2640_Init+0x9e>
20101a2a:	650d                	lui	a0,0x3
20101a2c:	38850513          	addi	a0,a0,904 # 3388 <__stack_size+0x2b88>
20101a30:	29e9                	jal	20101f0a <iprintf>
20101a32:	4509                	li	a0,2
20101a34:	bfc1                	j	20101a04 <OV2640_Init+0x6c>
20101a36:	640d                	lui	s0,0x3
20101a38:	3d040413          	addi	s0,s0,976 # 33d0 <OV2640_InitRegTbl>
20101a3c:	16440493          	addi	s1,s0,356
20101a40:	300c                	lbu	a1,1(s0)
20101a42:	2008                	lbu	a0,0(s0)
20101a44:	0409                	addi	s0,s0,2
20101a46:	3ba1                	jal	2010179e <SCCB_WR_Reg>
20101a48:	fe941ce3          	bne	s0,s1,20101a40 <OV2640_Init+0xa8>
20101a4c:	4501                	li	a0,0
20101a4e:	bf5d                	j	20101a04 <OV2640_Init+0x6c>

20101a50 <OV2640_JPEG_Mode>:
20101a50:	835fe2ef          	jal	t0,20100284 <__riscv_save_0>
20101a54:	640d                	lui	s0,0x3
20101a56:	3c040413          	addi	s0,s0,960 # 33c0 <OV2640_YUV422RegTbl>
20101a5a:	01040493          	addi	s1,s0,16
20101a5e:	300c                	lbu	a1,1(s0)
20101a60:	2008                	lbu	a0,0(s0)
20101a62:	0409                	addi	s0,s0,2
20101a64:	3b2d                	jal	2010179e <SCCB_WR_Reg>
20101a66:	fe941ce3          	bne	s0,s1,20101a5e <OV2640_JPEG_Mode+0xe>
20101a6a:	640d                	lui	s0,0x3
20101a6c:	3b040413          	addi	s0,s0,944 # 33b0 <OV2640_JPEGRegTbl>
20101a70:	00e40493          	addi	s1,s0,14
20101a74:	300c                	lbu	a1,1(s0)
20101a76:	2008                	lbu	a0,0(s0)
20101a78:	0409                	addi	s0,s0,2
20101a7a:	3315                	jal	2010179e <SCCB_WR_Reg>
20101a7c:	fe941ce3          	bne	s0,s1,20101a74 <OV2640_JPEG_Mode+0x24>
20101a80:	829fe06f          	j	201002a8 <__riscv_restore_0>

20101a84 <OV2640_RGB565_Mode>:
20101a84:	801fe2ef          	jal	t0,20100284 <__riscv_save_0>
20101a88:	640d                	lui	s0,0x3
20101a8a:	39440413          	addi	s0,s0,916 # 3394 <OV2640_RGB565RegTbl>
20101a8e:	01c40493          	addi	s1,s0,28
20101a92:	300c                	lbu	a1,1(s0)
20101a94:	2008                	lbu	a0,0(s0)
20101a96:	0409                	addi	s0,s0,2
20101a98:	3319                	jal	2010179e <SCCB_WR_Reg>
20101a9a:	fe941ce3          	bne	s0,s1,20101a92 <OV2640_RGB565_Mode+0xe>
20101a9e:	80bfe06f          	j	201002a8 <__riscv_restore_0>

20101aa2 <OV2640_OutSize_Set>:
20101aa2:	00b567b3          	or	a5,a0,a1
20101aa6:	8b8d                	andi	a5,a5,3
20101aa8:	efb9                	bnez	a5,20101b06 <OV2640_OutSize_Set+0x64>
20101aaa:	fdafe2ef          	jal	t0,20100284 <__riscv_save_0>
20101aae:	84aa                	mv	s1,a0
20101ab0:	842e                	mv	s0,a1
20101ab2:	0ff00513          	li	a0,255
20101ab6:	4581                	li	a1,0
20101ab8:	31dd                	jal	2010179e <SCCB_WR_Reg>
20101aba:	4591                	li	a1,4
20101abc:	0e000513          	li	a0,224
20101ac0:	39f9                	jal	2010179e <SCCB_WR_Reg>
20101ac2:	0024d593          	srli	a1,s1,0x2
20101ac6:	0ff5f593          	zext.b	a1,a1
20101aca:	05a00513          	li	a0,90
20101ace:	cd1ff0ef          	jal	ra,2010179e <SCCB_WR_Reg>
20101ad2:	00245593          	srli	a1,s0,0x2
20101ad6:	0ff5f593          	zext.b	a1,a1
20101ada:	05b00513          	li	a0,91
20101ade:	cc1ff0ef          	jal	ra,2010179e <SCCB_WR_Reg>
20101ae2:	00a4d593          	srli	a1,s1,0xa
20101ae6:	8021                	srli	s0,s0,0x8
20101ae8:	8811                	andi	s0,s0,4
20101aea:	898d                	andi	a1,a1,3
20101aec:	8dc1                	or	a1,a1,s0
20101aee:	05c00513          	li	a0,92
20101af2:	cadff0ef          	jal	ra,2010179e <SCCB_WR_Reg>
20101af6:	4581                	li	a1,0
20101af8:	0e000513          	li	a0,224
20101afc:	ca3ff0ef          	jal	ra,2010179e <SCCB_WR_Reg>
20101b00:	4501                	li	a0,0
20101b02:	fa6fe06f          	j	201002a8 <__riscv_restore_0>
20101b06:	4505                	li	a0,1
20101b08:	8082                	ret

20101b0a <OV2640_Speed_Set>:
20101b0a:	f7afe2ef          	jal	t0,20100284 <__riscv_save_0>
20101b0e:	842e                	mv	s0,a1
20101b10:	84aa                	mv	s1,a0
20101b12:	4581                	li	a1,0
20101b14:	0ff00513          	li	a0,255
20101b18:	c87ff0ef          	jal	ra,2010179e <SCCB_WR_Reg>
20101b1c:	85a6                	mv	a1,s1
20101b1e:	0d300513          	li	a0,211
20101b22:	c7dff0ef          	jal	ra,2010179e <SCCB_WR_Reg>
20101b26:	4585                	li	a1,1
20101b28:	0ff00513          	li	a0,255
20101b2c:	c73ff0ef          	jal	ra,2010179e <SCCB_WR_Reg>
20101b30:	85a2                	mv	a1,s0
20101b32:	4545                	li	a0,17
20101b34:	c6bff0ef          	jal	ra,2010179e <SCCB_WR_Reg>
20101b38:	f70fe06f          	j	201002a8 <__riscv_restore_0>

20101b3c <RGB565_Mode_Init>:
20101b3c:	f48fe2ef          	jal	t0,20100284 <__riscv_save_0>
20101b40:	3791                	jal	20101a84 <OV2640_RGB565_Mode>
20101b42:	14000593          	li	a1,320
20101b46:	0f000513          	li	a0,240
20101b4a:	3fa1                	jal	20101aa2 <OV2640_OutSize_Set>
20101b4c:	4585                	li	a1,1
20101b4e:	4505                	li	a0,1
20101b50:	3f6d                	jal	20101b0a <OV2640_Speed_Set>
20101b52:	f56fe06f          	j	201002a8 <__riscv_restore_0>

20101b56 <JPEG_Mode_Init>:
20101b56:	f2efe2ef          	jal	t0,20100284 <__riscv_save_0>
20101b5a:	3ddd                	jal	20101a50 <OV2640_JPEG_Mode>
20101b5c:	25800593          	li	a1,600
20101b60:	32000513          	li	a0,800
20101b64:	3f3d                	jal	20101aa2 <OV2640_OutSize_Set>
20101b66:	4585                	li	a1,1
20101b68:	4505                	li	a0,1
20101b6a:	3745                	jal	20101b0a <OV2640_Speed_Set>
20101b6c:	f3cfe06f          	j	201002a8 <__riscv_restore_0>

20101b70 <__udivdi3>:
20101b70:	8832                	mv	a6,a2
20101b72:	88aa                	mv	a7,a0
20101b74:	872e                	mv	a4,a1
20101b76:	eacd                	bnez	a3,20101c28 <__udivdi3+0xb8>
20101b78:	0ec5ff63          	bgeu	a1,a2,20101c76 <__udivdi3+0x106>
20101b7c:	67c1                	lui	a5,0x10
20101b7e:	18f66a63          	bltu	a2,a5,20101d12 <__udivdi3+0x1a2>
20101b82:	010007b7          	lui	a5,0x1000
20101b86:	00f637b3          	sltu	a5,a2,a5
20101b8a:	40f007b3          	neg	a5,a5
20101b8e:	9be1                	andi	a5,a5,-8
20101b90:	07e1                	addi	a5,a5,24 # 1000018 <_data_lma+0xffc86c>
20101b92:	00f65333          	srl	t1,a2,a5
20101b96:	dff02697          	auipc	a3,0xdff02
20101b9a:	99e68693          	addi	a3,a3,-1634 # 3534 <__clz_tab>
20101b9e:	969a                	add	a3,a3,t1
20101ba0:	2294                	lbu	a3,0(a3)
20101ba2:	02000313          	li	t1,32
20101ba6:	97b6                	add	a5,a5,a3
20101ba8:	40f306b3          	sub	a3,t1,a5
20101bac:	00f30b63          	beq	t1,a5,20101bc2 <__udivdi3+0x52>
20101bb0:	00d59733          	sll	a4,a1,a3
20101bb4:	00f557b3          	srl	a5,a0,a5
20101bb8:	00d61833          	sll	a6,a2,a3
20101bbc:	8f5d                	or	a4,a4,a5
20101bbe:	00d518b3          	sll	a7,a0,a3
20101bc2:	01085613          	srli	a2,a6,0x10
20101bc6:	02c75533          	divu	a0,a4,a2
20101bca:	080846b3          	zext.h	a3,a6
20101bce:	0108d793          	srli	a5,a7,0x10
20101bd2:	02c77733          	remu	a4,a4,a2
20101bd6:	02a685b3          	mul	a1,a3,a0
20101bda:	0742                	slli	a4,a4,0x10
20101bdc:	8fd9                	or	a5,a5,a4
20101bde:	00b7fa63          	bgeu	a5,a1,20101bf2 <__udivdi3+0x82>
20101be2:	97c2                	add	a5,a5,a6
20101be4:	fff50713          	addi	a4,a0,-1
20101be8:	0107e463          	bltu	a5,a6,20101bf0 <__udivdi3+0x80>
20101bec:	30b7e863          	bltu	a5,a1,20101efc <__udivdi3+0x38c>
20101bf0:	853a                	mv	a0,a4
20101bf2:	8f8d                	sub	a5,a5,a1
20101bf4:	02c7d733          	divu	a4,a5,a2
20101bf8:	0808c8b3          	zext.h	a7,a7
20101bfc:	02c7f7b3          	remu	a5,a5,a2
20101c00:	02e686b3          	mul	a3,a3,a4
20101c04:	07c2                	slli	a5,a5,0x10
20101c06:	00f8e8b3          	or	a7,a7,a5
20101c0a:	00d8fb63          	bgeu	a7,a3,20101c20 <__udivdi3+0xb0>
20101c0e:	98c2                	add	a7,a7,a6
20101c10:	fff70793          	addi	a5,a4,-1
20101c14:	0108e563          	bltu	a7,a6,20101c1e <__udivdi3+0xae>
20101c18:	1779                	addi	a4,a4,-2
20101c1a:	00d8e363          	bltu	a7,a3,20101c20 <__udivdi3+0xb0>
20101c1e:	873e                	mv	a4,a5
20101c20:	0542                	slli	a0,a0,0x10
20101c22:	8d59                	or	a0,a0,a4
20101c24:	4581                	li	a1,0
20101c26:	8082                	ret
20101c28:	00d5f563          	bgeu	a1,a3,20101c32 <__udivdi3+0xc2>
20101c2c:	4581                	li	a1,0
20101c2e:	4501                	li	a0,0
20101c30:	8082                	ret
20101c32:	67c1                	lui	a5,0x10
20101c34:	18f6e563          	bltu	a3,a5,20101dbe <__udivdi3+0x24e>
20101c38:	010007b7          	lui	a5,0x1000
20101c3c:	00f6b7b3          	sltu	a5,a3,a5
20101c40:	40f007b3          	neg	a5,a5
20101c44:	9be1                	andi	a5,a5,-8
20101c46:	07e1                	addi	a5,a5,24 # 1000018 <_data_lma+0xffc86c>
20101c48:	00f6d833          	srl	a6,a3,a5
20101c4c:	dff02717          	auipc	a4,0xdff02
20101c50:	8e870713          	addi	a4,a4,-1816 # 3534 <__clz_tab>
20101c54:	9742                	add	a4,a4,a6
20101c56:	2318                	lbu	a4,0(a4)
20101c58:	02000893          	li	a7,32
20101c5c:	973e                	add	a4,a4,a5
20101c5e:	40e88833          	sub	a6,a7,a4
20101c62:	18e89263          	bne	a7,a4,20101de6 <__udivdi3+0x276>
20101c66:	26b6ed63          	bltu	a3,a1,20101ee0 <__udivdi3+0x370>
20101c6a:	00c53533          	sltu	a0,a0,a2
20101c6e:	00154513          	xori	a0,a0,1
20101c72:	4581                	li	a1,0
20101c74:	8082                	ret
20101c76:	c645                	beqz	a2,20101d1e <__udivdi3+0x1ae>
20101c78:	67c1                	lui	a5,0x10
20101c7a:	24f67b63          	bgeu	a2,a5,20101ed0 <__udivdi3+0x360>
20101c7e:	10063713          	sltiu	a4,a2,256
20101c82:	00174713          	xori	a4,a4,1
20101c86:	070e                	slli	a4,a4,0x3
20101c88:	00e656b3          	srl	a3,a2,a4
20101c8c:	dff02797          	auipc	a5,0xdff02
20101c90:	8a878793          	addi	a5,a5,-1880 # 3534 <__clz_tab>
20101c94:	97b6                	add	a5,a5,a3
20101c96:	239c                	lbu	a5,0(a5)
20101c98:	02000693          	li	a3,32
20101c9c:	97ba                	add	a5,a5,a4
20101c9e:	40f68eb3          	sub	t4,a3,a5
20101ca2:	08f69d63          	bne	a3,a5,20101d3c <__udivdi3+0x1cc>
20101ca6:	40c587b3          	sub	a5,a1,a2
20101caa:	4585                	li	a1,1
20101cac:	01065693          	srli	a3,a2,0x10
20101cb0:	08064633          	zext.h	a2,a2
20101cb4:	02d7d533          	divu	a0,a5,a3
20101cb8:	0108d713          	srli	a4,a7,0x10
20101cbc:	02d7f7b3          	remu	a5,a5,a3
20101cc0:	02c50333          	mul	t1,a0,a2
20101cc4:	07c2                	slli	a5,a5,0x10
20101cc6:	8fd9                	or	a5,a5,a4
20101cc8:	0067fa63          	bgeu	a5,t1,20101cdc <__udivdi3+0x16c>
20101ccc:	97c2                	add	a5,a5,a6
20101cce:	fff50713          	addi	a4,a0,-1
20101cd2:	0107e463          	bltu	a5,a6,20101cda <__udivdi3+0x16a>
20101cd6:	2267e063          	bltu	a5,t1,20101ef6 <__udivdi3+0x386>
20101cda:	853a                	mv	a0,a4
20101cdc:	406787b3          	sub	a5,a5,t1
20101ce0:	02d7d733          	divu	a4,a5,a3
20101ce4:	0808c8b3          	zext.h	a7,a7
20101ce8:	02d7f7b3          	remu	a5,a5,a3
20101cec:	02c70633          	mul	a2,a4,a2
20101cf0:	07c2                	slli	a5,a5,0x10
20101cf2:	00f8e8b3          	or	a7,a7,a5
20101cf6:	00c8fb63          	bgeu	a7,a2,20101d0c <__udivdi3+0x19c>
20101cfa:	98c2                	add	a7,a7,a6
20101cfc:	fff70793          	addi	a5,a4,-1
20101d00:	0108e563          	bltu	a7,a6,20101d0a <__udivdi3+0x19a>
20101d04:	1779                	addi	a4,a4,-2
20101d06:	00c8e363          	bltu	a7,a2,20101d0c <__udivdi3+0x19c>
20101d0a:	873e                	mv	a4,a5
20101d0c:	0542                	slli	a0,a0,0x10
20101d0e:	8d59                	or	a0,a0,a4
20101d10:	8082                	ret
20101d12:	10063793          	sltiu	a5,a2,256
20101d16:	0017c793          	xori	a5,a5,1
20101d1a:	078e                	slli	a5,a5,0x3
20101d1c:	bd9d                	j	20101b92 <__udivdi3+0x22>
20101d1e:	4681                	li	a3,0
20101d20:	dff02797          	auipc	a5,0xdff02
20101d24:	81478793          	addi	a5,a5,-2028 # 3534 <__clz_tab>
20101d28:	97b6                	add	a5,a5,a3
20101d2a:	239c                	lbu	a5,0(a5)
20101d2c:	4701                	li	a4,0
20101d2e:	02000693          	li	a3,32
20101d32:	97ba                	add	a5,a5,a4
20101d34:	40f68eb3          	sub	t4,a3,a5
20101d38:	f6f687e3          	beq	a3,a5,20101ca6 <__udivdi3+0x136>
20101d3c:	01d61833          	sll	a6,a2,t4
20101d40:	00f5d333          	srl	t1,a1,a5
20101d44:	01085693          	srli	a3,a6,0x10
20101d48:	02d35e33          	divu	t3,t1,a3
20101d4c:	01d595b3          	sll	a1,a1,t4
20101d50:	00f557b3          	srl	a5,a0,a5
20101d54:	8fcd                	or	a5,a5,a1
20101d56:	08084633          	zext.h	a2,a6
20101d5a:	0107d713          	srli	a4,a5,0x10
20101d5e:	01d518b3          	sll	a7,a0,t4
20101d62:	02d37333          	remu	t1,t1,a3
20101d66:	03c605b3          	mul	a1,a2,t3
20101d6a:	0342                	slli	t1,t1,0x10
20101d6c:	00676733          	or	a4,a4,t1
20101d70:	00b77b63          	bgeu	a4,a1,20101d86 <__udivdi3+0x216>
20101d74:	9742                	add	a4,a4,a6
20101d76:	fffe0513          	addi	a0,t3,-1 # 1ffffff <_data_lma+0x1ffc853>
20101d7a:	17076a63          	bltu	a4,a6,20101eee <__udivdi3+0x37e>
20101d7e:	16b77863          	bgeu	a4,a1,20101eee <__udivdi3+0x37e>
20101d82:	1e79                	addi	t3,t3,-2
20101d84:	9742                	add	a4,a4,a6
20101d86:	8f0d                	sub	a4,a4,a1
20101d88:	02d75533          	divu	a0,a4,a3
20101d8c:	0807c7b3          	zext.h	a5,a5
20101d90:	02d77733          	remu	a4,a4,a3
20101d94:	02a60333          	mul	t1,a2,a0
20101d98:	0742                	slli	a4,a4,0x10
20101d9a:	8fd9                	or	a5,a5,a4
20101d9c:	0067fb63          	bgeu	a5,t1,20101db2 <__udivdi3+0x242>
20101da0:	97c2                	add	a5,a5,a6
20101da2:	fff50713          	addi	a4,a0,-1
20101da6:	1507e063          	bltu	a5,a6,20101ee6 <__udivdi3+0x376>
20101daa:	1267fe63          	bgeu	a5,t1,20101ee6 <__udivdi3+0x376>
20101dae:	1579                	addi	a0,a0,-2
20101db0:	97c2                	add	a5,a5,a6
20101db2:	010e1593          	slli	a1,t3,0x10
20101db6:	406787b3          	sub	a5,a5,t1
20101dba:	8dc9                	or	a1,a1,a0
20101dbc:	bde5                	j	20101cb4 <__udivdi3+0x144>
20101dbe:	1006b793          	sltiu	a5,a3,256
20101dc2:	0017c793          	xori	a5,a5,1
20101dc6:	078e                	slli	a5,a5,0x3
20101dc8:	00f6d833          	srl	a6,a3,a5
20101dcc:	dff01717          	auipc	a4,0xdff01
20101dd0:	76870713          	addi	a4,a4,1896 # 3534 <__clz_tab>
20101dd4:	9742                	add	a4,a4,a6
20101dd6:	2318                	lbu	a4,0(a4)
20101dd8:	02000893          	li	a7,32
20101ddc:	973e                	add	a4,a4,a5
20101dde:	40e88833          	sub	a6,a7,a4
20101de2:	e8e882e3          	beq	a7,a4,20101c66 <__udivdi3+0xf6>
20101de6:	00e65e33          	srl	t3,a2,a4
20101dea:	010696b3          	sll	a3,a3,a6
20101dee:	00de6e33          	or	t3,t3,a3
20101df2:	00e5d8b3          	srl	a7,a1,a4
20101df6:	010e5e93          	srli	t4,t3,0x10
20101dfa:	03d8d7b3          	divu	a5,a7,t4
20101dfe:	010595b3          	sll	a1,a1,a6
20101e02:	00e55733          	srl	a4,a0,a4
20101e06:	8f4d                	or	a4,a4,a1
20101e08:	080e4333          	zext.h	t1,t3
20101e0c:	01075693          	srli	a3,a4,0x10
20101e10:	01061633          	sll	a2,a2,a6
20101e14:	03d8f8b3          	remu	a7,a7,t4
20101e18:	02f305b3          	mul	a1,t1,a5
20101e1c:	08c2                	slli	a7,a7,0x10
20101e1e:	0116e6b3          	or	a3,a3,a7
20101e22:	00b6fb63          	bgeu	a3,a1,20101e38 <__udivdi3+0x2c8>
20101e26:	96f2                	add	a3,a3,t3
20101e28:	fff78893          	addi	a7,a5,-1
20101e2c:	0dc6e363          	bltu	a3,t3,20101ef2 <__udivdi3+0x382>
20101e30:	0cb6f163          	bgeu	a3,a1,20101ef2 <__udivdi3+0x382>
20101e34:	17f9                	addi	a5,a5,-2
20101e36:	96f2                	add	a3,a3,t3
20101e38:	8e8d                	sub	a3,a3,a1
20101e3a:	03d6d5b3          	divu	a1,a3,t4
20101e3e:	08074733          	zext.h	a4,a4
20101e42:	03d6f6b3          	remu	a3,a3,t4
20101e46:	02b308b3          	mul	a7,t1,a1
20101e4a:	06c2                	slli	a3,a3,0x10
20101e4c:	8f55                	or	a4,a4,a3
20101e4e:	01177b63          	bgeu	a4,a7,20101e64 <__udivdi3+0x2f4>
20101e52:	9772                	add	a4,a4,t3
20101e54:	fff58693          	addi	a3,a1,-1
20101e58:	09c76963          	bltu	a4,t3,20101eea <__udivdi3+0x37a>
20101e5c:	09177763          	bgeu	a4,a7,20101eea <__udivdi3+0x37a>
20101e60:	15f9                	addi	a1,a1,-2
20101e62:	9772                	add	a4,a4,t3
20101e64:	07c2                	slli	a5,a5,0x10
20101e66:	6ec1                	lui	t4,0x10
20101e68:	8fcd                	or	a5,a5,a1
20101e6a:	fffe8693          	addi	a3,t4,-1 # ffff <_data_lma+0xc853>
20101e6e:	00d7f5b3          	and	a1,a5,a3
20101e72:	0107d313          	srli	t1,a5,0x10
20101e76:	8ef1                	and	a3,a3,a2
20101e78:	8241                	srli	a2,a2,0x10
20101e7a:	02d58e33          	mul	t3,a1,a3
20101e7e:	41170733          	sub	a4,a4,a7
20101e82:	02d306b3          	mul	a3,t1,a3
20101e86:	010e5893          	srli	a7,t3,0x10
20101e8a:	02c585b3          	mul	a1,a1,a2
20101e8e:	95b6                	add	a1,a1,a3
20101e90:	95c6                	add	a1,a1,a7
20101e92:	02c30333          	mul	t1,t1,a2
20101e96:	00d5f363          	bgeu	a1,a3,20101e9c <__udivdi3+0x32c>
20101e9a:	9376                	add	t1,t1,t4
20101e9c:	0105d693          	srli	a3,a1,0x10
20101ea0:	969a                	add	a3,a3,t1
20101ea2:	02d76363          	bltu	a4,a3,20101ec8 <__udivdi3+0x358>
20101ea6:	00d70563          	beq	a4,a3,20101eb0 <__udivdi3+0x340>
20101eaa:	853e                	mv	a0,a5
20101eac:	4581                	li	a1,0
20101eae:	8082                	ret
20101eb0:	66c1                	lui	a3,0x10
20101eb2:	16fd                	addi	a3,a3,-1 # ffff <_data_lma+0xc853>
20101eb4:	00d5f733          	and	a4,a1,a3
20101eb8:	0742                	slli	a4,a4,0x10
20101eba:	00de7e33          	and	t3,t3,a3
20101ebe:	01051533          	sll	a0,a0,a6
20101ec2:	9772                	add	a4,a4,t3
20101ec4:	fee573e3          	bgeu	a0,a4,20101eaa <__udivdi3+0x33a>
20101ec8:	fff78513          	addi	a0,a5,-1
20101ecc:	4581                	li	a1,0
20101ece:	8082                	ret
20101ed0:	010007b7          	lui	a5,0x1000
20101ed4:	02f67763          	bgeu	a2,a5,20101f02 <__udivdi3+0x392>
20101ed8:	01065693          	srli	a3,a2,0x10
20101edc:	4741                	li	a4,16
20101ede:	b37d                	j	20101c8c <__udivdi3+0x11c>
20101ee0:	4581                	li	a1,0
20101ee2:	4505                	li	a0,1
20101ee4:	8082                	ret
20101ee6:	853a                	mv	a0,a4
20101ee8:	b5e9                	j	20101db2 <__udivdi3+0x242>
20101eea:	85b6                	mv	a1,a3
20101eec:	bfa5                	j	20101e64 <__udivdi3+0x2f4>
20101eee:	8e2a                	mv	t3,a0
20101ef0:	bd59                	j	20101d86 <__udivdi3+0x216>
20101ef2:	87c6                	mv	a5,a7
20101ef4:	b791                	j	20101e38 <__udivdi3+0x2c8>
20101ef6:	1579                	addi	a0,a0,-2
20101ef8:	97c2                	add	a5,a5,a6
20101efa:	b3cd                	j	20101cdc <__udivdi3+0x16c>
20101efc:	1579                	addi	a0,a0,-2
20101efe:	97c2                	add	a5,a5,a6
20101f00:	b9cd                	j	20101bf2 <__udivdi3+0x82>
20101f02:	01865693          	srli	a3,a2,0x18
20101f06:	4761                	li	a4,24
20101f08:	b351                	j	20101c8c <__udivdi3+0x11c>

20101f0a <iprintf>:
20101f0a:	715d                	addi	sp,sp,-80
20101f0c:	d422                	sw	s0,40(sp)
20101f0e:	d606                	sw	ra,44(sp)
20101f10:	842a                	mv	s0,a0
20101f12:	da2e                	sw	a1,52(sp)
20101f14:	dc32                	sw	a2,56(sp)
20101f16:	de36                	sw	a3,60(sp)
20101f18:	c0ba                	sw	a4,64(sp)
20101f1a:	c2be                	sw	a5,68(sp)
20101f1c:	c4c2                	sw	a6,72(sp)
20101f1e:	c6c6                	sw	a7,76(sp)
20101f20:	8441a503          	lw	a0,-1980(gp) # 20120224 <_impure_ptr>
20101f24:	c511                	beqz	a0,20101f30 <iprintf+0x26>
20101f26:	4d1c                	lw	a5,24(a0)
20101f28:	e781                	bnez	a5,20101f30 <iprintf+0x26>
20101f2a:	c62a                	sw	a0,12(sp)
20101f2c:	2b91                	jal	20102480 <__sinit>
20101f2e:	4532                	lw	a0,12(sp)
20101f30:	450c                	lw	a1,8(a0)
20101f32:	1854                	addi	a3,sp,52
20101f34:	8622                	mv	a2,s0
20101f36:	ce36                	sw	a3,28(sp)
20101f38:	20b000ef          	jal	ra,20102942 <_vfiprintf_r>
20101f3c:	50b2                	lw	ra,44(sp)
20101f3e:	5422                	lw	s0,40(sp)
20101f40:	6161                	addi	sp,sp,80
20101f42:	8082                	ret

20101f44 <_puts_r>:
20101f44:	1101                	addi	sp,sp,-32
20101f46:	ca26                	sw	s1,20(sp)
20101f48:	ce06                	sw	ra,28(sp)
20101f4a:	cc22                	sw	s0,24(sp)
20101f4c:	c84a                	sw	s2,16(sp)
20101f4e:	c64e                	sw	s3,12(sp)
20101f50:	c452                	sw	s4,8(sp)
20101f52:	84aa                	mv	s1,a0
20101f54:	e119                	bnez	a0,20101f5a <_puts_r+0x16>
20101f56:	451c                	lw	a5,8(a0)
20101f58:	9002                	ebreak
20101f5a:	4d1c                	lw	a5,24(a0)
20101f5c:	892e                	mv	s2,a1
20101f5e:	e3ad                	bnez	a5,20101fc0 <_puts_r+0x7c>
20101f60:	2305                	jal	20102480 <__sinit>
20101f62:	4c9c                	lw	a5,24(s1)
20101f64:	4480                	lw	s0,8(s1)
20101f66:	cfb9                	beqz	a5,20101fc4 <_puts_r+0x80>
20101f68:	dff01797          	auipc	a5,0xdff01
20101f6c:	70c78793          	addi	a5,a5,1804 # 3674 <__sf_fake_stdin>
20101f70:	04f41d63          	bne	s0,a5,20101fca <_puts_r+0x86>
20101f74:	40c0                	lw	s0,4(s1)
20101f76:	507c                	lw	a5,100(s0)
20101f78:	8b85                	andi	a5,a5,1
20101f7a:	e799                	bnez	a5,20101f88 <_puts_r+0x44>
20101f7c:	245e                	lhu	a5,12(s0)
20101f7e:	2007f793          	andi	a5,a5,512
20101f82:	e399                	bnez	a5,20101f88 <_puts_r+0x44>
20101f84:	4c28                	lw	a0,88(s0)
20101f86:	2d8d                	jal	201025f8 <__retarget_lock_acquire_recursive>
20101f88:	245e                	lhu	a5,12(s0)
20101f8a:	8ba1                	andi	a5,a5,8
20101f8c:	c399                	beqz	a5,20101f92 <_puts_r+0x4e>
20101f8e:	481c                	lw	a5,16(s0)
20101f90:	e3d5                	bnez	a5,20102034 <_puts_r+0xf0>
20101f92:	85a2                	mv	a1,s0
20101f94:	8526                	mv	a0,s1
20101f96:	2a9d                	jal	2010210c <__swsetup_r>
20101f98:	cd51                	beqz	a0,20102034 <_puts_r+0xf0>
20101f9a:	54fd                	li	s1,-1
20101f9c:	507c                	lw	a5,100(s0)
20101f9e:	8b85                	andi	a5,a5,1
20101fa0:	e799                	bnez	a5,20101fae <_puts_r+0x6a>
20101fa2:	245e                	lhu	a5,12(s0)
20101fa4:	2007f793          	andi	a5,a5,512
20101fa8:	e399                	bnez	a5,20101fae <_puts_r+0x6a>
20101faa:	4c28                	lw	a0,88(s0)
20101fac:	25b9                	jal	201025fa <__retarget_lock_release_recursive>
20101fae:	40f2                	lw	ra,28(sp)
20101fb0:	4462                	lw	s0,24(sp)
20101fb2:	4942                	lw	s2,16(sp)
20101fb4:	49b2                	lw	s3,12(sp)
20101fb6:	4a22                	lw	s4,8(sp)
20101fb8:	8526                	mv	a0,s1
20101fba:	44d2                	lw	s1,20(sp)
20101fbc:	6105                	addi	sp,sp,32
20101fbe:	8082                	ret
20101fc0:	4500                	lw	s0,8(a0)
20101fc2:	b75d                	j	20101f68 <_puts_r+0x24>
20101fc4:	8526                	mv	a0,s1
20101fc6:	296d                	jal	20102480 <__sinit>
20101fc8:	b745                	j	20101f68 <_puts_r+0x24>
20101fca:	dff01797          	auipc	a5,0xdff01
20101fce:	68a78793          	addi	a5,a5,1674 # 3654 <__sf_fake_stdout>
20101fd2:	00f41463          	bne	s0,a5,20101fda <_puts_r+0x96>
20101fd6:	4480                	lw	s0,8(s1)
20101fd8:	bf79                	j	20101f76 <_puts_r+0x32>
20101fda:	dff01797          	auipc	a5,0xdff01
20101fde:	65a78793          	addi	a5,a5,1626 # 3634 <__sf_fake_stderr>
20101fe2:	f8f41ae3          	bne	s0,a5,20101f76 <_puts_r+0x32>
20101fe6:	44c0                	lw	s0,12(s1)
20101fe8:	b779                	j	20101f76 <_puts_r+0x32>
20101fea:	c41c                	sw	a5,8(s0)
20101fec:	0905                	addi	s2,s2,1
20101fee:	0207c863          	bltz	a5,2010201e <_puts_r+0xda>
20101ff2:	401c                	lw	a5,0(s0)
20101ff4:	00178713          	addi	a4,a5,1
20101ff8:	c018                	sw	a4,0(s0)
20101ffa:	a38c                	sb	a1,0(a5)
20101ffc:	441c                	lw	a5,8(s0)
20101ffe:	00094583          	lbu	a1,0(s2)
20102002:	17fd                	addi	a5,a5,-1
20102004:	f1fd                	bnez	a1,20101fea <_puts_r+0xa6>
20102006:	c41c                	sw	a5,8(s0)
20102008:	0207d963          	bgez	a5,2010203a <_puts_r+0xf6>
2010200c:	8622                	mv	a2,s0
2010200e:	45a9                	li	a1,10
20102010:	8526                	mv	a0,s1
20102012:	283d                	jal	20102050 <__swbuf_r>
20102014:	57fd                	li	a5,-1
20102016:	f8f502e3          	beq	a0,a5,20101f9a <_puts_r+0x56>
2010201a:	44a9                	li	s1,10
2010201c:	b741                	j	20101f9c <_puts_r+0x58>
2010201e:	4c18                	lw	a4,24(s0)
20102020:	00e7c463          	blt	a5,a4,20102028 <_puts_r+0xe4>
20102024:	fd4597e3          	bne	a1,s4,20101ff2 <_puts_r+0xae>
20102028:	8622                	mv	a2,s0
2010202a:	8526                	mv	a0,s1
2010202c:	2015                	jal	20102050 <__swbuf_r>
2010202e:	fd3517e3          	bne	a0,s3,20101ffc <_puts_r+0xb8>
20102032:	b7a5                	j	20101f9a <_puts_r+0x56>
20102034:	59fd                	li	s3,-1
20102036:	4a29                	li	s4,10
20102038:	b7d1                	j	20101ffc <_puts_r+0xb8>
2010203a:	401c                	lw	a5,0(s0)
2010203c:	00178713          	addi	a4,a5,1
20102040:	c018                	sw	a4,0(s0)
20102042:	4729                	li	a4,10
20102044:	a398                	sb	a4,0(a5)
20102046:	bfd1                	j	2010201a <_puts_r+0xd6>

20102048 <puts>:
20102048:	85aa                	mv	a1,a0
2010204a:	8441a503          	lw	a0,-1980(gp) # 20120224 <_impure_ptr>
2010204e:	bddd                	j	20101f44 <_puts_r>

20102050 <__swbuf_r>:
20102050:	1101                	addi	sp,sp,-32
20102052:	cc22                	sw	s0,24(sp)
20102054:	ca26                	sw	s1,20(sp)
20102056:	c84a                	sw	s2,16(sp)
20102058:	ce06                	sw	ra,28(sp)
2010205a:	c64e                	sw	s3,12(sp)
2010205c:	84aa                	mv	s1,a0
2010205e:	892e                	mv	s2,a1
20102060:	8432                	mv	s0,a2
20102062:	c501                	beqz	a0,2010206a <__swbuf_r+0x1a>
20102064:	4d1c                	lw	a5,24(a0)
20102066:	e391                	bnez	a5,2010206a <__swbuf_r+0x1a>
20102068:	2921                	jal	20102480 <__sinit>
2010206a:	dff01797          	auipc	a5,0xdff01
2010206e:	60a78793          	addi	a5,a5,1546 # 3674 <__sf_fake_stdin>
20102072:	02f41763          	bne	s0,a5,201020a0 <__swbuf_r+0x50>
20102076:	40c0                	lw	s0,4(s1)
20102078:	4c1c                	lw	a5,24(s0)
2010207a:	c41c                	sw	a5,8(s0)
2010207c:	245e                	lhu	a5,12(s0)
2010207e:	8ba1                	andi	a5,a5,8
20102080:	c399                	beqz	a5,20102086 <__swbuf_r+0x36>
20102082:	481c                	lw	a5,16(s0)
20102084:	ef95                	bnez	a5,201020c0 <__swbuf_r+0x70>
20102086:	85a2                	mv	a1,s0
20102088:	8526                	mv	a0,s1
2010208a:	2049                	jal	2010210c <__swsetup_r>
2010208c:	c915                	beqz	a0,201020c0 <__swbuf_r+0x70>
2010208e:	597d                	li	s2,-1
20102090:	40f2                	lw	ra,28(sp)
20102092:	4462                	lw	s0,24(sp)
20102094:	44d2                	lw	s1,20(sp)
20102096:	49b2                	lw	s3,12(sp)
20102098:	854a                	mv	a0,s2
2010209a:	4942                	lw	s2,16(sp)
2010209c:	6105                	addi	sp,sp,32
2010209e:	8082                	ret
201020a0:	dff01797          	auipc	a5,0xdff01
201020a4:	5b478793          	addi	a5,a5,1460 # 3654 <__sf_fake_stdout>
201020a8:	00f41463          	bne	s0,a5,201020b0 <__swbuf_r+0x60>
201020ac:	4480                	lw	s0,8(s1)
201020ae:	b7e9                	j	20102078 <__swbuf_r+0x28>
201020b0:	dff01797          	auipc	a5,0xdff01
201020b4:	58478793          	addi	a5,a5,1412 # 3634 <__sf_fake_stderr>
201020b8:	fcf410e3          	bne	s0,a5,20102078 <__swbuf_r+0x28>
201020bc:	44c0                	lw	s0,12(s1)
201020be:	bf6d                	j	20102078 <__swbuf_r+0x28>
201020c0:	481c                	lw	a5,16(s0)
201020c2:	4008                	lw	a0,0(s0)
201020c4:	0ff97993          	zext.b	s3,s2
201020c8:	0ff97913          	zext.b	s2,s2
201020cc:	8d1d                	sub	a0,a0,a5
201020ce:	485c                	lw	a5,20(s0)
201020d0:	00f54663          	blt	a0,a5,201020dc <__swbuf_r+0x8c>
201020d4:	85a2                	mv	a1,s0
201020d6:	8526                	mv	a0,s1
201020d8:	2c91                	jal	2010232c <_fflush_r>
201020da:	f955                	bnez	a0,2010208e <__swbuf_r+0x3e>
201020dc:	441c                	lw	a5,8(s0)
201020de:	0505                	addi	a0,a0,1
201020e0:	17fd                	addi	a5,a5,-1
201020e2:	c41c                	sw	a5,8(s0)
201020e4:	401c                	lw	a5,0(s0)
201020e6:	00178713          	addi	a4,a5,1
201020ea:	c018                	sw	a4,0(s0)
201020ec:	01378023          	sb	s3,0(a5)
201020f0:	485c                	lw	a5,20(s0)
201020f2:	00a78863          	beq	a5,a0,20102102 <__swbuf_r+0xb2>
201020f6:	245e                	lhu	a5,12(s0)
201020f8:	8b85                	andi	a5,a5,1
201020fa:	dbd9                	beqz	a5,20102090 <__swbuf_r+0x40>
201020fc:	47a9                	li	a5,10
201020fe:	f8f919e3          	bne	s2,a5,20102090 <__swbuf_r+0x40>
20102102:	85a2                	mv	a1,s0
20102104:	8526                	mv	a0,s1
20102106:	241d                	jal	2010232c <_fflush_r>
20102108:	d541                	beqz	a0,20102090 <__swbuf_r+0x40>
2010210a:	b751                	j	2010208e <__swbuf_r+0x3e>

2010210c <__swsetup_r>:
2010210c:	1141                	addi	sp,sp,-16
2010210e:	c422                	sw	s0,8(sp)
20102110:	c226                	sw	s1,4(sp)
20102112:	c04a                	sw	s2,0(sp)
20102114:	c606                	sw	ra,12(sp)
20102116:	8441a483          	lw	s1,-1980(gp) # 20120224 <_impure_ptr>
2010211a:	892a                	mv	s2,a0
2010211c:	842e                	mv	s0,a1
2010211e:	c489                	beqz	s1,20102128 <__swsetup_r+0x1c>
20102120:	4c9c                	lw	a5,24(s1)
20102122:	e399                	bnez	a5,20102128 <__swsetup_r+0x1c>
20102124:	8526                	mv	a0,s1
20102126:	2ea9                	jal	20102480 <__sinit>
20102128:	dff01797          	auipc	a5,0xdff01
2010212c:	54c78793          	addi	a5,a5,1356 # 3674 <__sf_fake_stdin>
20102130:	02f41363          	bne	s0,a5,20102156 <__swsetup_r+0x4a>
20102134:	40c0                	lw	s0,4(s1)
20102136:	00c41783          	lh	a5,12(s0)
2010213a:	0087f713          	andi	a4,a5,8
2010213e:	e725                	bnez	a4,201021a6 <__swsetup_r+0x9a>
20102140:	0107f713          	andi	a4,a5,16
20102144:	eb0d                	bnez	a4,20102176 <__swsetup_r+0x6a>
20102146:	4725                	li	a4,9
20102148:	00e92023          	sw	a4,0(s2)
2010214c:	0407e793          	ori	a5,a5,64
20102150:	a45e                	sh	a5,12(s0)
20102152:	557d                	li	a0,-1
20102154:	a071                	j	201021e0 <__swsetup_r+0xd4>
20102156:	dff01797          	auipc	a5,0xdff01
2010215a:	4fe78793          	addi	a5,a5,1278 # 3654 <__sf_fake_stdout>
2010215e:	00f41463          	bne	s0,a5,20102166 <__swsetup_r+0x5a>
20102162:	4480                	lw	s0,8(s1)
20102164:	bfc9                	j	20102136 <__swsetup_r+0x2a>
20102166:	dff01797          	auipc	a5,0xdff01
2010216a:	4ce78793          	addi	a5,a5,1230 # 3634 <__sf_fake_stderr>
2010216e:	fcf414e3          	bne	s0,a5,20102136 <__swsetup_r+0x2a>
20102172:	44c0                	lw	s0,12(s1)
20102174:	b7c9                	j	20102136 <__swsetup_r+0x2a>
20102176:	8b91                	andi	a5,a5,4
20102178:	c39d                	beqz	a5,2010219e <__swsetup_r+0x92>
2010217a:	584c                	lw	a1,52(s0)
2010217c:	c989                	beqz	a1,2010218e <__swsetup_r+0x82>
2010217e:	04440793          	addi	a5,s0,68
20102182:	00f58463          	beq	a1,a5,2010218a <__swsetup_r+0x7e>
20102186:	854a                	mv	a0,s2
20102188:	2bb9                	jal	201026e6 <_free_r>
2010218a:	02042a23          	sw	zero,52(s0)
2010218e:	245e                	lhu	a5,12(s0)
20102190:	00042223          	sw	zero,4(s0)
20102194:	fdb7f793          	andi	a5,a5,-37
20102198:	a45e                	sh	a5,12(s0)
2010219a:	481c                	lw	a5,16(s0)
2010219c:	c01c                	sw	a5,0(s0)
2010219e:	245e                	lhu	a5,12(s0)
201021a0:	0087e793          	ori	a5,a5,8
201021a4:	a45e                	sh	a5,12(s0)
201021a6:	481c                	lw	a5,16(s0)
201021a8:	eb99                	bnez	a5,201021be <__swsetup_r+0xb2>
201021aa:	245e                	lhu	a5,12(s0)
201021ac:	20000713          	li	a4,512
201021b0:	2807f793          	andi	a5,a5,640
201021b4:	00e78563          	beq	a5,a4,201021be <__swsetup_r+0xb2>
201021b8:	85a2                	mv	a1,s0
201021ba:	854a                	mv	a0,s2
201021bc:	2961                	jal	20102654 <__smakebuf_r>
201021be:	00c41783          	lh	a5,12(s0)
201021c2:	0017f713          	andi	a4,a5,1
201021c6:	c31d                	beqz	a4,201021ec <__swsetup_r+0xe0>
201021c8:	4858                	lw	a4,20(s0)
201021ca:	00042423          	sw	zero,8(s0)
201021ce:	40e00733          	neg	a4,a4
201021d2:	cc18                	sw	a4,24(s0)
201021d4:	4818                	lw	a4,16(s0)
201021d6:	4501                	li	a0,0
201021d8:	e701                	bnez	a4,201021e0 <__swsetup_r+0xd4>
201021da:	0807f713          	andi	a4,a5,128
201021de:	f73d                	bnez	a4,2010214c <__swsetup_r+0x40>
201021e0:	40b2                	lw	ra,12(sp)
201021e2:	4422                	lw	s0,8(sp)
201021e4:	4492                	lw	s1,4(sp)
201021e6:	4902                	lw	s2,0(sp)
201021e8:	0141                	addi	sp,sp,16
201021ea:	8082                	ret
201021ec:	0027f713          	andi	a4,a5,2
201021f0:	4681                	li	a3,0
201021f2:	e311                	bnez	a4,201021f6 <__swsetup_r+0xea>
201021f4:	4854                	lw	a3,20(s0)
201021f6:	c414                	sw	a3,8(s0)
201021f8:	bff1                	j	201021d4 <__swsetup_r+0xc8>

201021fa <__sflush_r>:
201021fa:	00c59783          	lh	a5,12(a1)
201021fe:	1101                	addi	sp,sp,-32
20102200:	cc22                	sw	s0,24(sp)
20102202:	ca26                	sw	s1,20(sp)
20102204:	ce06                	sw	ra,28(sp)
20102206:	c84a                	sw	s2,16(sp)
20102208:	c64e                	sw	s3,12(sp)
2010220a:	0087f713          	andi	a4,a5,8
2010220e:	84aa                	mv	s1,a0
20102210:	842e                	mv	s0,a1
20102212:	e379                	bnez	a4,201022d8 <__sflush_r+0xde>
20102214:	41d8                	lw	a4,4(a1)
20102216:	00e04563          	bgtz	a4,20102220 <__sflush_r+0x26>
2010221a:	41b8                	lw	a4,64(a1)
2010221c:	08e05663          	blez	a4,201022a8 <__sflush_r+0xae>
20102220:	5458                	lw	a4,44(s0)
20102222:	c359                	beqz	a4,201022a8 <__sflush_r+0xae>
20102224:	0004a903          	lw	s2,0(s1)
20102228:	0004a023          	sw	zero,0(s1)
2010222c:	500c                	lw	a1,32(s0)
2010222e:	48c7d793          	bexti	a5,a5,0xc
20102232:	cba9                	beqz	a5,20102284 <__sflush_r+0x8a>
20102234:	4870                	lw	a2,84(s0)
20102236:	245e                	lhu	a5,12(s0)
20102238:	8b91                	andi	a5,a5,4
2010223a:	c799                	beqz	a5,20102248 <__sflush_r+0x4e>
2010223c:	405c                	lw	a5,4(s0)
2010223e:	8e1d                	sub	a2,a2,a5
20102240:	585c                	lw	a5,52(s0)
20102242:	c399                	beqz	a5,20102248 <__sflush_r+0x4e>
20102244:	403c                	lw	a5,64(s0)
20102246:	8e1d                	sub	a2,a2,a5
20102248:	545c                	lw	a5,44(s0)
2010224a:	500c                	lw	a1,32(s0)
2010224c:	4681                	li	a3,0
2010224e:	8526                	mv	a0,s1
20102250:	9782                	jalr	a5
20102252:	57fd                	li	a5,-1
20102254:	04f50c63          	beq	a0,a5,201022ac <__sflush_r+0xb2>
20102258:	481c                	lw	a5,16(s0)
2010225a:	6705                	lui	a4,0x1
2010225c:	00042223          	sw	zero,4(s0)
20102260:	c01c                	sw	a5,0(s0)
20102262:	245e                	lhu	a5,12(s0)
20102264:	8ff9                	and	a5,a5,a4
20102266:	c391                	beqz	a5,2010226a <__sflush_r+0x70>
20102268:	c868                	sw	a0,84(s0)
2010226a:	584c                	lw	a1,52(s0)
2010226c:	0124a023          	sw	s2,0(s1)
20102270:	cd85                	beqz	a1,201022a8 <__sflush_r+0xae>
20102272:	04440793          	addi	a5,s0,68
20102276:	00f58463          	beq	a1,a5,2010227e <__sflush_r+0x84>
2010227a:	8526                	mv	a0,s1
2010227c:	21ad                	jal	201026e6 <_free_r>
2010227e:	02042a23          	sw	zero,52(s0)
20102282:	a01d                	j	201022a8 <__sflush_r+0xae>
20102284:	4601                	li	a2,0
20102286:	4685                	li	a3,1
20102288:	8526                	mv	a0,s1
2010228a:	9702                	jalr	a4
2010228c:	57fd                	li	a5,-1
2010228e:	862a                	mv	a2,a0
20102290:	faf513e3          	bne	a0,a5,20102236 <__sflush_r+0x3c>
20102294:	409c                	lw	a5,0(s1)
20102296:	d3c5                	beqz	a5,20102236 <__sflush_r+0x3c>
20102298:	4775                	li	a4,29
2010229a:	00e78563          	beq	a5,a4,201022a4 <__sflush_r+0xaa>
2010229e:	4759                	li	a4,22
201022a0:	06e79563          	bne	a5,a4,2010230a <__sflush_r+0x110>
201022a4:	0124a023          	sw	s2,0(s1)
201022a8:	4501                	li	a0,0
201022aa:	a0b5                	j	20102316 <__sflush_r+0x11c>
201022ac:	4098                	lw	a4,0(s1)
201022ae:	00c41783          	lh	a5,12(s0)
201022b2:	cf01                	beqz	a4,201022ca <__sflush_r+0xd0>
201022b4:	46f5                	li	a3,29
201022b6:	00d70563          	beq	a4,a3,201022c0 <__sflush_r+0xc6>
201022ba:	46d9                	li	a3,22
201022bc:	04d71963          	bne	a4,a3,2010230e <__sflush_r+0x114>
201022c0:	481c                	lw	a5,16(s0)
201022c2:	00042223          	sw	zero,4(s0)
201022c6:	c01c                	sw	a5,0(s0)
201022c8:	b74d                	j	2010226a <__sflush_r+0x70>
201022ca:	4818                	lw	a4,16(s0)
201022cc:	00042223          	sw	zero,4(s0)
201022d0:	48c7d793          	bexti	a5,a5,0xc
201022d4:	c018                	sw	a4,0(s0)
201022d6:	bf41                	j	20102266 <__sflush_r+0x6c>
201022d8:	0105a983          	lw	s3,16(a1)
201022dc:	fc0986e3          	beqz	s3,201022a8 <__sflush_r+0xae>
201022e0:	0005a903          	lw	s2,0(a1)
201022e4:	8b8d                	andi	a5,a5,3
201022e6:	0135a023          	sw	s3,0(a1)
201022ea:	41390933          	sub	s2,s2,s3
201022ee:	4701                	li	a4,0
201022f0:	e391                	bnez	a5,201022f4 <__sflush_r+0xfa>
201022f2:	49d8                	lw	a4,20(a1)
201022f4:	c418                	sw	a4,8(s0)
201022f6:	fb2059e3          	blez	s2,201022a8 <__sflush_r+0xae>
201022fa:	541c                	lw	a5,40(s0)
201022fc:	500c                	lw	a1,32(s0)
201022fe:	86ca                	mv	a3,s2
20102300:	864e                	mv	a2,s3
20102302:	8526                	mv	a0,s1
20102304:	9782                	jalr	a5
20102306:	00a04f63          	bgtz	a0,20102324 <__sflush_r+0x12a>
2010230a:	00c41783          	lh	a5,12(s0)
2010230e:	0407e793          	ori	a5,a5,64
20102312:	a45e                	sh	a5,12(s0)
20102314:	557d                	li	a0,-1
20102316:	40f2                	lw	ra,28(sp)
20102318:	4462                	lw	s0,24(sp)
2010231a:	44d2                	lw	s1,20(sp)
2010231c:	4942                	lw	s2,16(sp)
2010231e:	49b2                	lw	s3,12(sp)
20102320:	6105                	addi	sp,sp,32
20102322:	8082                	ret
20102324:	99aa                	add	s3,s3,a0
20102326:	40a90933          	sub	s2,s2,a0
2010232a:	b7f1                	j	201022f6 <__sflush_r+0xfc>

2010232c <_fflush_r>:
2010232c:	499c                	lw	a5,16(a1)
2010232e:	1141                	addi	sp,sp,-16
20102330:	c606                	sw	ra,12(sp)
20102332:	c422                	sw	s0,8(sp)
20102334:	c226                	sw	s1,4(sp)
20102336:	eb81                	bnez	a5,20102346 <_fflush_r+0x1a>
20102338:	4481                	li	s1,0
2010233a:	40b2                	lw	ra,12(sp)
2010233c:	4422                	lw	s0,8(sp)
2010233e:	8526                	mv	a0,s1
20102340:	4492                	lw	s1,4(sp)
20102342:	0141                	addi	sp,sp,16
20102344:	8082                	ret
20102346:	84aa                	mv	s1,a0
20102348:	842e                	mv	s0,a1
2010234a:	c501                	beqz	a0,20102352 <_fflush_r+0x26>
2010234c:	4d1c                	lw	a5,24(a0)
2010234e:	e391                	bnez	a5,20102352 <_fflush_r+0x26>
20102350:	2a05                	jal	20102480 <__sinit>
20102352:	dff01797          	auipc	a5,0xdff01
20102356:	32278793          	addi	a5,a5,802 # 3674 <__sf_fake_stdin>
2010235a:	02f41c63          	bne	s0,a5,20102392 <_fflush_r+0x66>
2010235e:	40c0                	lw	s0,4(s1)
20102360:	00c41783          	lh	a5,12(s0)
20102364:	dbf1                	beqz	a5,20102338 <_fflush_r+0xc>
20102366:	5078                	lw	a4,100(s0)
20102368:	8b05                	andi	a4,a4,1
2010236a:	e711                	bnez	a4,20102376 <_fflush_r+0x4a>
2010236c:	2007f793          	andi	a5,a5,512
20102370:	e399                	bnez	a5,20102376 <_fflush_r+0x4a>
20102372:	4c28                	lw	a0,88(s0)
20102374:	2451                	jal	201025f8 <__retarget_lock_acquire_recursive>
20102376:	8526                	mv	a0,s1
20102378:	85a2                	mv	a1,s0
2010237a:	3541                	jal	201021fa <__sflush_r>
2010237c:	507c                	lw	a5,100(s0)
2010237e:	84aa                	mv	s1,a0
20102380:	8b85                	andi	a5,a5,1
20102382:	ffc5                	bnez	a5,2010233a <_fflush_r+0xe>
20102384:	245e                	lhu	a5,12(s0)
20102386:	2007f793          	andi	a5,a5,512
2010238a:	fbc5                	bnez	a5,2010233a <_fflush_r+0xe>
2010238c:	4c28                	lw	a0,88(s0)
2010238e:	24b5                	jal	201025fa <__retarget_lock_release_recursive>
20102390:	b76d                	j	2010233a <_fflush_r+0xe>
20102392:	dff01797          	auipc	a5,0xdff01
20102396:	2c278793          	addi	a5,a5,706 # 3654 <__sf_fake_stdout>
2010239a:	00f41463          	bne	s0,a5,201023a2 <_fflush_r+0x76>
2010239e:	4480                	lw	s0,8(s1)
201023a0:	b7c1                	j	20102360 <_fflush_r+0x34>
201023a2:	dff01797          	auipc	a5,0xdff01
201023a6:	29278793          	addi	a5,a5,658 # 3634 <__sf_fake_stderr>
201023aa:	faf41be3          	bne	s0,a5,20102360 <_fflush_r+0x34>
201023ae:	44c0                	lw	s0,12(s1)
201023b0:	bf45                	j	20102360 <_fflush_r+0x34>

201023b2 <std>:
201023b2:	1141                	addi	sp,sp,-16
201023b4:	c422                	sw	s0,8(sp)
201023b6:	c606                	sw	ra,12(sp)
201023b8:	842a                	mv	s0,a0
201023ba:	a54e                	sh	a1,12(a0)
201023bc:	a572                	sh	a2,14(a0)
201023be:	00052023          	sw	zero,0(a0)
201023c2:	00052223          	sw	zero,4(a0)
201023c6:	00052423          	sw	zero,8(a0)
201023ca:	06052223          	sw	zero,100(a0)
201023ce:	00052823          	sw	zero,16(a0)
201023d2:	00052a23          	sw	zero,20(a0)
201023d6:	00052c23          	sw	zero,24(a0)
201023da:	4621                	li	a2,8
201023dc:	4581                	li	a1,0
201023de:	05c50513          	addi	a0,a0,92
201023e2:	ed3fd0ef          	jal	ra,201002b4 <memset>
201023e6:	00001797          	auipc	a5,0x1
201023ea:	83a78793          	addi	a5,a5,-1990 # 20102c20 <__sread>
201023ee:	d05c                	sw	a5,36(s0)
201023f0:	00001797          	auipc	a5,0x1
201023f4:	85a78793          	addi	a5,a5,-1958 # 20102c4a <__swrite>
201023f8:	d41c                	sw	a5,40(s0)
201023fa:	00001797          	auipc	a5,0x1
201023fe:	89678793          	addi	a5,a5,-1898 # 20102c90 <__sseek>
20102402:	d45c                	sw	a5,44(s0)
20102404:	00001797          	auipc	a5,0x1
20102408:	8ba78793          	addi	a5,a5,-1862 # 20102cbe <__sclose>
2010240c:	40b2                	lw	ra,12(sp)
2010240e:	d000                	sw	s0,32(s0)
20102410:	d81c                	sw	a5,48(s0)
20102412:	4422                	lw	s0,8(sp)
20102414:	0141                	addi	sp,sp,16
20102416:	8082                	ret

20102418 <_cleanup_r>:
20102418:	00000597          	auipc	a1,0x0
2010241c:	f1458593          	addi	a1,a1,-236 # 2010232c <_fflush_r>
20102420:	a2bd                	j	2010258e <_fwalk_reent>

20102422 <__sfmoreglue>:
20102422:	1141                	addi	sp,sp,-16
20102424:	c226                	sw	s1,4(sp)
20102426:	06800793          	li	a5,104
2010242a:	fff58493          	addi	s1,a1,-1
2010242e:	02f484b3          	mul	s1,s1,a5
20102432:	c04a                	sw	s2,0(sp)
20102434:	892e                	mv	s2,a1
20102436:	c422                	sw	s0,8(sp)
20102438:	c606                	sw	ra,12(sp)
2010243a:	07448593          	addi	a1,s1,116
2010243e:	2e69                	jal	201027d8 <_malloc_r>
20102440:	842a                	mv	s0,a0
20102442:	cd01                	beqz	a0,2010245a <__sfmoreglue+0x38>
20102444:	00052023          	sw	zero,0(a0)
20102448:	01252223          	sw	s2,4(a0)
2010244c:	0531                	addi	a0,a0,12
2010244e:	c408                	sw	a0,8(s0)
20102450:	06848613          	addi	a2,s1,104
20102454:	4581                	li	a1,0
20102456:	e5ffd0ef          	jal	ra,201002b4 <memset>
2010245a:	40b2                	lw	ra,12(sp)
2010245c:	8522                	mv	a0,s0
2010245e:	4422                	lw	s0,8(sp)
20102460:	4492                	lw	s1,4(sp)
20102462:	4902                	lw	s2,0(sp)
20102464:	0141                	addi	sp,sp,16
20102466:	8082                	ret

20102468 <__sfp_lock_acquire>:
20102468:	87018513          	addi	a0,gp,-1936 # 20120250 <__lock___sfp_recursive_mutex>
2010246c:	a271                	j	201025f8 <__retarget_lock_acquire_recursive>

2010246e <__sfp_lock_release>:
2010246e:	87018513          	addi	a0,gp,-1936 # 20120250 <__lock___sfp_recursive_mutex>
20102472:	a261                	j	201025fa <__retarget_lock_release_recursive>

20102474 <__sinit_lock_acquire>:
20102474:	87418513          	addi	a0,gp,-1932 # 20120254 <__lock___sinit_recursive_mutex>
20102478:	a241                	j	201025f8 <__retarget_lock_acquire_recursive>

2010247a <__sinit_lock_release>:
2010247a:	87418513          	addi	a0,gp,-1932 # 20120254 <__lock___sinit_recursive_mutex>
2010247e:	aab5                	j	201025fa <__retarget_lock_release_recursive>

20102480 <__sinit>:
20102480:	1141                	addi	sp,sp,-16
20102482:	c422                	sw	s0,8(sp)
20102484:	c606                	sw	ra,12(sp)
20102486:	842a                	mv	s0,a0
20102488:	37f5                	jal	20102474 <__sinit_lock_acquire>
2010248a:	4c1c                	lw	a5,24(s0)
2010248c:	c789                	beqz	a5,20102496 <__sinit+0x16>
2010248e:	4422                	lw	s0,8(sp)
20102490:	40b2                	lw	ra,12(sp)
20102492:	0141                	addi	sp,sp,16
20102494:	b7dd                	j	2010247a <__sinit_lock_release>
20102496:	00000797          	auipc	a5,0x0
2010249a:	f8278793          	addi	a5,a5,-126 # 20102418 <_cleanup_r>
2010249e:	d41c                	sw	a5,40(s0)
201024a0:	04042423          	sw	zero,72(s0)
201024a4:	04042623          	sw	zero,76(s0)
201024a8:	04042823          	sw	zero,80(s0)
201024ac:	8481a783          	lw	a5,-1976(gp) # 20120228 <_global_impure_ptr>
201024b0:	00879463          	bne	a5,s0,201024b8 <__sinit+0x38>
201024b4:	4785                	li	a5,1
201024b6:	cc1c                	sw	a5,24(s0)
201024b8:	8522                	mv	a0,s0
201024ba:	203d                	jal	201024e8 <__sfp>
201024bc:	c048                	sw	a0,4(s0)
201024be:	8522                	mv	a0,s0
201024c0:	2025                	jal	201024e8 <__sfp>
201024c2:	c408                	sw	a0,8(s0)
201024c4:	8522                	mv	a0,s0
201024c6:	200d                	jal	201024e8 <__sfp>
201024c8:	c448                	sw	a0,12(s0)
201024ca:	4048                	lw	a0,4(s0)
201024cc:	4601                	li	a2,0
201024ce:	4591                	li	a1,4
201024d0:	35cd                	jal	201023b2 <std>
201024d2:	4408                	lw	a0,8(s0)
201024d4:	4605                	li	a2,1
201024d6:	45a5                	li	a1,9
201024d8:	3de9                	jal	201023b2 <std>
201024da:	4448                	lw	a0,12(s0)
201024dc:	4609                	li	a2,2
201024de:	45c9                	li	a1,18
201024e0:	3dc9                	jal	201023b2 <std>
201024e2:	4785                	li	a5,1
201024e4:	cc1c                	sw	a5,24(s0)
201024e6:	b765                	j	2010248e <__sinit+0xe>

201024e8 <__sfp>:
201024e8:	1141                	addi	sp,sp,-16
201024ea:	c226                	sw	s1,4(sp)
201024ec:	c04a                	sw	s2,0(sp)
201024ee:	c606                	sw	ra,12(sp)
201024f0:	c422                	sw	s0,8(sp)
201024f2:	892a                	mv	s2,a0
201024f4:	3f95                	jal	20102468 <__sfp_lock_acquire>
201024f6:	8481a483          	lw	s1,-1976(gp) # 20120228 <_global_impure_ptr>
201024fa:	4c9c                	lw	a5,24(s1)
201024fc:	e399                	bnez	a5,20102502 <__sfp+0x1a>
201024fe:	8526                	mv	a0,s1
20102500:	3741                	jal	20102480 <__sinit>
20102502:	04848493          	addi	s1,s1,72
20102506:	4480                	lw	s0,8(s1)
20102508:	40dc                	lw	a5,4(s1)
2010250a:	17fd                	addi	a5,a5,-1
2010250c:	0007d663          	bgez	a5,20102518 <__sfp+0x30>
20102510:	409c                	lw	a5,0(s1)
20102512:	c3bd                	beqz	a5,20102578 <__sfp+0x90>
20102514:	4084                	lw	s1,0(s1)
20102516:	bfc5                	j	20102506 <__sfp+0x1e>
20102518:	00c41703          	lh	a4,12(s0)
2010251c:	eb39                	bnez	a4,20102572 <__sfp+0x8a>
2010251e:	77c1                	lui	a5,0xffff0
20102520:	0785                	addi	a5,a5,1 # ffff0001 <_eusrstack+0xdfe70001>
20102522:	c45c                	sw	a5,12(s0)
20102524:	05840513          	addi	a0,s0,88
20102528:	06042223          	sw	zero,100(s0)
2010252c:	20e9                	jal	201025f6 <__retarget_lock_init_recursive>
2010252e:	3781                	jal	2010246e <__sfp_lock_release>
20102530:	4621                	li	a2,8
20102532:	00042023          	sw	zero,0(s0)
20102536:	00042423          	sw	zero,8(s0)
2010253a:	00042223          	sw	zero,4(s0)
2010253e:	00042823          	sw	zero,16(s0)
20102542:	00042a23          	sw	zero,20(s0)
20102546:	00042c23          	sw	zero,24(s0)
2010254a:	4581                	li	a1,0
2010254c:	05c40513          	addi	a0,s0,92
20102550:	d65fd0ef          	jal	ra,201002b4 <memset>
20102554:	02042a23          	sw	zero,52(s0)
20102558:	02042c23          	sw	zero,56(s0)
2010255c:	04042423          	sw	zero,72(s0)
20102560:	04042623          	sw	zero,76(s0)
20102564:	40b2                	lw	ra,12(sp)
20102566:	8522                	mv	a0,s0
20102568:	4422                	lw	s0,8(sp)
2010256a:	4492                	lw	s1,4(sp)
2010256c:	4902                	lw	s2,0(sp)
2010256e:	0141                	addi	sp,sp,16
20102570:	8082                	ret
20102572:	06840413          	addi	s0,s0,104
20102576:	bf51                	j	2010250a <__sfp+0x22>
20102578:	4591                	li	a1,4
2010257a:	854a                	mv	a0,s2
2010257c:	355d                	jal	20102422 <__sfmoreglue>
2010257e:	c088                	sw	a0,0(s1)
20102580:	842a                	mv	s0,a0
20102582:	f949                	bnez	a0,20102514 <__sfp+0x2c>
20102584:	35ed                	jal	2010246e <__sfp_lock_release>
20102586:	47b1                	li	a5,12
20102588:	00f92023          	sw	a5,0(s2)
2010258c:	bfe1                	j	20102564 <__sfp+0x7c>

2010258e <_fwalk_reent>:
2010258e:	7179                	addi	sp,sp,-48
20102590:	d422                	sw	s0,40(sp)
20102592:	d04a                	sw	s2,32(sp)
20102594:	ce4e                	sw	s3,28(sp)
20102596:	cc52                	sw	s4,24(sp)
20102598:	c85a                	sw	s6,16(sp)
2010259a:	c65e                	sw	s7,12(sp)
2010259c:	d606                	sw	ra,44(sp)
2010259e:	d226                	sw	s1,36(sp)
201025a0:	ca56                	sw	s5,20(sp)
201025a2:	892a                	mv	s2,a0
201025a4:	8a2e                	mv	s4,a1
201025a6:	04850413          	addi	s0,a0,72
201025aa:	4981                	li	s3,0
201025ac:	4b05                	li	s6,1
201025ae:	5bfd                	li	s7,-1
201025b0:	4404                	lw	s1,8(s0)
201025b2:	00442a83          	lw	s5,4(s0)
201025b6:	1afd                	addi	s5,s5,-1
201025b8:	020ad063          	bgez	s5,201025d8 <_fwalk_reent+0x4a>
201025bc:	4000                	lw	s0,0(s0)
201025be:	f86d                	bnez	s0,201025b0 <_fwalk_reent+0x22>
201025c0:	50b2                	lw	ra,44(sp)
201025c2:	5422                	lw	s0,40(sp)
201025c4:	5492                	lw	s1,36(sp)
201025c6:	5902                	lw	s2,32(sp)
201025c8:	4a62                	lw	s4,24(sp)
201025ca:	4ad2                	lw	s5,20(sp)
201025cc:	4b42                	lw	s6,16(sp)
201025ce:	4bb2                	lw	s7,12(sp)
201025d0:	854e                	mv	a0,s3
201025d2:	49f2                	lw	s3,28(sp)
201025d4:	6145                	addi	sp,sp,48
201025d6:	8082                	ret
201025d8:	24de                	lhu	a5,12(s1)
201025da:	00fb7b63          	bgeu	s6,a5,201025f0 <_fwalk_reent+0x62>
201025de:	00e49783          	lh	a5,14(s1)
201025e2:	01778763          	beq	a5,s7,201025f0 <_fwalk_reent+0x62>
201025e6:	85a6                	mv	a1,s1
201025e8:	854a                	mv	a0,s2
201025ea:	9a02                	jalr	s4
201025ec:	00a9e9b3          	or	s3,s3,a0
201025f0:	06848493          	addi	s1,s1,104
201025f4:	b7c9                	j	201025b6 <_fwalk_reent+0x28>

201025f6 <__retarget_lock_init_recursive>:
201025f6:	8082                	ret

201025f8 <__retarget_lock_acquire_recursive>:
201025f8:	8082                	ret

201025fa <__retarget_lock_release_recursive>:
201025fa:	8082                	ret

201025fc <__swhatbuf_r>:
201025fc:	7159                	addi	sp,sp,-112
201025fe:	d4a2                	sw	s0,104(sp)
20102600:	842e                	mv	s0,a1
20102602:	00e59583          	lh	a1,14(a1)
20102606:	d2a6                	sw	s1,100(sp)
20102608:	d0ca                	sw	s2,96(sp)
2010260a:	d686                	sw	ra,108(sp)
2010260c:	84b2                	mv	s1,a2
2010260e:	8936                	mv	s2,a3
20102610:	0205d263          	bgez	a1,20102634 <__swhatbuf_r+0x38>
20102614:	245e                	lhu	a5,12(s0)
20102616:	0807f793          	andi	a5,a5,128
2010261a:	eb8d                	bnez	a5,2010264c <__swhatbuf_r+0x50>
2010261c:	40000713          	li	a4,1024
20102620:	50b6                	lw	ra,108(sp)
20102622:	5426                	lw	s0,104(sp)
20102624:	00f92023          	sw	a5,0(s2)
20102628:	c098                	sw	a4,0(s1)
2010262a:	5906                	lw	s2,96(sp)
2010262c:	5496                	lw	s1,100(sp)
2010262e:	4501                	li	a0,0
20102630:	6165                	addi	sp,sp,112
20102632:	8082                	ret
20102634:	0030                	addi	a2,sp,8
20102636:	25c5                	jal	20102d16 <_fstat_r>
20102638:	fc054ee3          	bltz	a0,20102614 <__swhatbuf_r+0x18>
2010263c:	4732                	lw	a4,12(sp)
2010263e:	67bd                	lui	a5,0xf
20102640:	8ff9                	and	a5,a5,a4
20102642:	7779                	lui	a4,0xffffe
20102644:	97ba                	add	a5,a5,a4
20102646:	0017b793          	seqz	a5,a5
2010264a:	bfc9                	j	2010261c <__swhatbuf_r+0x20>
2010264c:	4781                	li	a5,0
2010264e:	04000713          	li	a4,64
20102652:	b7f9                	j	20102620 <__swhatbuf_r+0x24>

20102654 <__smakebuf_r>:
20102654:	25de                	lhu	a5,12(a1)
20102656:	7179                	addi	sp,sp,-48
20102658:	d422                	sw	s0,40(sp)
2010265a:	d606                	sw	ra,44(sp)
2010265c:	d226                	sw	s1,36(sp)
2010265e:	d04a                	sw	s2,32(sp)
20102660:	ce4e                	sw	s3,28(sp)
20102662:	8b89                	andi	a5,a5,2
20102664:	842e                	mv	s0,a1
20102666:	cf91                	beqz	a5,20102682 <__smakebuf_r+0x2e>
20102668:	04740793          	addi	a5,s0,71
2010266c:	c01c                	sw	a5,0(s0)
2010266e:	c81c                	sw	a5,16(s0)
20102670:	4785                	li	a5,1
20102672:	c85c                	sw	a5,20(s0)
20102674:	50b2                	lw	ra,44(sp)
20102676:	5422                	lw	s0,40(sp)
20102678:	5492                	lw	s1,36(sp)
2010267a:	5902                	lw	s2,32(sp)
2010267c:	49f2                	lw	s3,28(sp)
2010267e:	6145                	addi	sp,sp,48
20102680:	8082                	ret
20102682:	0074                	addi	a3,sp,12
20102684:	0030                	addi	a2,sp,8
20102686:	84aa                	mv	s1,a0
20102688:	3f95                	jal	201025fc <__swhatbuf_r>
2010268a:	49a2                	lw	s3,8(sp)
2010268c:	892a                	mv	s2,a0
2010268e:	8526                	mv	a0,s1
20102690:	85ce                	mv	a1,s3
20102692:	2299                	jal	201027d8 <_malloc_r>
20102694:	e919                	bnez	a0,201026aa <__smakebuf_r+0x56>
20102696:	00c41783          	lh	a5,12(s0)
2010269a:	2007f713          	andi	a4,a5,512
2010269e:	fb79                	bnez	a4,20102674 <__smakebuf_r+0x20>
201026a0:	9bf1                	andi	a5,a5,-4
201026a2:	0027e793          	ori	a5,a5,2
201026a6:	a45e                	sh	a5,12(s0)
201026a8:	b7c1                	j	20102668 <__smakebuf_r+0x14>
201026aa:	00000797          	auipc	a5,0x0
201026ae:	d6e78793          	addi	a5,a5,-658 # 20102418 <_cleanup_r>
201026b2:	d49c                	sw	a5,40(s1)
201026b4:	245e                	lhu	a5,12(s0)
201026b6:	c008                	sw	a0,0(s0)
201026b8:	c808                	sw	a0,16(s0)
201026ba:	0807e793          	ori	a5,a5,128
201026be:	a45e                	sh	a5,12(s0)
201026c0:	47b2                	lw	a5,12(sp)
201026c2:	01342a23          	sw	s3,20(s0)
201026c6:	cb99                	beqz	a5,201026dc <__smakebuf_r+0x88>
201026c8:	00e41583          	lh	a1,14(s0)
201026cc:	8526                	mv	a0,s1
201026ce:	2d85                	jal	20102d3e <_isatty_r>
201026d0:	c511                	beqz	a0,201026dc <__smakebuf_r+0x88>
201026d2:	245e                	lhu	a5,12(s0)
201026d4:	9bf1                	andi	a5,a5,-4
201026d6:	0017e793          	ori	a5,a5,1
201026da:	a45e                	sh	a5,12(s0)
201026dc:	245e                	lhu	a5,12(s0)
201026de:	0127e533          	or	a0,a5,s2
201026e2:	a44a                	sh	a0,12(s0)
201026e4:	bf41                	j	20102674 <__smakebuf_r+0x20>

201026e6 <_free_r>:
201026e6:	cdd1                	beqz	a1,20102782 <_free_r+0x9c>
201026e8:	ffc5a783          	lw	a5,-4(a1)
201026ec:	1101                	addi	sp,sp,-32
201026ee:	cc22                	sw	s0,24(sp)
201026f0:	ce06                	sw	ra,28(sp)
201026f2:	ffc58413          	addi	s0,a1,-4
201026f6:	0007d363          	bgez	a5,201026fc <_free_r+0x16>
201026fa:	943e                	add	s0,s0,a5
201026fc:	c62a                	sw	a0,12(sp)
201026fe:	2565                	jal	20102da6 <__malloc_lock>
20102700:	87c18713          	addi	a4,gp,-1924 # 2012025c <__malloc_free_list>
20102704:	431c                	lw	a5,0(a4)
20102706:	4532                	lw	a0,12(sp)
20102708:	eb81                	bnez	a5,20102718 <_free_r+0x32>
2010270a:	00042223          	sw	zero,4(s0)
2010270e:	c300                	sw	s0,0(a4)
20102710:	4462                	lw	s0,24(sp)
20102712:	40f2                	lw	ra,28(sp)
20102714:	6105                	addi	sp,sp,32
20102716:	ad61                	j	20102dae <__malloc_unlock>
20102718:	00f47d63          	bgeu	s0,a5,20102732 <_free_r+0x4c>
2010271c:	4010                	lw	a2,0(s0)
2010271e:	00c406b3          	add	a3,s0,a2
20102722:	00d79663          	bne	a5,a3,2010272e <_free_r+0x48>
20102726:	4394                	lw	a3,0(a5)
20102728:	43dc                	lw	a5,4(a5)
2010272a:	96b2                	add	a3,a3,a2
2010272c:	c014                	sw	a3,0(s0)
2010272e:	c05c                	sw	a5,4(s0)
20102730:	bff9                	j	2010270e <_free_r+0x28>
20102732:	873e                	mv	a4,a5
20102734:	43dc                	lw	a5,4(a5)
20102736:	c399                	beqz	a5,2010273c <_free_r+0x56>
20102738:	fef47de3          	bgeu	s0,a5,20102732 <_free_r+0x4c>
2010273c:	4314                	lw	a3,0(a4)
2010273e:	00d70633          	add	a2,a4,a3
20102742:	00861f63          	bne	a2,s0,20102760 <_free_r+0x7a>
20102746:	4010                	lw	a2,0(s0)
20102748:	96b2                	add	a3,a3,a2
2010274a:	c314                	sw	a3,0(a4)
2010274c:	00d70633          	add	a2,a4,a3
20102750:	fcc790e3          	bne	a5,a2,20102710 <_free_r+0x2a>
20102754:	4390                	lw	a2,0(a5)
20102756:	43dc                	lw	a5,4(a5)
20102758:	96b2                	add	a3,a3,a2
2010275a:	c314                	sw	a3,0(a4)
2010275c:	c35c                	sw	a5,4(a4)
2010275e:	bf4d                	j	20102710 <_free_r+0x2a>
20102760:	00c47563          	bgeu	s0,a2,2010276a <_free_r+0x84>
20102764:	47b1                	li	a5,12
20102766:	c11c                	sw	a5,0(a0)
20102768:	b765                	j	20102710 <_free_r+0x2a>
2010276a:	4010                	lw	a2,0(s0)
2010276c:	00c406b3          	add	a3,s0,a2
20102770:	00d79663          	bne	a5,a3,2010277c <_free_r+0x96>
20102774:	4394                	lw	a3,0(a5)
20102776:	43dc                	lw	a5,4(a5)
20102778:	96b2                	add	a3,a3,a2
2010277a:	c014                	sw	a3,0(s0)
2010277c:	c05c                	sw	a5,4(s0)
2010277e:	c340                	sw	s0,4(a4)
20102780:	bf41                	j	20102710 <_free_r+0x2a>
20102782:	8082                	ret

20102784 <sbrk_aligned>:
20102784:	1141                	addi	sp,sp,-16
20102786:	c04a                	sw	s2,0(sp)
20102788:	87818913          	addi	s2,gp,-1928 # 20120258 <__malloc_sbrk_start>
2010278c:	00092783          	lw	a5,0(s2)
20102790:	c422                	sw	s0,8(sp)
20102792:	c226                	sw	s1,4(sp)
20102794:	c606                	sw	ra,12(sp)
20102796:	84aa                	mv	s1,a0
20102798:	842e                	mv	s0,a1
2010279a:	e789                	bnez	a5,201027a4 <sbrk_aligned+0x20>
2010279c:	4581                	li	a1,0
2010279e:	29a9                	jal	20102bf8 <_sbrk_r>
201027a0:	00a92023          	sw	a0,0(s2)
201027a4:	85a2                	mv	a1,s0
201027a6:	8526                	mv	a0,s1
201027a8:	2981                	jal	20102bf8 <_sbrk_r>
201027aa:	597d                	li	s2,-1
201027ac:	01251a63          	bne	a0,s2,201027c0 <sbrk_aligned+0x3c>
201027b0:	547d                	li	s0,-1
201027b2:	40b2                	lw	ra,12(sp)
201027b4:	8522                	mv	a0,s0
201027b6:	4422                	lw	s0,8(sp)
201027b8:	4492                	lw	s1,4(sp)
201027ba:	4902                	lw	s2,0(sp)
201027bc:	0141                	addi	sp,sp,16
201027be:	8082                	ret
201027c0:	00350413          	addi	s0,a0,3
201027c4:	9871                	andi	s0,s0,-4
201027c6:	fe8506e3          	beq	a0,s0,201027b2 <sbrk_aligned+0x2e>
201027ca:	40a405b3          	sub	a1,s0,a0
201027ce:	8526                	mv	a0,s1
201027d0:	2125                	jal	20102bf8 <_sbrk_r>
201027d2:	ff2510e3          	bne	a0,s2,201027b2 <sbrk_aligned+0x2e>
201027d6:	bfe9                	j	201027b0 <sbrk_aligned+0x2c>

201027d8 <_malloc_r>:
201027d8:	1101                	addi	sp,sp,-32
201027da:	ca26                	sw	s1,20(sp)
201027dc:	00358493          	addi	s1,a1,3
201027e0:	98f1                	andi	s1,s1,-4
201027e2:	c84a                	sw	s2,16(sp)
201027e4:	04a1                	addi	s1,s1,8
201027e6:	47b1                	li	a5,12
201027e8:	ce06                	sw	ra,28(sp)
201027ea:	cc22                	sw	s0,24(sp)
201027ec:	c64e                	sw	s3,12(sp)
201027ee:	892a                	mv	s2,a0
201027f0:	0af4f4b3          	maxu	s1,s1,a5
201027f4:	0004c463          	bltz	s1,201027fc <_malloc_r+0x24>
201027f8:	00b4fd63          	bgeu	s1,a1,20102812 <_malloc_r+0x3a>
201027fc:	47b1                	li	a5,12
201027fe:	00f92023          	sw	a5,0(s2)
20102802:	4501                	li	a0,0
20102804:	40f2                	lw	ra,28(sp)
20102806:	4462                	lw	s0,24(sp)
20102808:	44d2                	lw	s1,20(sp)
2010280a:	4942                	lw	s2,16(sp)
2010280c:	49b2                	lw	s3,12(sp)
2010280e:	6105                	addi	sp,sp,32
20102810:	8082                	ret
20102812:	2b51                	jal	20102da6 <__malloc_lock>
20102814:	87c18993          	addi	s3,gp,-1924 # 2012025c <__malloc_free_list>
20102818:	0009a783          	lw	a5,0(s3)
2010281c:	843e                	mv	s0,a5
2010281e:	e431                	bnez	s0,2010286a <_malloc_r+0x92>
20102820:	85a6                	mv	a1,s1
20102822:	854a                	mv	a0,s2
20102824:	3785                	jal	20102784 <sbrk_aligned>
20102826:	57fd                	li	a5,-1
20102828:	842a                	mv	s0,a0
2010282a:	0af51663          	bne	a0,a5,201028d6 <_malloc_r+0xfe>
2010282e:	0009a403          	lw	s0,0(s3)
20102832:	87a2                	mv	a5,s0
20102834:	ebc1                	bnez	a5,201028c4 <_malloc_r+0xec>
20102836:	00042983          	lw	s3,0(s0)
2010283a:	4581                	li	a1,0
2010283c:	854a                	mv	a0,s2
2010283e:	99a2                	add	s3,s3,s0
20102840:	2e65                	jal	20102bf8 <_sbrk_r>
20102842:	08a99463          	bne	s3,a0,201028ca <_malloc_r+0xf2>
20102846:	401c                	lw	a5,0(s0)
20102848:	048d                	addi	s1,s1,3
2010284a:	854a                	mv	a0,s2
2010284c:	8c9d                	sub	s1,s1,a5
2010284e:	98f1                	andi	s1,s1,-4
20102850:	47b1                	li	a5,12
20102852:	04a1                	addi	s1,s1,8
20102854:	0af4f4b3          	maxu	s1,s1,a5
20102858:	85a6                	mv	a1,s1
2010285a:	372d                	jal	20102784 <sbrk_aligned>
2010285c:	57fd                	li	a5,-1
2010285e:	06f50663          	beq	a0,a5,201028ca <_malloc_r+0xf2>
20102862:	401c                	lw	a5,0(s0)
20102864:	97a6                	add	a5,a5,s1
20102866:	c01c                	sw	a5,0(s0)
20102868:	a015                	j	2010288c <_malloc_r+0xb4>
2010286a:	4014                	lw	a3,0(s0)
2010286c:	8e85                	sub	a3,a3,s1
2010286e:	0406c863          	bltz	a3,201028be <_malloc_r+0xe6>
20102872:	472d                	li	a4,11
20102874:	02d77d63          	bgeu	a4,a3,201028ae <_malloc_r+0xd6>
20102878:	c004                	sw	s1,0(s0)
2010287a:	00940733          	add	a4,s0,s1
2010287e:	02879663          	bne	a5,s0,201028aa <_malloc_r+0xd2>
20102882:	00e9a023          	sw	a4,0(s3)
20102886:	405c                	lw	a5,4(s0)
20102888:	c314                	sw	a3,0(a4)
2010288a:	c35c                	sw	a5,4(a4)
2010288c:	854a                	mv	a0,s2
2010288e:	2305                	jal	20102dae <__malloc_unlock>
20102890:	00b40513          	addi	a0,s0,11
20102894:	00440793          	addi	a5,s0,4
20102898:	9961                	andi	a0,a0,-8
2010289a:	40f50733          	sub	a4,a0,a5
2010289e:	f6f503e3          	beq	a0,a5,20102804 <_malloc_r+0x2c>
201028a2:	943a                	add	s0,s0,a4
201028a4:	8f89                	sub	a5,a5,a0
201028a6:	c01c                	sw	a5,0(s0)
201028a8:	bfb1                	j	20102804 <_malloc_r+0x2c>
201028aa:	c3d8                	sw	a4,4(a5)
201028ac:	bfe9                	j	20102886 <_malloc_r+0xae>
201028ae:	4058                	lw	a4,4(s0)
201028b0:	00879563          	bne	a5,s0,201028ba <_malloc_r+0xe2>
201028b4:	00e9a023          	sw	a4,0(s3)
201028b8:	bfd1                	j	2010288c <_malloc_r+0xb4>
201028ba:	c3d8                	sw	a4,4(a5)
201028bc:	bfc1                	j	2010288c <_malloc_r+0xb4>
201028be:	87a2                	mv	a5,s0
201028c0:	4040                	lw	s0,4(s0)
201028c2:	bfb1                	j	2010281e <_malloc_r+0x46>
201028c4:	843e                	mv	s0,a5
201028c6:	43dc                	lw	a5,4(a5)
201028c8:	b7b5                	j	20102834 <_malloc_r+0x5c>
201028ca:	47b1                	li	a5,12
201028cc:	00f92023          	sw	a5,0(s2)
201028d0:	854a                	mv	a0,s2
201028d2:	29f1                	jal	20102dae <__malloc_unlock>
201028d4:	b73d                	j	20102802 <_malloc_r+0x2a>
201028d6:	c104                	sw	s1,0(a0)
201028d8:	bf55                	j	2010288c <_malloc_r+0xb4>

201028da <__sfputc_r>:
201028da:	461c                	lw	a5,8(a2)
201028dc:	17fd                	addi	a5,a5,-1
201028de:	c61c                	sw	a5,8(a2)
201028e0:	0007da63          	bgez	a5,201028f4 <__sfputc_r+0x1a>
201028e4:	4e18                	lw	a4,24(a2)
201028e6:	00e7c563          	blt	a5,a4,201028f0 <__sfputc_r+0x16>
201028ea:	47a9                	li	a5,10
201028ec:	00f59463          	bne	a1,a5,201028f4 <__sfputc_r+0x1a>
201028f0:	f60ff06f          	j	20102050 <__swbuf_r>
201028f4:	421c                	lw	a5,0(a2)
201028f6:	852e                	mv	a0,a1
201028f8:	00178713          	addi	a4,a5,1
201028fc:	c218                	sw	a4,0(a2)
201028fe:	a38c                	sb	a1,0(a5)
20102900:	8082                	ret

20102902 <__sfputs_r>:
20102902:	1101                	addi	sp,sp,-32
20102904:	cc22                	sw	s0,24(sp)
20102906:	ca26                	sw	s1,20(sp)
20102908:	c84a                	sw	s2,16(sp)
2010290a:	c64e                	sw	s3,12(sp)
2010290c:	c452                	sw	s4,8(sp)
2010290e:	ce06                	sw	ra,28(sp)
20102910:	892a                	mv	s2,a0
20102912:	89ae                	mv	s3,a1
20102914:	8432                	mv	s0,a2
20102916:	00d604b3          	add	s1,a2,a3
2010291a:	5a7d                	li	s4,-1
2010291c:	00941463          	bne	s0,s1,20102924 <__sfputs_r+0x22>
20102920:	4501                	li	a0,0
20102922:	a801                	j	20102932 <__sfputs_r+0x30>
20102924:	200c                	lbu	a1,0(s0)
20102926:	864e                	mv	a2,s3
20102928:	854a                	mv	a0,s2
2010292a:	3f45                	jal	201028da <__sfputc_r>
2010292c:	0405                	addi	s0,s0,1
2010292e:	ff4517e3          	bne	a0,s4,2010291c <__sfputs_r+0x1a>
20102932:	40f2                	lw	ra,28(sp)
20102934:	4462                	lw	s0,24(sp)
20102936:	44d2                	lw	s1,20(sp)
20102938:	4942                	lw	s2,16(sp)
2010293a:	49b2                	lw	s3,12(sp)
2010293c:	4a22                	lw	s4,8(sp)
2010293e:	6105                	addi	sp,sp,32
20102940:	8082                	ret

20102942 <_vfiprintf_r>:
20102942:	7135                	addi	sp,sp,-160
20102944:	cd22                	sw	s0,152(sp)
20102946:	cb26                	sw	s1,148(sp)
20102948:	c94a                	sw	s2,144(sp)
2010294a:	c74e                	sw	s3,140(sp)
2010294c:	cf06                	sw	ra,156(sp)
2010294e:	c552                	sw	s4,136(sp)
20102950:	c356                	sw	s5,132(sp)
20102952:	c15a                	sw	s6,128(sp)
20102954:	dede                	sw	s7,124(sp)
20102956:	dce2                	sw	s8,120(sp)
20102958:	89aa                	mv	s3,a0
2010295a:	842e                	mv	s0,a1
2010295c:	8932                	mv	s2,a2
2010295e:	84b6                	mv	s1,a3
20102960:	c509                	beqz	a0,2010296a <_vfiprintf_r+0x28>
20102962:	4d1c                	lw	a5,24(a0)
20102964:	e399                	bnez	a5,2010296a <_vfiprintf_r+0x28>
20102966:	b1bff0ef          	jal	ra,20102480 <__sinit>
2010296a:	dff01797          	auipc	a5,0xdff01
2010296e:	d0a78793          	addi	a5,a5,-758 # 3674 <__sf_fake_stdin>
20102972:	04f41863          	bne	s0,a5,201029c2 <_vfiprintf_r+0x80>
20102976:	0049a403          	lw	s0,4(s3)
2010297a:	507c                	lw	a5,100(s0)
2010297c:	8b85                	andi	a5,a5,1
2010297e:	eb81                	bnez	a5,2010298e <_vfiprintf_r+0x4c>
20102980:	245e                	lhu	a5,12(s0)
20102982:	2007f793          	andi	a5,a5,512
20102986:	e781                	bnez	a5,2010298e <_vfiprintf_r+0x4c>
20102988:	4c28                	lw	a0,88(s0)
2010298a:	c6fff0ef          	jal	ra,201025f8 <__retarget_lock_acquire_recursive>
2010298e:	245e                	lhu	a5,12(s0)
20102990:	8ba1                	andi	a5,a5,8
20102992:	c399                	beqz	a5,20102998 <_vfiprintf_r+0x56>
20102994:	481c                	lw	a5,16(s0)
20102996:	e3a5                	bnez	a5,201029f6 <_vfiprintf_r+0xb4>
20102998:	85a2                	mv	a1,s0
2010299a:	854e                	mv	a0,s3
2010299c:	f70ff0ef          	jal	ra,2010210c <__swsetup_r>
201029a0:	c939                	beqz	a0,201029f6 <_vfiprintf_r+0xb4>
201029a2:	507c                	lw	a5,100(s0)
201029a4:	8b85                	andi	a5,a5,1
201029a6:	c3a1                	beqz	a5,201029e6 <_vfiprintf_r+0xa4>
201029a8:	557d                	li	a0,-1
201029aa:	40fa                	lw	ra,156(sp)
201029ac:	446a                	lw	s0,152(sp)
201029ae:	44da                	lw	s1,148(sp)
201029b0:	494a                	lw	s2,144(sp)
201029b2:	49ba                	lw	s3,140(sp)
201029b4:	4a2a                	lw	s4,136(sp)
201029b6:	4a9a                	lw	s5,132(sp)
201029b8:	4b0a                	lw	s6,128(sp)
201029ba:	5bf6                	lw	s7,124(sp)
201029bc:	5c66                	lw	s8,120(sp)
201029be:	610d                	addi	sp,sp,160
201029c0:	8082                	ret
201029c2:	dff01797          	auipc	a5,0xdff01
201029c6:	c9278793          	addi	a5,a5,-878 # 3654 <__sf_fake_stdout>
201029ca:	00f41563          	bne	s0,a5,201029d4 <_vfiprintf_r+0x92>
201029ce:	0089a403          	lw	s0,8(s3)
201029d2:	b765                	j	2010297a <_vfiprintf_r+0x38>
201029d4:	dff01797          	auipc	a5,0xdff01
201029d8:	c6078793          	addi	a5,a5,-928 # 3634 <__sf_fake_stderr>
201029dc:	f8f41fe3          	bne	s0,a5,2010297a <_vfiprintf_r+0x38>
201029e0:	00c9a403          	lw	s0,12(s3)
201029e4:	bf59                	j	2010297a <_vfiprintf_r+0x38>
201029e6:	245e                	lhu	a5,12(s0)
201029e8:	2007f793          	andi	a5,a5,512
201029ec:	ffd5                	bnez	a5,201029a8 <_vfiprintf_r+0x66>
201029ee:	4c28                	lw	a0,88(s0)
201029f0:	c0bff0ef          	jal	ra,201025fa <__retarget_lock_release_recursive>
201029f4:	bf55                	j	201029a8 <_vfiprintf_r+0x66>
201029f6:	02000793          	li	a5,32
201029fa:	02f104a3          	sb	a5,41(sp)
201029fe:	03000793          	li	a5,48
20102a02:	d202                	sw	zero,36(sp)
20102a04:	02f10523          	sb	a5,42(sp)
20102a08:	c626                	sw	s1,12(sp)
20102a0a:	02500b93          	li	s7,37
20102a0e:	dff01a97          	auipc	s5,0xdff01
20102a12:	c86a8a93          	addi	s5,s5,-890 # 3694 <__sf_fake_stdin+0x20>
20102a16:	4b29                	li	s6,10
20102a18:	84ca                	mv	s1,s2
20102a1a:	209c                	lbu	a5,0(s1)
20102a1c:	c399                	beqz	a5,20102a22 <_vfiprintf_r+0xe0>
20102a1e:	09779963          	bne	a5,s7,20102ab0 <_vfiprintf_r+0x16e>
20102a22:	41248c33          	sub	s8,s1,s2
20102a26:	01248d63          	beq	s1,s2,20102a40 <_vfiprintf_r+0xfe>
20102a2a:	86e2                	mv	a3,s8
20102a2c:	864a                	mv	a2,s2
20102a2e:	85a2                	mv	a1,s0
20102a30:	854e                	mv	a0,s3
20102a32:	3dc1                	jal	20102902 <__sfputs_r>
20102a34:	57fd                	li	a5,-1
20102a36:	18f50663          	beq	a0,a5,20102bc2 <_vfiprintf_r+0x280>
20102a3a:	5792                	lw	a5,36(sp)
20102a3c:	97e2                	add	a5,a5,s8
20102a3e:	d23e                	sw	a5,36(sp)
20102a40:	209c                	lbu	a5,0(s1)
20102a42:	18078063          	beqz	a5,20102bc2 <_vfiprintf_r+0x280>
20102a46:	57fd                	li	a5,-1
20102a48:	00148913          	addi	s2,s1,1
20102a4c:	c802                	sw	zero,16(sp)
20102a4e:	ce02                	sw	zero,28(sp)
20102a50:	ca3e                	sw	a5,20(sp)
20102a52:	cc02                	sw	zero,24(sp)
20102a54:	040109a3          	sb	zero,83(sp)
20102a58:	d482                	sw	zero,104(sp)
20102a5a:	00094583          	lbu	a1,0(s2)
20102a5e:	4615                	li	a2,5
20102a60:	8556                	mv	a0,s5
20102a62:	2635                	jal	20102d8e <memchr>
20102a64:	47c2                	lw	a5,16(sp)
20102a66:	00190493          	addi	s1,s2,1
20102a6a:	e529                	bnez	a0,20102ab4 <_vfiprintf_r+0x172>
20102a6c:	0107f713          	andi	a4,a5,16
20102a70:	c709                	beqz	a4,20102a7a <_vfiprintf_r+0x138>
20102a72:	02000713          	li	a4,32
20102a76:	04e109a3          	sb	a4,83(sp)
20102a7a:	0087f713          	andi	a4,a5,8
20102a7e:	c709                	beqz	a4,20102a88 <_vfiprintf_r+0x146>
20102a80:	02b00713          	li	a4,43
20102a84:	04e109a3          	sb	a4,83(sp)
20102a88:	00094683          	lbu	a3,0(s2)
20102a8c:	02a00713          	li	a4,42
20102a90:	02e68963          	beq	a3,a4,20102ac2 <_vfiprintf_r+0x180>
20102a94:	47f2                	lw	a5,28(sp)
20102a96:	84ca                	mv	s1,s2
20102a98:	4681                	li	a3,0
20102a9a:	4625                	li	a2,9
20102a9c:	2098                	lbu	a4,0(s1)
20102a9e:	00148593          	addi	a1,s1,1
20102aa2:	fd070713          	addi	a4,a4,-48 # ffffdfd0 <_eusrstack+0xdfe7dfd0>
20102aa6:	06e67263          	bgeu	a2,a4,20102b0a <_vfiprintf_r+0x1c8>
20102aaa:	c685                	beqz	a3,20102ad2 <_vfiprintf_r+0x190>
20102aac:	ce3e                	sw	a5,28(sp)
20102aae:	a015                	j	20102ad2 <_vfiprintf_r+0x190>
20102ab0:	0485                	addi	s1,s1,1
20102ab2:	b7a5                	j	20102a1a <_vfiprintf_r+0xd8>
20102ab4:	41550533          	sub	a0,a0,s5
20102ab8:	28a797b3          	bset	a5,a5,a0
20102abc:	8926                	mv	s2,s1
20102abe:	c83e                	sw	a5,16(sp)
20102ac0:	bf69                	j	20102a5a <_vfiprintf_r+0x118>
20102ac2:	4732                	lw	a4,12(sp)
20102ac4:	00470693          	addi	a3,a4,4
20102ac8:	4318                	lw	a4,0(a4)
20102aca:	c636                	sw	a3,12(sp)
20102acc:	02074863          	bltz	a4,20102afc <_vfiprintf_r+0x1ba>
20102ad0:	ce3a                	sw	a4,28(sp)
20102ad2:	2098                	lbu	a4,0(s1)
20102ad4:	02e00793          	li	a5,46
20102ad8:	04f71c63          	bne	a4,a5,20102b30 <_vfiprintf_r+0x1ee>
20102adc:	3098                	lbu	a4,1(s1)
20102ade:	02a00793          	li	a5,42
20102ae2:	02f71a63          	bne	a4,a5,20102b16 <_vfiprintf_r+0x1d4>
20102ae6:	47b2                	lw	a5,12(sp)
20102ae8:	0489                	addi	s1,s1,2
20102aea:	00478713          	addi	a4,a5,4
20102aee:	439c                	lw	a5,0(a5)
20102af0:	c63a                	sw	a4,12(sp)
20102af2:	577d                	li	a4,-1
20102af4:	0ae7e7b3          	max	a5,a5,a4
20102af8:	ca3e                	sw	a5,20(sp)
20102afa:	a81d                	j	20102b30 <_vfiprintf_r+0x1ee>
20102afc:	40e00733          	neg	a4,a4
20102b00:	0027e793          	ori	a5,a5,2
20102b04:	ce3a                	sw	a4,28(sp)
20102b06:	c83e                	sw	a5,16(sp)
20102b08:	b7e9                	j	20102ad2 <_vfiprintf_r+0x190>
20102b0a:	036787b3          	mul	a5,a5,s6
20102b0e:	84ae                	mv	s1,a1
20102b10:	4685                	li	a3,1
20102b12:	97ba                	add	a5,a5,a4
20102b14:	b761                	j	20102a9c <_vfiprintf_r+0x15a>
20102b16:	0485                	addi	s1,s1,1
20102b18:	ca02                	sw	zero,20(sp)
20102b1a:	4681                	li	a3,0
20102b1c:	4781                	li	a5,0
20102b1e:	4625                	li	a2,9
20102b20:	2098                	lbu	a4,0(s1)
20102b22:	00148593          	addi	a1,s1,1
20102b26:	fd070713          	addi	a4,a4,-48
20102b2a:	06e67263          	bgeu	a2,a4,20102b8e <_vfiprintf_r+0x24c>
20102b2e:	f6e9                	bnez	a3,20102af8 <_vfiprintf_r+0x1b6>
20102b30:	208c                	lbu	a1,0(s1)
20102b32:	460d                	li	a2,3
20102b34:	dff01517          	auipc	a0,0xdff01
20102b38:	b6850513          	addi	a0,a0,-1176 # 369c <__sf_fake_stdin+0x28>
20102b3c:	2c89                	jal	20102d8e <memchr>
20102b3e:	cd11                	beqz	a0,20102b5a <_vfiprintf_r+0x218>
20102b40:	dff01797          	auipc	a5,0xdff01
20102b44:	b5c78793          	addi	a5,a5,-1188 # 369c <__sf_fake_stdin+0x28>
20102b48:	8d1d                	sub	a0,a0,a5
20102b4a:	47c2                	lw	a5,16(sp)
20102b4c:	04000713          	li	a4,64
20102b50:	00a71733          	sll	a4,a4,a0
20102b54:	8fd9                	or	a5,a5,a4
20102b56:	0485                	addi	s1,s1,1
20102b58:	c83e                	sw	a5,16(sp)
20102b5a:	208c                	lbu	a1,0(s1)
20102b5c:	4619                	li	a2,6
20102b5e:	dff01517          	auipc	a0,0xdff01
20102b62:	b4250513          	addi	a0,a0,-1214 # 36a0 <__sf_fake_stdin+0x2c>
20102b66:	00148913          	addi	s2,s1,1
20102b6a:	02b10423          	sb	a1,40(sp)
20102b6e:	2405                	jal	20102d8e <memchr>
20102b70:	c935                	beqz	a0,20102be4 <_vfiprintf_r+0x2a2>
20102b72:	00000793          	li	a5,0
20102b76:	e795                	bnez	a5,20102ba2 <_vfiprintf_r+0x260>
20102b78:	4742                	lw	a4,16(sp)
20102b7a:	47b2                	lw	a5,12(sp)
20102b7c:	10077713          	andi	a4,a4,256
20102b80:	cf09                	beqz	a4,20102b9a <_vfiprintf_r+0x258>
20102b82:	0791                	addi	a5,a5,4
20102b84:	c63e                	sw	a5,12(sp)
20102b86:	5792                	lw	a5,36(sp)
20102b88:	97d2                	add	a5,a5,s4
20102b8a:	d23e                	sw	a5,36(sp)
20102b8c:	b571                	j	20102a18 <_vfiprintf_r+0xd6>
20102b8e:	036787b3          	mul	a5,a5,s6
20102b92:	84ae                	mv	s1,a1
20102b94:	4685                	li	a3,1
20102b96:	97ba                	add	a5,a5,a4
20102b98:	b761                	j	20102b20 <_vfiprintf_r+0x1de>
20102b9a:	079d                	addi	a5,a5,7
20102b9c:	9be1                	andi	a5,a5,-8
20102b9e:	07a1                	addi	a5,a5,8
20102ba0:	b7d5                	j	20102b84 <_vfiprintf_r+0x242>
20102ba2:	0078                	addi	a4,sp,12
20102ba4:	00000697          	auipc	a3,0x0
20102ba8:	d5e68693          	addi	a3,a3,-674 # 20102902 <__sfputs_r>
20102bac:	8622                	mv	a2,s0
20102bae:	080c                	addi	a1,sp,16
20102bb0:	854e                	mv	a0,s3
20102bb2:	00000097          	auipc	ra,0x0
20102bb6:	000000e7          	jalr	zero # 0 <_sinit>
20102bba:	57fd                	li	a5,-1
20102bbc:	8a2a                	mv	s4,a0
20102bbe:	fcf514e3          	bne	a0,a5,20102b86 <_vfiprintf_r+0x244>
20102bc2:	507c                	lw	a5,100(s0)
20102bc4:	8b85                	andi	a5,a5,1
20102bc6:	eb81                	bnez	a5,20102bd6 <_vfiprintf_r+0x294>
20102bc8:	245e                	lhu	a5,12(s0)
20102bca:	2007f793          	andi	a5,a5,512
20102bce:	e781                	bnez	a5,20102bd6 <_vfiprintf_r+0x294>
20102bd0:	4c28                	lw	a0,88(s0)
20102bd2:	a29ff0ef          	jal	ra,201025fa <__retarget_lock_release_recursive>
20102bd6:	245e                	lhu	a5,12(s0)
20102bd8:	0407f793          	andi	a5,a5,64
20102bdc:	dc0796e3          	bnez	a5,201029a8 <_vfiprintf_r+0x66>
20102be0:	5512                	lw	a0,36(sp)
20102be2:	b3e1                	j	201029aa <_vfiprintf_r+0x68>
20102be4:	0078                	addi	a4,sp,12
20102be6:	00000697          	auipc	a3,0x0
20102bea:	d1c68693          	addi	a3,a3,-740 # 20102902 <__sfputs_r>
20102bee:	8622                	mv	a2,s0
20102bf0:	080c                	addi	a1,sp,16
20102bf2:	854e                	mv	a0,s3
20102bf4:	24f1                	jal	20102ec0 <_printf_i>
20102bf6:	b7d1                	j	20102bba <_vfiprintf_r+0x278>

20102bf8 <_sbrk_r>:
20102bf8:	1141                	addi	sp,sp,-16
20102bfa:	c422                	sw	s0,8(sp)
20102bfc:	842a                	mv	s0,a0
20102bfe:	852e                	mv	a0,a1
20102c00:	8801a023          	sw	zero,-1920(gp) # 20120260 <errno>
20102c04:	c606                	sw	ra,12(sp)
20102c06:	fbefe0ef          	jal	ra,201013c4 <_sbrk>
20102c0a:	57fd                	li	a5,-1
20102c0c:	00f51663          	bne	a0,a5,20102c18 <_sbrk_r+0x20>
20102c10:	8801a783          	lw	a5,-1920(gp) # 20120260 <errno>
20102c14:	c391                	beqz	a5,20102c18 <_sbrk_r+0x20>
20102c16:	c01c                	sw	a5,0(s0)
20102c18:	40b2                	lw	ra,12(sp)
20102c1a:	4422                	lw	s0,8(sp)
20102c1c:	0141                	addi	sp,sp,16
20102c1e:	8082                	ret

20102c20 <__sread>:
20102c20:	1141                	addi	sp,sp,-16
20102c22:	c422                	sw	s0,8(sp)
20102c24:	842e                	mv	s0,a1
20102c26:	00e59583          	lh	a1,14(a1)
20102c2a:	c606                	sw	ra,12(sp)
20102c2c:	2b01                	jal	2010313c <_read_r>
20102c2e:	00054963          	bltz	a0,20102c40 <__sread+0x20>
20102c32:	487c                	lw	a5,84(s0)
20102c34:	97aa                	add	a5,a5,a0
20102c36:	c87c                	sw	a5,84(s0)
20102c38:	40b2                	lw	ra,12(sp)
20102c3a:	4422                	lw	s0,8(sp)
20102c3c:	0141                	addi	sp,sp,16
20102c3e:	8082                	ret
20102c40:	245e                	lhu	a5,12(s0)
20102c42:	48c79793          	bclri	a5,a5,0xc
20102c46:	a45e                	sh	a5,12(s0)
20102c48:	bfc5                	j	20102c38 <__sread+0x18>

20102c4a <__swrite>:
20102c4a:	25de                	lhu	a5,12(a1)
20102c4c:	1101                	addi	sp,sp,-32
20102c4e:	cc22                	sw	s0,24(sp)
20102c50:	ca26                	sw	s1,20(sp)
20102c52:	c84a                	sw	s2,16(sp)
20102c54:	c64e                	sw	s3,12(sp)
20102c56:	ce06                	sw	ra,28(sp)
20102c58:	1007f793          	andi	a5,a5,256
20102c5c:	84aa                	mv	s1,a0
20102c5e:	842e                	mv	s0,a1
20102c60:	8932                	mv	s2,a2
20102c62:	89b6                	mv	s3,a3
20102c64:	c791                	beqz	a5,20102c70 <__swrite+0x26>
20102c66:	00e59583          	lh	a1,14(a1)
20102c6a:	4689                	li	a3,2
20102c6c:	4601                	li	a2,0
20102c6e:	28dd                	jal	20102d64 <_lseek_r>
20102c70:	245e                	lhu	a5,12(s0)
20102c72:	00e41583          	lh	a1,14(s0)
20102c76:	40f2                	lw	ra,28(sp)
20102c78:	48c79793          	bclri	a5,a5,0xc
20102c7c:	a45e                	sh	a5,12(s0)
20102c7e:	4462                	lw	s0,24(sp)
20102c80:	86ce                	mv	a3,s3
20102c82:	864a                	mv	a2,s2
20102c84:	49b2                	lw	s3,12(sp)
20102c86:	4942                	lw	s2,16(sp)
20102c88:	8526                	mv	a0,s1
20102c8a:	44d2                	lw	s1,20(sp)
20102c8c:	6105                	addi	sp,sp,32
20102c8e:	a81d                	j	20102cc4 <_write_r>

20102c90 <__sseek>:
20102c90:	1141                	addi	sp,sp,-16
20102c92:	c422                	sw	s0,8(sp)
20102c94:	842e                	mv	s0,a1
20102c96:	00e59583          	lh	a1,14(a1)
20102c9a:	c606                	sw	ra,12(sp)
20102c9c:	20e1                	jal	20102d64 <_lseek_r>
20102c9e:	577d                	li	a4,-1
20102ca0:	245e                	lhu	a5,12(s0)
20102ca2:	00e51963          	bne	a0,a4,20102cb4 <__sseek+0x24>
20102ca6:	48c79793          	bclri	a5,a5,0xc
20102caa:	a45e                	sh	a5,12(s0)
20102cac:	40b2                	lw	ra,12(sp)
20102cae:	4422                	lw	s0,8(sp)
20102cb0:	0141                	addi	sp,sp,16
20102cb2:	8082                	ret
20102cb4:	28c79793          	bseti	a5,a5,0xc
20102cb8:	c868                	sw	a0,84(s0)
20102cba:	a45e                	sh	a5,12(s0)
20102cbc:	bfc5                	j	20102cac <__sseek+0x1c>

20102cbe <__sclose>:
20102cbe:	00e59583          	lh	a1,14(a1)
20102cc2:	a03d                	j	20102cf0 <_close_r>

20102cc4 <_write_r>:
20102cc4:	1141                	addi	sp,sp,-16
20102cc6:	c422                	sw	s0,8(sp)
20102cc8:	842a                	mv	s0,a0
20102cca:	852e                	mv	a0,a1
20102ccc:	85b2                	mv	a1,a2
20102cce:	8636                	mv	a2,a3
20102cd0:	8801a023          	sw	zero,-1920(gp) # 20120260 <errno>
20102cd4:	c606                	sw	ra,12(sp)
20102cd6:	eb4fe0ef          	jal	ra,2010138a <_write>
20102cda:	57fd                	li	a5,-1
20102cdc:	00f51663          	bne	a0,a5,20102ce8 <_write_r+0x24>
20102ce0:	8801a783          	lw	a5,-1920(gp) # 20120260 <errno>
20102ce4:	c391                	beqz	a5,20102ce8 <_write_r+0x24>
20102ce6:	c01c                	sw	a5,0(s0)
20102ce8:	40b2                	lw	ra,12(sp)
20102cea:	4422                	lw	s0,8(sp)
20102cec:	0141                	addi	sp,sp,16
20102cee:	8082                	ret

20102cf0 <_close_r>:
20102cf0:	1141                	addi	sp,sp,-16
20102cf2:	c422                	sw	s0,8(sp)
20102cf4:	842a                	mv	s0,a0
20102cf6:	852e                	mv	a0,a1
20102cf8:	8801a023          	sw	zero,-1920(gp) # 20120260 <errno>
20102cfc:	c606                	sw	ra,12(sp)
20102cfe:	21a5                	jal	20103166 <_close>
20102d00:	57fd                	li	a5,-1
20102d02:	00f51663          	bne	a0,a5,20102d0e <_close_r+0x1e>
20102d06:	8801a783          	lw	a5,-1920(gp) # 20120260 <errno>
20102d0a:	c391                	beqz	a5,20102d0e <_close_r+0x1e>
20102d0c:	c01c                	sw	a5,0(s0)
20102d0e:	40b2                	lw	ra,12(sp)
20102d10:	4422                	lw	s0,8(sp)
20102d12:	0141                	addi	sp,sp,16
20102d14:	8082                	ret

20102d16 <_fstat_r>:
20102d16:	1141                	addi	sp,sp,-16
20102d18:	c422                	sw	s0,8(sp)
20102d1a:	842a                	mv	s0,a0
20102d1c:	852e                	mv	a0,a1
20102d1e:	85b2                	mv	a1,a2
20102d20:	8801a023          	sw	zero,-1920(gp) # 20120260 <errno>
20102d24:	c606                	sw	ra,12(sp)
20102d26:	21b1                	jal	20103172 <_fstat>
20102d28:	57fd                	li	a5,-1
20102d2a:	00f51663          	bne	a0,a5,20102d36 <_fstat_r+0x20>
20102d2e:	8801a783          	lw	a5,-1920(gp) # 20120260 <errno>
20102d32:	c391                	beqz	a5,20102d36 <_fstat_r+0x20>
20102d34:	c01c                	sw	a5,0(s0)
20102d36:	40b2                	lw	ra,12(sp)
20102d38:	4422                	lw	s0,8(sp)
20102d3a:	0141                	addi	sp,sp,16
20102d3c:	8082                	ret

20102d3e <_isatty_r>:
20102d3e:	1141                	addi	sp,sp,-16
20102d40:	c422                	sw	s0,8(sp)
20102d42:	842a                	mv	s0,a0
20102d44:	852e                	mv	a0,a1
20102d46:	8801a023          	sw	zero,-1920(gp) # 20120260 <errno>
20102d4a:	c606                	sw	ra,12(sp)
20102d4c:	290d                	jal	2010317e <_isatty>
20102d4e:	57fd                	li	a5,-1
20102d50:	00f51663          	bne	a0,a5,20102d5c <_isatty_r+0x1e>
20102d54:	8801a783          	lw	a5,-1920(gp) # 20120260 <errno>
20102d58:	c391                	beqz	a5,20102d5c <_isatty_r+0x1e>
20102d5a:	c01c                	sw	a5,0(s0)
20102d5c:	40b2                	lw	ra,12(sp)
20102d5e:	4422                	lw	s0,8(sp)
20102d60:	0141                	addi	sp,sp,16
20102d62:	8082                	ret

20102d64 <_lseek_r>:
20102d64:	1141                	addi	sp,sp,-16
20102d66:	c422                	sw	s0,8(sp)
20102d68:	842a                	mv	s0,a0
20102d6a:	852e                	mv	a0,a1
20102d6c:	85b2                	mv	a1,a2
20102d6e:	8636                	mv	a2,a3
20102d70:	8801a023          	sw	zero,-1920(gp) # 20120260 <errno>
20102d74:	c606                	sw	ra,12(sp)
20102d76:	2911                	jal	2010318a <_lseek>
20102d78:	57fd                	li	a5,-1
20102d7a:	00f51663          	bne	a0,a5,20102d86 <_lseek_r+0x22>
20102d7e:	8801a783          	lw	a5,-1920(gp) # 20120260 <errno>
20102d82:	c391                	beqz	a5,20102d86 <_lseek_r+0x22>
20102d84:	c01c                	sw	a5,0(s0)
20102d86:	40b2                	lw	ra,12(sp)
20102d88:	4422                	lw	s0,8(sp)
20102d8a:	0141                	addi	sp,sp,16
20102d8c:	8082                	ret

20102d8e <memchr>:
20102d8e:	0ff5f593          	zext.b	a1,a1
20102d92:	962a                	add	a2,a2,a0
20102d94:	00c51463          	bne	a0,a2,20102d9c <memchr+0xe>
20102d98:	4501                	li	a0,0
20102d9a:	8082                	ret
20102d9c:	211c                	lbu	a5,0(a0)
20102d9e:	feb78ee3          	beq	a5,a1,20102d9a <memchr+0xc>
20102da2:	0505                	addi	a0,a0,1
20102da4:	bfc5                	j	20102d94 <memchr+0x6>

20102da6 <__malloc_lock>:
20102da6:	86c18513          	addi	a0,gp,-1940 # 2012024c <__lock___malloc_recursive_mutex>
20102daa:	84fff06f          	j	201025f8 <__retarget_lock_acquire_recursive>

20102dae <__malloc_unlock>:
20102dae:	86c18513          	addi	a0,gp,-1940 # 2012024c <__lock___malloc_recursive_mutex>
20102db2:	849ff06f          	j	201025fa <__retarget_lock_release_recursive>

20102db6 <_printf_common>:
20102db6:	7179                	addi	sp,sp,-48
20102db8:	ca56                	sw	s5,20(sp)
20102dba:	499c                	lw	a5,16(a1)
20102dbc:	8aba                	mv	s5,a4
20102dbe:	4598                	lw	a4,8(a1)
20102dc0:	d422                	sw	s0,40(sp)
20102dc2:	d04a                	sw	s2,32(sp)
20102dc4:	ce4e                	sw	s3,28(sp)
20102dc6:	cc52                	sw	s4,24(sp)
20102dc8:	d606                	sw	ra,44(sp)
20102dca:	d226                	sw	s1,36(sp)
20102dcc:	c85a                	sw	s6,16(sp)
20102dce:	c65e                	sw	s7,12(sp)
20102dd0:	0ae7e7b3          	max	a5,a5,a4
20102dd4:	c21c                	sw	a5,0(a2)
20102dd6:	0435c703          	lbu	a4,67(a1)
20102dda:	89aa                	mv	s3,a0
20102ddc:	842e                	mv	s0,a1
20102dde:	8932                	mv	s2,a2
20102de0:	8a36                	mv	s4,a3
20102de2:	c319                	beqz	a4,20102de8 <_printf_common+0x32>
20102de4:	0785                	addi	a5,a5,1
20102de6:	c21c                	sw	a5,0(a2)
20102de8:	401c                	lw	a5,0(s0)
20102dea:	0207f793          	andi	a5,a5,32
20102dee:	c791                	beqz	a5,20102dfa <_printf_common+0x44>
20102df0:	00092783          	lw	a5,0(s2)
20102df4:	0789                	addi	a5,a5,2
20102df6:	00f92023          	sw	a5,0(s2)
20102dfa:	4004                	lw	s1,0(s0)
20102dfc:	8899                	andi	s1,s1,6
20102dfe:	e891                	bnez	s1,20102e12 <_printf_common+0x5c>
20102e00:	01940b13          	addi	s6,s0,25
20102e04:	5bfd                	li	s7,-1
20102e06:	445c                	lw	a5,12(s0)
20102e08:	00092703          	lw	a4,0(s2)
20102e0c:	8f99                	sub	a5,a5,a4
20102e0e:	04f4cc63          	blt	s1,a5,20102e66 <_printf_common+0xb0>
20102e12:	04344783          	lbu	a5,67(s0)
20102e16:	00f036b3          	snez	a3,a5
20102e1a:	401c                	lw	a5,0(s0)
20102e1c:	0207f793          	andi	a5,a5,32
20102e20:	eba5                	bnez	a5,20102e90 <_printf_common+0xda>
20102e22:	04340613          	addi	a2,s0,67
20102e26:	85d2                	mv	a1,s4
20102e28:	854e                	mv	a0,s3
20102e2a:	9a82                	jalr	s5
20102e2c:	57fd                	li	a5,-1
20102e2e:	04f50363          	beq	a0,a5,20102e74 <_printf_common+0xbe>
20102e32:	401c                	lw	a5,0(s0)
20102e34:	4711                	li	a4,4
20102e36:	4481                	li	s1,0
20102e38:	8b99                	andi	a5,a5,6
20102e3a:	00e79963          	bne	a5,a4,20102e4c <_printf_common+0x96>
20102e3e:	00092783          	lw	a5,0(s2)
20102e42:	4444                	lw	s1,12(s0)
20102e44:	8c9d                	sub	s1,s1,a5
20102e46:	4781                	li	a5,0
20102e48:	0af4e4b3          	max	s1,s1,a5
20102e4c:	441c                	lw	a5,8(s0)
20102e4e:	4818                	lw	a4,16(s0)
20102e50:	00f75463          	bge	a4,a5,20102e58 <_printf_common+0xa2>
20102e54:	8f99                	sub	a5,a5,a4
20102e56:	94be                	add	s1,s1,a5
20102e58:	4901                	li	s2,0
20102e5a:	0469                	addi	s0,s0,26
20102e5c:	5b7d                	li	s6,-1
20102e5e:	05249863          	bne	s1,s2,20102eae <_printf_common+0xf8>
20102e62:	4501                	li	a0,0
20102e64:	a809                	j	20102e76 <_printf_common+0xc0>
20102e66:	4685                	li	a3,1
20102e68:	865a                	mv	a2,s6
20102e6a:	85d2                	mv	a1,s4
20102e6c:	854e                	mv	a0,s3
20102e6e:	9a82                	jalr	s5
20102e70:	01751e63          	bne	a0,s7,20102e8c <_printf_common+0xd6>
20102e74:	557d                	li	a0,-1
20102e76:	50b2                	lw	ra,44(sp)
20102e78:	5422                	lw	s0,40(sp)
20102e7a:	5492                	lw	s1,36(sp)
20102e7c:	5902                	lw	s2,32(sp)
20102e7e:	49f2                	lw	s3,28(sp)
20102e80:	4a62                	lw	s4,24(sp)
20102e82:	4ad2                	lw	s5,20(sp)
20102e84:	4b42                	lw	s6,16(sp)
20102e86:	4bb2                	lw	s7,12(sp)
20102e88:	6145                	addi	sp,sp,48
20102e8a:	8082                	ret
20102e8c:	0485                	addi	s1,s1,1
20102e8e:	bfa5                	j	20102e06 <_printf_common+0x50>
20102e90:	00d40733          	add	a4,s0,a3
20102e94:	03000613          	li	a2,48
20102e98:	04c701a3          	sb	a2,67(a4)
20102e9c:	04544703          	lbu	a4,69(s0)
20102ea0:	00168793          	addi	a5,a3,1
20102ea4:	97a2                	add	a5,a5,s0
20102ea6:	0689                	addi	a3,a3,2
20102ea8:	04e781a3          	sb	a4,67(a5)
20102eac:	bf9d                	j	20102e22 <_printf_common+0x6c>
20102eae:	4685                	li	a3,1
20102eb0:	8622                	mv	a2,s0
20102eb2:	85d2                	mv	a1,s4
20102eb4:	854e                	mv	a0,s3
20102eb6:	9a82                	jalr	s5
20102eb8:	fb650ee3          	beq	a0,s6,20102e74 <_printf_common+0xbe>
20102ebc:	0905                	addi	s2,s2,1
20102ebe:	b745                	j	20102e5e <_printf_common+0xa8>

20102ec0 <_printf_i>:
20102ec0:	7179                	addi	sp,sp,-48
20102ec2:	d422                	sw	s0,40(sp)
20102ec4:	d04a                	sw	s2,32(sp)
20102ec6:	ce4e                	sw	s3,28(sp)
20102ec8:	cc52                	sw	s4,24(sp)
20102eca:	d606                	sw	ra,44(sp)
20102ecc:	d226                	sw	s1,36(sp)
20102ece:	ca56                	sw	s5,20(sp)
20102ed0:	c85a                	sw	s6,16(sp)
20102ed2:	0185c803          	lbu	a6,24(a1)
20102ed6:	07800793          	li	a5,120
20102eda:	892a                	mv	s2,a0
20102edc:	842e                	mv	s0,a1
20102ede:	89b2                	mv	s3,a2
20102ee0:	8a36                	mv	s4,a3
20102ee2:	0307e263          	bltu	a5,a6,20102f06 <_printf_i+0x46>
20102ee6:	06200793          	li	a5,98
20102eea:	04358693          	addi	a3,a1,67
20102eee:	0307e163          	bltu	a5,a6,20102f10 <_printf_i+0x50>
20102ef2:	1c080c63          	beqz	a6,201030ca <_printf_i+0x20a>
20102ef6:	05800793          	li	a5,88
20102efa:	dff00617          	auipc	a2,0xdff00
20102efe:	7ae60613          	addi	a2,a2,1966 # 36a8 <__sf_fake_stdin+0x34>
20102f02:	14f80863          	beq	a6,a5,20103052 <_printf_i+0x192>
20102f06:	04240493          	addi	s1,s0,66
20102f0a:	05040123          	sb	a6,66(s0)
20102f0e:	a815                	j	20102f42 <_printf_i+0x82>
20102f10:	f9d80793          	addi	a5,a6,-99
20102f14:	0ff7f793          	zext.b	a5,a5
20102f18:	4655                	li	a2,21
20102f1a:	fef666e3          	bltu	a2,a5,20102f06 <_printf_i+0x46>
20102f1e:	dff00617          	auipc	a2,0xdff00
20102f22:	7b260613          	addi	a2,a2,1970 # 36d0 <__sf_fake_stdin+0x5c>
20102f26:	20c7c7b3          	sh2add	a5,a5,a2
20102f2a:	439c                	lw	a5,0(a5)
20102f2c:	97b2                	add	a5,a5,a2
20102f2e:	8782                	jr	a5
20102f30:	431c                	lw	a5,0(a4)
20102f32:	04258493          	addi	s1,a1,66
20102f36:	00478693          	addi	a3,a5,4
20102f3a:	439c                	lw	a5,0(a5)
20102f3c:	c314                	sw	a3,0(a4)
20102f3e:	04f58123          	sb	a5,66(a1)
20102f42:	4785                	li	a5,1
20102f44:	a275                	j	201030f0 <_printf_i+0x230>
20102f46:	4190                	lw	a2,0(a1)
20102f48:	431c                	lw	a5,0(a4)
20102f4a:	08067513          	andi	a0,a2,128
20102f4e:	00478593          	addi	a1,a5,4
20102f52:	c129                	beqz	a0,20102f94 <_printf_i+0xd4>
20102f54:	439c                	lw	a5,0(a5)
20102f56:	c30c                	sw	a1,0(a4)
20102f58:	4058                	lw	a4,4(s0)
20102f5a:	1207df63          	bgez	a5,20103098 <_printf_i+0x1d8>
20102f5e:	02d00593          	li	a1,45
20102f62:	04b401a3          	sb	a1,67(s0)
20102f66:	c418                	sw	a4,8(s0)
20102f68:	02075e63          	bgez	a4,20102fa4 <_printf_i+0xe4>
20102f6c:	40f007b3          	neg	a5,a5
20102f70:	dff00617          	auipc	a2,0xdff00
20102f74:	73860613          	addi	a2,a2,1848 # 36a8 <__sf_fake_stdin+0x34>
20102f78:	4829                	li	a6,10
20102f7a:	84b6                	mv	s1,a3
20102f7c:	0307f733          	remu	a4,a5,a6
20102f80:	14fd                	addi	s1,s1,-1
20102f82:	9732                	add	a4,a4,a2
20102f84:	2318                	lbu	a4,0(a4)
20102f86:	a098                	sb	a4,0(s1)
20102f88:	873e                	mv	a4,a5
20102f8a:	0307d7b3          	divu	a5,a5,a6
20102f8e:	ff0777e3          	bgeu	a4,a6,20102f7c <_printf_i+0xbc>
20102f92:	a085                	j	20102ff2 <_printf_i+0x132>
20102f94:	439c                	lw	a5,0(a5)
20102f96:	04067513          	andi	a0,a2,64
20102f9a:	c30c                	sw	a1,0(a4)
20102f9c:	dd55                	beqz	a0,20102f58 <_printf_i+0x98>
20102f9e:	60579793          	sext.h	a5,a5
20102fa2:	bf5d                	j	20102f58 <_printf_i+0x98>
20102fa4:	9a6d                	andi	a2,a2,-5
20102fa6:	c010                	sw	a2,0(s0)
20102fa8:	b7d1                	j	20102f6c <_printf_i+0xac>
20102faa:	4190                	lw	a2,0(a1)
20102fac:	431c                	lw	a5,0(a4)
20102fae:	08067513          	andi	a0,a2,128
20102fb2:	00478593          	addi	a1,a5,4
20102fb6:	c501                	beqz	a0,20102fbe <_printf_i+0xfe>
20102fb8:	c30c                	sw	a1,0(a4)
20102fba:	439c                	lw	a5,0(a5)
20102fbc:	a031                	j	20102fc8 <_printf_i+0x108>
20102fbe:	04067613          	andi	a2,a2,64
20102fc2:	c30c                	sw	a1,0(a4)
20102fc4:	da7d                	beqz	a2,20102fba <_printf_i+0xfa>
20102fc6:	239e                	lhu	a5,0(a5)
20102fc8:	06f00713          	li	a4,111
20102fcc:	dff00617          	auipc	a2,0xdff00
20102fd0:	6dc60613          	addi	a2,a2,1756 # 36a8 <__sf_fake_stdin+0x34>
20102fd4:	0ce81063          	bne	a6,a4,20103094 <_printf_i+0x1d4>
20102fd8:	4821                	li	a6,8
20102fda:	040401a3          	sb	zero,67(s0)
20102fde:	4058                	lw	a4,4(s0)
20102fe0:	c418                	sw	a4,8(s0)
20102fe2:	f8074ce3          	bltz	a4,20102f7a <_printf_i+0xba>
20102fe6:	400c                	lw	a1,0(s0)
20102fe8:	99ed                	andi	a1,a1,-5
20102fea:	c00c                	sw	a1,0(s0)
20102fec:	f7d9                	bnez	a5,20102f7a <_printf_i+0xba>
20102fee:	84b6                	mv	s1,a3
20102ff0:	f749                	bnez	a4,20102f7a <_printf_i+0xba>
20102ff2:	47a1                	li	a5,8
20102ff4:	00f81e63          	bne	a6,a5,20103010 <_printf_i+0x150>
20102ff8:	401c                	lw	a5,0(s0)
20102ffa:	8b85                	andi	a5,a5,1
20102ffc:	cb91                	beqz	a5,20103010 <_printf_i+0x150>
20102ffe:	4058                	lw	a4,4(s0)
20103000:	481c                	lw	a5,16(s0)
20103002:	00e7c763          	blt	a5,a4,20103010 <_printf_i+0x150>
20103006:	03000793          	li	a5,48
2010300a:	fef48fa3          	sb	a5,-1(s1)
2010300e:	14fd                	addi	s1,s1,-1
20103010:	8e85                	sub	a3,a3,s1
20103012:	c814                	sw	a3,16(s0)
20103014:	8752                	mv	a4,s4
20103016:	86ce                	mv	a3,s3
20103018:	0070                	addi	a2,sp,12
2010301a:	85a2                	mv	a1,s0
2010301c:	854a                	mv	a0,s2
2010301e:	d99ff0ef          	jal	ra,20102db6 <_printf_common>
20103022:	5afd                	li	s5,-1
20103024:	0d551a63          	bne	a0,s5,201030f8 <_printf_i+0x238>
20103028:	557d                	li	a0,-1
2010302a:	50b2                	lw	ra,44(sp)
2010302c:	5422                	lw	s0,40(sp)
2010302e:	5492                	lw	s1,36(sp)
20103030:	5902                	lw	s2,32(sp)
20103032:	49f2                	lw	s3,28(sp)
20103034:	4a62                	lw	s4,24(sp)
20103036:	4ad2                	lw	s5,20(sp)
20103038:	4b42                	lw	s6,16(sp)
2010303a:	6145                	addi	sp,sp,48
2010303c:	8082                	ret
2010303e:	419c                	lw	a5,0(a1)
20103040:	0207e793          	ori	a5,a5,32
20103044:	c19c                	sw	a5,0(a1)
20103046:	07800813          	li	a6,120
2010304a:	dff00617          	auipc	a2,0xdff00
2010304e:	67260613          	addi	a2,a2,1650 # 36bc <__sf_fake_stdin+0x48>
20103052:	050402a3          	sb	a6,69(s0)
20103056:	400c                	lw	a1,0(s0)
20103058:	431c                	lw	a5,0(a4)
2010305a:	0805f813          	andi	a6,a1,128
2010305e:	00478513          	addi	a0,a5,4
20103062:	00080563          	beqz	a6,2010306c <_printf_i+0x1ac>
20103066:	c308                	sw	a0,0(a4)
20103068:	439c                	lw	a5,0(a5)
2010306a:	a039                	j	20103078 <_printf_i+0x1b8>
2010306c:	0405f813          	andi	a6,a1,64
20103070:	c308                	sw	a0,0(a4)
20103072:	fe080be3          	beqz	a6,20103068 <_printf_i+0x1a8>
20103076:	239e                	lhu	a5,0(a5)
20103078:	0015f713          	andi	a4,a1,1
2010307c:	c701                	beqz	a4,20103084 <_printf_i+0x1c4>
2010307e:	0205e593          	ori	a1,a1,32
20103082:	c00c                	sw	a1,0(s0)
20103084:	c399                	beqz	a5,2010308a <_printf_i+0x1ca>
20103086:	4841                	li	a6,16
20103088:	bf89                	j	20102fda <_printf_i+0x11a>
2010308a:	4018                	lw	a4,0(s0)
2010308c:	fdf77713          	andi	a4,a4,-33
20103090:	c018                	sw	a4,0(s0)
20103092:	bfd5                	j	20103086 <_printf_i+0x1c6>
20103094:	4829                	li	a6,10
20103096:	b791                	j	20102fda <_printf_i+0x11a>
20103098:	dff00617          	auipc	a2,0xdff00
2010309c:	61060613          	addi	a2,a2,1552 # 36a8 <__sf_fake_stdin+0x34>
201030a0:	4829                	li	a6,10
201030a2:	bf35                	j	20102fde <_printf_i+0x11e>
201030a4:	4190                	lw	a2,0(a1)
201030a6:	431c                	lw	a5,0(a4)
201030a8:	49cc                	lw	a1,20(a1)
201030aa:	08067813          	andi	a6,a2,128
201030ae:	00478513          	addi	a0,a5,4
201030b2:	00080663          	beqz	a6,201030be <_printf_i+0x1fe>
201030b6:	c308                	sw	a0,0(a4)
201030b8:	439c                	lw	a5,0(a5)
201030ba:	c38c                	sw	a1,0(a5)
201030bc:	a039                	j	201030ca <_printf_i+0x20a>
201030be:	c308                	sw	a0,0(a4)
201030c0:	04067613          	andi	a2,a2,64
201030c4:	439c                	lw	a5,0(a5)
201030c6:	da75                	beqz	a2,201030ba <_printf_i+0x1fa>
201030c8:	a38e                	sh	a1,0(a5)
201030ca:	00042823          	sw	zero,16(s0)
201030ce:	84b6                	mv	s1,a3
201030d0:	b791                	j	20103014 <_printf_i+0x154>
201030d2:	431c                	lw	a5,0(a4)
201030d4:	41d0                	lw	a2,4(a1)
201030d6:	4581                	li	a1,0
201030d8:	00478693          	addi	a3,a5,4
201030dc:	c314                	sw	a3,0(a4)
201030de:	4384                	lw	s1,0(a5)
201030e0:	8526                	mv	a0,s1
201030e2:	cadff0ef          	jal	ra,20102d8e <memchr>
201030e6:	c501                	beqz	a0,201030ee <_printf_i+0x22e>
201030e8:	409507b3          	sub	a5,a0,s1
201030ec:	c05c                	sw	a5,4(s0)
201030ee:	405c                	lw	a5,4(s0)
201030f0:	c81c                	sw	a5,16(s0)
201030f2:	040401a3          	sb	zero,67(s0)
201030f6:	bf39                	j	20103014 <_printf_i+0x154>
201030f8:	4814                	lw	a3,16(s0)
201030fa:	8626                	mv	a2,s1
201030fc:	85ce                	mv	a1,s3
201030fe:	854a                	mv	a0,s2
20103100:	9a02                	jalr	s4
20103102:	f35503e3          	beq	a0,s5,20103028 <_printf_i+0x168>
20103106:	401c                	lw	a5,0(s0)
20103108:	8b89                	andi	a5,a5,2
2010310a:	e785                	bnez	a5,20103132 <_printf_i+0x272>
2010310c:	4448                	lw	a0,12(s0)
2010310e:	47b2                	lw	a5,12(sp)
20103110:	0af56533          	max	a0,a0,a5
20103114:	bf19                	j	2010302a <_printf_i+0x16a>
20103116:	4685                	li	a3,1
20103118:	8656                	mv	a2,s5
2010311a:	85ce                	mv	a1,s3
2010311c:	854a                	mv	a0,s2
2010311e:	9a02                	jalr	s4
20103120:	f16504e3          	beq	a0,s6,20103028 <_printf_i+0x168>
20103124:	0485                	addi	s1,s1,1
20103126:	445c                	lw	a5,12(s0)
20103128:	4732                	lw	a4,12(sp)
2010312a:	8f99                	sub	a5,a5,a4
2010312c:	fef4c5e3          	blt	s1,a5,20103116 <_printf_i+0x256>
20103130:	bff1                	j	2010310c <_printf_i+0x24c>
20103132:	4481                	li	s1,0
20103134:	01940a93          	addi	s5,s0,25
20103138:	5b7d                	li	s6,-1
2010313a:	b7f5                	j	20103126 <_printf_i+0x266>

2010313c <_read_r>:
2010313c:	1141                	addi	sp,sp,-16
2010313e:	c422                	sw	s0,8(sp)
20103140:	842a                	mv	s0,a0
20103142:	852e                	mv	a0,a1
20103144:	85b2                	mv	a1,a2
20103146:	8636                	mv	a2,a3
20103148:	8801a023          	sw	zero,-1920(gp) # 20120260 <errno>
2010314c:	c606                	sw	ra,12(sp)
2010314e:	20a1                	jal	20103196 <_read>
20103150:	57fd                	li	a5,-1
20103152:	00f51663          	bne	a0,a5,2010315e <_read_r+0x22>
20103156:	8801a783          	lw	a5,-1920(gp) # 20120260 <errno>
2010315a:	c391                	beqz	a5,2010315e <_read_r+0x22>
2010315c:	c01c                	sw	a5,0(s0)
2010315e:	40b2                	lw	ra,12(sp)
20103160:	4422                	lw	s0,8(sp)
20103162:	0141                	addi	sp,sp,16
20103164:	8082                	ret

20103166 <_close>:
20103166:	05800793          	li	a5,88
2010316a:	88f1a023          	sw	a5,-1920(gp) # 20120260 <errno>
2010316e:	557d                	li	a0,-1
20103170:	8082                	ret

20103172 <_fstat>:
20103172:	05800793          	li	a5,88
20103176:	88f1a023          	sw	a5,-1920(gp) # 20120260 <errno>
2010317a:	557d                	li	a0,-1
2010317c:	8082                	ret

2010317e <_isatty>:
2010317e:	05800793          	li	a5,88
20103182:	88f1a023          	sw	a5,-1920(gp) # 20120260 <errno>
20103186:	4501                	li	a0,0
20103188:	8082                	ret

2010318a <_lseek>:
2010318a:	05800793          	li	a5,88
2010318e:	88f1a023          	sw	a5,-1920(gp) # 20120260 <errno>
20103192:	557d                	li	a0,-1
20103194:	8082                	ret

20103196 <_read>:
20103196:	05800793          	li	a5,88
2010319a:	88f1a023          	sw	a5,-1920(gp) # 20120260 <errno>
2010319e:	557d                	li	a0,-1
201031a0:	8082                	ret
	...

Disassembly of section .text:

00003728 <handle_reset>:
    3728:	2011d197          	auipc	gp,0x2011d
    372c:	2b818193          	addi	gp,gp,696 # 201209e0 <__global_pointer$>
    3730:	2017d117          	auipc	sp,0x2017d
    3734:	8d010113          	addi	sp,sp,-1840 # 20180000 <_eusrstack>
    3738:	00800513          	li	a0,8
    373c:	2011d597          	auipc	a1,0x2011d
    3740:	8c458593          	addi	a1,a1,-1852 # 20120000 <_loadcode_vma_start>
    3744:	2011d617          	auipc	a2,0x2011d
    3748:	9a060613          	addi	a2,a2,-1632 # 201200e4 <_loadcode_vma_end>
    374c:	00c5fa63          	bgeu	a1,a2,3760 <handle_reset+0x38>
    3750:	00052283          	lw	t0,0(a0)
    3754:	0055a023          	sw	t0,0(a1)
    3758:	0511                	addi	a0,a0,4
    375a:	0591                	addi	a1,a1,4
    375c:	fec5eae3          	bltu	a1,a2,3750 <handle_reset+0x28>
    3760:	2011d097          	auipc	ra,0x2011d
    3764:	8a0080e7          	jalr	-1888(ra) # 20120000 <_loadcode_vma_start>
    3768:	123702b7          	lui	t0,0x12370
    376c:	3e128293          	addi	t0,t0,993 # 123703e1 <_data_lma+0x1236cc35>
    3770:	bc029073          	csrw	0xbc0,t0
    3774:	4285                	li	t0,1
    3776:	bc129073          	csrw	0xbc1,t0
    377a:	429d                	li	t0,7
    377c:	80429073          	csrw	0x804,t0
    3780:	6299                	lui	t0,0x6
    3782:	08828293          	addi	t0,t0,136 # 6088 <_data_lma+0x28dc>
    3786:	30029073          	csrw	mstatus,t0
    378a:	200fd297          	auipc	t0,0x200fd
    378e:	87628293          	addi	t0,t0,-1930 # 20100000 <_highcode_vma_start>
    3792:	0032e293          	ori	t0,t0,3
    3796:	30529073          	csrw	mtvec,t0

0000379a <BP>:
    379a:	200fd297          	auipc	t0,0x200fd
    379e:	bf028293          	addi	t0,t0,-1040 # 2010038a <main>
    37a2:	34129073          	csrw	mepc,t0
    37a6:	30200073          	mret
	...
